; Listing generated by Microsoft (R) Optimizing Compiler Version 17.00.50727.1 

; Generated by VC++ for Common Language Runtime
.file "F:\Meijin4\C++\Mogitter\Mogitter\MogiMeijin.cpp"
.global	
.global	?components@Form1@Mogitter@@3P$AAVContainer@ComponentModel@System@@$AA ; Mogitter::Form1::components
	.bss
.local	,4
.local	?components@Form1@Mogitter@@3P$AAVContainer@ComponentModel@System@@$AA,4 ; Mogitter::Form1::components
.local	$T1,0
; Function compile flags: /Ogsp
; File f:\meijin4\c++\mogitter\mogitter\form1.h
	.text
	.comdat	any, ??1Form1@Mogitter@@$$FA$AAM@XZ
.global	??1Form1@Mogitter@@$$FA$AAM@XZ			; Mogitter::Form1::~Form1
??1Form1@Mogitter@@$$FA$AAM@XZ:				; Mogitter::Form1::~Form1
;	.proc.def	D:V()

; Function Header:
; max stack depth = 1
; function size = 17 bytes
; local varsig tk = 0x11000002 
; Exception Information:
; 0 handlers, each consisting of filtered handlers

;	.formal.mptr 0,"this$" SIG: Optional C Binding Modifier(token:0x38BA05).class (token:0x38BA08)
;	.local.u4 0,"$T2" SIG: class (token:0x38B94D)

;	.proc.beg

; 46   : 			if (components)

  0000b	02		 ldarg.0 	; this$
  0000c	7b 00 00 00 00	 ldfld ?components@Form1@Mogitter@@3P$AAVContainer@ComponentModel@System@@$AA
  00011	0a		 stloc.0 	; $T2
  00012	06		 ldloc.0 	; $T2
  00013	2c 07		 brfalse.s $LN4@Form1

; 47   : 			{
; 48   : 				delete components;

  00015	06		 ldloc.0 	; $T2
  00016	6f 00 00 00 00	 callvirt ?<Dispose>@IDisposable@System@@$$FU$AAMXXZ
$LN4@Form1:

; 49   : 			}
; 50   : 		}

  0001c	2a		 ret 
 .end ??1Form1@Mogitter@@$$FA$AAM@XZ			; Mogitter::Form1::~Form1
;	.proc.end.void
.global	
.global	
.global	?answerBox@QBuild@Mogitter@@3P$AAVTextBox@Forms@Windows@System@@$AA ; Mogitter::QBuild::answerBox
	.bss
.local	,4
.local	,4
.local	?answerBox@QBuild@Mogitter@@3P$AAVTextBox@Forms@Windows@System@@$AA,4 ; Mogitter::QBuild::answerBox
; Function compile flags: /Ogsp
; File f:\meijin4\c++\mogitter\mogitter\qbuild.h
	.text
	.comdat	any, ?beginSet@QBuild@Mogitter@@$$FQ$AAMXP$AAVString@System@@@Z
.global	?beginSet@QBuild@Mogitter@@$$FQ$AAMXP$AAVString@System@@@Z ; Mogitter::QBuild::beginSet
?beginSet@QBuild@Mogitter@@$$FQ$AAMXP$AAVString@System@@@Z: ; Mogitter::QBuild::beginSet
;	.proc.def	D:V(P)

; Function Header:
; max stack depth = 2
; function size = 13 bytes
; local varsig tk = 0x0 
; Exception Information:
; 0 handlers, each consisting of filtered handlers

;	.formal.mptr 0,"this$" SIG: Optional C Binding Modifier(token:0x3D19CDD).class (token:0x3D19CE0)
;	.formal.mptr 1,"sele$" SIG: string

;	.proc.beg

; 371  : 				answerBox->Text = sele;

  0000b	02		 ldarg.0 	; this$
  0000c	7b 00 00 00 00	 ldfld ?answerBox@QBuild@Mogitter@@3P$AAVTextBox@Forms@Windows@System@@$AA
  00011	03		 ldarg.1 	; sele$
  00012	6f 00 00 00 00	 callvirt ?set@Text@TextBox@Forms@Windows@System@@$$FU$AAMXP$AAVString@5@@Z

; 372  : 				//sentakuGroup->Enabled = false;
; 373  : 			}

  00017	2a		 ret 
 .end ?beginSet@QBuild@Mogitter@@$$FQ$AAMXP$AAVString@System@@@Z ; Mogitter::QBuild::beginSet
;	.proc.end.void
.global	
.global	
.global	?sentakushi@QBuild@Mogitter@@3P$AAVAzukiControl@WinForms@Azuki@Sgry@@$AA ; Mogitter::QBuild::sentakushi
.global	?LineNumberBack@ColorScheme@Azuki@Sgry@@3VColor@Drawing@System@@A ; Sgry::Azuki::ColorScheme::LineNumberBack
.global	?LineNumberFore@ColorScheme@Azuki@Sgry@@3VColor@Drawing@System@@A ; Sgry::Azuki::ColorScheme::LineNumberFore
	.bss
.local	,4
.local	,4
.local	?sentakushi@QBuild@Mogitter@@3P$AAVAzukiControl@WinForms@Azuki@Sgry@@$AA,4 ; Mogitter::QBuild::sentakushi
.local	?LineNumberBack@ColorScheme@Azuki@Sgry@@3VColor@Drawing@System@@A,20 ; Sgry::Azuki::ColorScheme::LineNumberBack
.local	?LineNumberFore@ColorScheme@Azuki@Sgry@@3VColor@Drawing@System@@A,20 ; Sgry::Azuki::ColorScheme::LineNumberFore
.local	$T1,0
; Function compile flags: /Ogsp
; File f:\meijin4\c++\mogitter\mogitter\qbuild.h
	.text
	.comdat	any, ?QBuild_Load@QBuild@Mogitter@@$$FA$AAMXP$AAVObject@System@@P$AAVEventArgs@4@@Z
.global	?QBuild_Load@QBuild@Mogitter@@$$FA$AAMXP$AAVObject@System@@P$AAVEventArgs@4@@Z ; Mogitter::QBuild::QBuild_Load
?QBuild_Load@QBuild@Mogitter@@$$FA$AAMXP$AAVObject@System@@P$AAVEventArgs@4@@Z: ; Mogitter::QBuild::QBuild_Load
;	.proc.def	D:V(PP)

; Function Header:
; max stack depth = 4
; function size = 177 bytes
; local varsig tk = 0x11000007 
; Exception Information:
; 0 handlers, each consisting of filtered handlers

;	.formal.mptr 0,"this$" SIG: Optional C Binding Modifier(token:0x3D19CDD).class (token:0x3D19CE0)
;	.local.mb20  2,"$T2" SIG: valueType (token:0x3D28D25)
;	.local.mb20  1,"$T3" SIG: valueType (token:0x3D28D25)
;	.local.mb20  0,"$T4" SIG: valueType (token:0x3D28D25)

;	.proc.beg

; 376  : 				 this->sentakushi->BackColor = System::Drawing::Color::White;

  0000b	28 00 00 00 00	 call ?get@White@Color@Drawing@System@@$$FSM?AV234@XZ
  00010	0c		 stloc.2 	; $T2
  00011	02		 ldarg.0 	; this$
  00012	7b 00 00 00 00	 ldfld ?sentakushi@QBuild@Mogitter@@3P$AAVAzukiControl@WinForms@Azuki@Sgry@@$AA
  00017	08		 ldloc.2 	; $T2
  00018	6f 00 00 00 00	 callvirt ?set@BackColor@AzukiControl@WinForms@Azuki@Sgry@@$$FU$AAMXVColor@Drawing@System@@@Z

; 377  : 				 sentakushi->SetKeyBind(static_cast<System::Windows::Forms::Keys>((System::Windows::Forms::Keys::Control | System::Windows::Forms::Keys::C)),gcnew Sgry::Azuki::ActionProc(&Sgry::Azuki::Actions::Copy));

  0001d	02		 ldarg.0 	; this$
  0001e	7b 00 00 00 00	 ldfld ?sentakushi@QBuild@Mogitter@@3P$AAVAzukiControl@WinForms@Azuki@Sgry@@$AA
  00023	20 43 00 02 00	 ldc.i4 131139	; i32 0x20043
  00028	14		 ldnull 0	; i32 0x0
  00029	fe 06 00 00 00
	00		 ldftn ?Copy@Actions@Azuki@Sgry@@$$FSMXP$AAUIUserInterface@23@@Z
  0002f	73 00 00 00 00	 newobj ??0ActionProc@Azuki@Sgry@@$$FQ$AAM@P$AAVObject@System@@VIntPtr@4@@Z
  00034	28 00 00 00 00	 call ?SetKeyBind@AzukiControl@WinForms@Azuki@Sgry@@$$FQ$AAMXW4Keys@Forms@Windows@System@@P$AAVActionProc@34@@Z

; 378  : 				 sentakushi->SetKeyBind(static_cast<System::Windows::Forms::Keys>((System::Windows::Forms::Keys::Control | System::Windows::Forms::Keys::V)),gcnew Sgry::Azuki::ActionProc(&Sgry::Azuki::Actions::Paste));

  00039	02		 ldarg.0 	; this$
  0003a	7b 00 00 00 00	 ldfld ?sentakushi@QBuild@Mogitter@@3P$AAVAzukiControl@WinForms@Azuki@Sgry@@$AA
  0003f	20 56 00 02 00	 ldc.i4 131158	; i32 0x20056
  00044	14		 ldnull 0	; i32 0x0
  00045	fe 06 00 00 00
	00		 ldftn ?Paste@Actions@Azuki@Sgry@@$$FSMXP$AAUIUserInterface@23@@Z
  0004b	73 00 00 00 00	 newobj ??0ActionProc@Azuki@Sgry@@$$FQ$AAM@P$AAVObject@System@@VIntPtr@4@@Z
  00050	28 00 00 00 00	 call ?SetKeyBind@AzukiControl@WinForms@Azuki@Sgry@@$$FQ$AAMXW4Keys@Forms@Windows@System@@P$AAVActionProc@34@@Z

; 379  : 				 sentakushi->SetKeyBind(static_cast<System::Windows::Forms::Keys>((System::Windows::Forms::Keys::Control | System::Windows::Forms::Keys::Z)),gcnew Sgry::Azuki::ActionProc(&Sgry::Azuki::Actions::Undo));

  00055	02		 ldarg.0 	; this$
  00056	7b 00 00 00 00	 ldfld ?sentakushi@QBuild@Mogitter@@3P$AAVAzukiControl@WinForms@Azuki@Sgry@@$AA
  0005b	20 5a 00 02 00	 ldc.i4 131162	; i32 0x2005a
  00060	14		 ldnull 0	; i32 0x0
  00061	fe 06 00 00 00
	00		 ldftn ?Undo@Actions@Azuki@Sgry@@$$FSMXP$AAUIUserInterface@23@@Z
  00067	73 00 00 00 00	 newobj ??0ActionProc@Azuki@Sgry@@$$FQ$AAM@P$AAVObject@System@@VIntPtr@4@@Z
  0006c	28 00 00 00 00	 call ?SetKeyBind@AzukiControl@WinForms@Azuki@Sgry@@$$FQ$AAMXW4Keys@Forms@Windows@System@@P$AAVActionProc@34@@Z

; 380  : 				 sentakushi->SetKeyBind(static_cast<System::Windows::Forms::Keys>((System::Windows::Forms::Keys::Control | System::Windows::Forms::Keys::Y)),gcnew Sgry::Azuki::ActionProc(&Sgry::Azuki::Actions::Redo));

  00071	02		 ldarg.0 	; this$
  00072	7b 00 00 00 00	 ldfld ?sentakushi@QBuild@Mogitter@@3P$AAVAzukiControl@WinForms@Azuki@Sgry@@$AA
  00077	20 59 00 02 00	 ldc.i4 131161	; i32 0x20059
  0007c	14		 ldnull 0	; i32 0x0
  0007d	fe 06 00 00 00
	00		 ldftn ?Redo@Actions@Azuki@Sgry@@$$FSMXP$AAUIUserInterface@23@@Z
  00083	73 00 00 00 00	 newobj ??0ActionProc@Azuki@Sgry@@$$FQ$AAM@P$AAVObject@System@@VIntPtr@4@@Z
  00088	28 00 00 00 00	 call ?SetKeyBind@AzukiControl@WinForms@Azuki@Sgry@@$$FQ$AAMXW4Keys@Forms@Windows@System@@P$AAVActionProc@34@@Z

; 381  : 				 sentakushi->ColorScheme->LineNumberBack = Color::SeaShell;// SeaShell;

  0008d	28 00 00 00 00	 call ?get@SeaShell@Color@Drawing@System@@$$FSM?AV234@XZ
  00092	0b		 stloc.1 	; $T3
  00093	02		 ldarg.0 	; this$
  00094	7b 00 00 00 00	 ldfld ?sentakushi@QBuild@Mogitter@@3P$AAVAzukiControl@WinForms@Azuki@Sgry@@$AA
  00099	6f 00 00 00 00	 callvirt ?get@ColorScheme@AzukiControl@WinForms@Azuki@Sgry@@$$FU$AAMP$AAV145@XZ
  0009e	07		 ldloc.1 	; $T3
  0009f	7d 00 00 00 00	 stfld ?LineNumberBack@ColorScheme@Azuki@Sgry@@3VColor@Drawing@System@@A

; 382  : 				 sentakushi->ColorScheme->LineNumberFore = Color::Sienna;

  000a4	28 00 00 00 00	 call ?get@Sienna@Color@Drawing@System@@$$FSM?AV234@XZ
  000a9	0a		 stloc.0 	; $T4
  000aa	02		 ldarg.0 	; this$
  000ab	7b 00 00 00 00	 ldfld ?sentakushi@QBuild@Mogitter@@3P$AAVAzukiControl@WinForms@Azuki@Sgry@@$AA
  000b0	6f 00 00 00 00	 callvirt ?get@ColorScheme@AzukiControl@WinForms@Azuki@Sgry@@$$FU$AAMP$AAV145@XZ
  000b5	06		 ldloc.0 	; $T4
  000b6	7d 00 00 00 00	 stfld ?LineNumberFore@ColorScheme@Azuki@Sgry@@3VColor@Drawing@System@@A

; 383  : 			 }

  000bb	2a		 ret 
 .end ?QBuild_Load@QBuild@Mogitter@@$$FA$AAMXP$AAVObject@System@@P$AAVEventArgs@4@@Z ; Mogitter::QBuild::QBuild_Load
;	.proc.end.void
; Function compile flags: /Ogsp
; File f:\meijin4\c++\mogitter\mogitter\qbuild.h
	.text
	.comdat	any, ?cancel_Click@QBuild@Mogitter@@$$FA$AAMXP$AAVObject@System@@P$AAVEventArgs@4@@Z
.global	?cancel_Click@QBuild@Mogitter@@$$FA$AAMXP$AAVObject@System@@P$AAVEventArgs@4@@Z ; Mogitter::QBuild::cancel_Click
?cancel_Click@QBuild@Mogitter@@$$FA$AAMXP$AAVObject@System@@P$AAVEventArgs@4@@Z: ; Mogitter::QBuild::cancel_Click
;	.proc.def	D:V(PP)

; Function Header:
; max stack depth = 1
; function size = 7 bytes
; local varsig tk = 0x0 
; Exception Information:
; 0 handlers, each consisting of filtered handlers

;	.formal.mptr 0,"this$" SIG: Optional C Binding Modifier(token:0x3D19CDD).class (token:0x3D19CE0)

;	.proc.beg

; 385  : 				 this->Close();

  0000b	02		 ldarg.0 	; this$
  0000c	28 00 00 00 00	 call ?Close@Form@Forms@Windows@System@@$$FQ$AAMXXZ

; 386  : 			 }

  00011	2a		 ret 
 .end ?cancel_Click@QBuild@Mogitter@@$$FA$AAMXP$AAVObject@System@@P$AAVEventArgs@4@@Z ; Mogitter::QBuild::cancel_Click
;	.proc.end.void
.global	
.global	
.global	
.global	?seikaiNumber@QBuild@Mogitter@@3P$AAVNumericUpDown@Forms@Windows@System@@$AA ; Mogitter::QBuild::seikaiNumber
	.bss
.local	,4
.local	,4
.local	,4
.local	$TypeTok$11003218$,4
.local	$va_argTok$_W,4
.local	$StringLiteralTok$??_C@_13LBAGMAIH@?$AA?6?$AA?$AA@,4
.local	$StringLiteralTok$??_C@_11LOCGONAA@?$AA?$AA@,4
.local	$StringLiteralTok$??_C@_13CMNBPIDO@?$AA?$AN?$AA?$AA@,4
.local	?seikaiNumber@QBuild@Mogitter@@3P$AAVNumericUpDown@Forms@Windows@System@@$AA,4 ; Mogitter::QBuild::seikaiNumber
.local	$T1,0
; Function compile flags: /Ogsp
; File f:\meijin4\c++\mogitter\mogitter\qbuild.h
	.text
	.comdat	any, ?sentakushi_TextChanged@QBuild@Mogitter@@$$FA$AAMXP$AAVObject@System@@P$AAVEventArgs@4@@Z
.global	?sentakushi_TextChanged@QBuild@Mogitter@@$$FA$AAMXP$AAVObject@System@@P$AAVEventArgs@4@@Z ; Mogitter::QBuild::sentakushi_TextChanged
?sentakushi_TextChanged@QBuild@Mogitter@@$$FA$AAMXP$AAVObject@System@@P$AAVEventArgs@4@@Z: ; Mogitter::QBuild::sentakushi_TextChanged
;	.proc.def	D:V(PP)

; Function Header:
; max stack depth = 5
; function size = 164 bytes
; local varsig tk = 0x1100000B 
; Exception Information:
; 0 handlers, each consisting of filtered handlers

;	.formal.mptr 0,"this$" SIG: Optional C Binding Modifier(token:0x3D19CDD).class (token:0x3D19CE0)
;	.local.mptr 3,"sep$" SIG: szarray (token:0x3D1C00D)
;	.local.mptr 1,"kinds$" SIG: szarray (token:0x3D1E3B5)
;	.local.i4 2,"len$" SIG: i4
;	.local.i4 0,"i$2" SIG: i4
;	.local.mb16  5,"$T3" SIG: valueType (token:0x3D226AD)
;	.local.mb16  4,"$T4" SIG: valueType (token:0x3D226AD)

;	.proc.beg

; 388  : 				 array<wchar_t>^ sep = {'\n'};

  0000b	17		 ldc.i.1 1	; i32 0x1
  0000c	8d 00 00 00 00	 newarr $TypeTok$11003218$
  00011	0d		 stloc.3 	; sep$
  00012	09		 ldloc.3 	; sep$
  00013	16		 ldc.i.0 0	; i32 0x0
  00014	8f 00 00 00 00	 ldelema $va_argTok$_W
  00019	1f 0a		 ldc.i4.s 10	; u16 0xa
  0001b	53		 stind.i2 

; 389  : 				 array<System::String ^> ^kinds=sentakushi->Text->Split(sep);

  0001c	02		 ldarg.0 	; this$
  0001d	7b 00 00 00 00	 ldfld ?sentakushi@QBuild@Mogitter@@3P$AAVAzukiControl@WinForms@Azuki@Sgry@@$AA
  00022	6f 00 00 00 00	 callvirt ?get@Text@AzukiControl@WinForms@Azuki@Sgry@@$$FU$AAMP$AAVString@System@@XZ
  00027	09		 ldloc.3 	; sep$
  00028	28 00 00 00 00	 call ?Split@String@System@@$$FQ$AAMP$01AP$AAV12@P$01A_W@Z
  0002d	0b		 stloc.1 	; kinds$

; 390  : 				 int len = 1;

  0002e	17		 ldc.i.1 1	; i32 0x1
  0002f	0c		 stloc.2 	; len$

; 391  : 				 for(int i=0;i<kinds->Length;i++){

  00030	16		 ldc.i.0 0	; i32 0x0
  00031	0a		 stloc.0 	; i$2
  00032	16		 ldc.i.0 0	; i32 0x0
  00033	07		 ldloc.1 	; kinds$
  00034	8e		 ldlen 
  00035	2f 42		 bge.s $LN2@sentakushi
$LL4@sentakushi:

; 392  : 						kinds[i] = kinds[i]->Replace("\n","");

  00038	07		 ldloc.1 	; kinds$
  00039	06		 ldloc.0 	; i$2
  0003a	07		 ldloc.1 	; kinds$
  0003b	06		 ldloc.0 	; i$2
  0003c	9a		 ldelem.ref 
  0003d	72 00 00 00 00	 ldstr $StringLiteralTok$??_C@_13LBAGMAIH@?$AA?6?$AA?$AA@
  00042	72 00 00 00 00	 ldstr $StringLiteralTok$??_C@_11LOCGONAA@?$AA?$AA@
  00047	28 00 00 00 00	 call ?Replace@String@System@@$$FQ$AAMP$AAV12@P$AAV12@0@Z
  0004c	a2		 stelem.ref 

; 393  : 						kinds[i] = kinds[i]->Replace("\r","");

  0004d	07		 ldloc.1 	; kinds$
  0004e	06		 ldloc.0 	; i$2
  0004f	07		 ldloc.1 	; kinds$
  00050	06		 ldloc.0 	; i$2
  00051	9a		 ldelem.ref 
  00052	72 00 00 00 00	 ldstr $StringLiteralTok$??_C@_13CMNBPIDO@?$AA?$AN?$AA?$AA@
  00057	72 00 00 00 00	 ldstr $StringLiteralTok$??_C@_11LOCGONAA@?$AA?$AA@
  0005c	28 00 00 00 00	 call ?Replace@String@System@@$$FQ$AAMP$AAV12@P$AAV12@0@Z
  00061	a2		 stelem.ref 

; 394  : 						if(kinds[i]->Length==0)

  00062	07		 ldloc.1 	; kinds$
  00063	06		 ldloc.0 	; i$2
  00064	9a		 ldelem.ref 
  00065	28 00 00 00 00	 call ?get@Length@String@System@@$$FQ$AAMHXZ
  0006a	2c 04		 brfalse.s $LN3@sentakushi

; 395  : 							continue;
; 396  : 						len++;

  0006c	08		 ldloc.2 	; len$
  0006d	17		 ldc.i.1 1	; i32 0x1
  0006e	58		 add 
  0006f	0c		 stloc.2 	; len$
$LN3@sentakushi:

; 391  : 				 for(int i=0;i<kinds->Length;i++){

  00070	06		 ldloc.0 	; i$2
  00071	17		 ldc.i.1 1	; i32 0x1
  00072	58		 add 
  00073	0a		 stloc.0 	; i$2
  00074	06		 ldloc.0 	; i$2
  00075	07		 ldloc.1 	; kinds$
  00076	8e		 ldlen 
  00077	32 bf		 blt.s $LL4@sentakushi
$LN2@sentakushi:

; 397  : 				 }
; 398  : 				 seikaiNumber->Maximum = len;

  00079	08		 ldloc.2 	; len$
  0007a	28 00 00 00 00	 call ??BDecimal@System@@$$FSM?AV01@H@Z
  0007f	13 05		 stloc.s 5	; $T3
  00081	02		 ldarg.0 	; this$
  00082	7b 00 00 00 00	 ldfld ?seikaiNumber@QBuild@Mogitter@@3P$AAVNumericUpDown@Forms@Windows@System@@$AA
  00087	11 05		 ldloc.s 5	; $T3
  00089	28 00 00 00 00	 call ?set@Maximum@NumericUpDown@Forms@Windows@System@@$$FQ$AAMXVDecimal@5@@Z

; 399  : 				 Random^ rand = gcnew Random();

  0008e	73 00 00 00 00	 newobj ??0Random@System@@$$FQ$AAM@XZ

; 400  : 				 seikaiNumber->Value = rand->Next(len)+1;

  00093	08		 ldloc.2 	; len$
  00094	6f 00 00 00 00	 callvirt ?Next@Random@System@@$$FU$AAMHH@Z
  00099	17		 ldc.i.1 1	; i32 0x1
  0009a	58		 add 
  0009b	28 00 00 00 00	 call ??BDecimal@System@@$$FSM?AV01@H@Z
  000a0	13 04		 stloc.s 4	; $T4
  000a2	02		 ldarg.0 	; this$
  000a3	7b 00 00 00 00	 ldfld ?seikaiNumber@QBuild@Mogitter@@3P$AAVNumericUpDown@Forms@Windows@System@@$AA
  000a8	11 04		 ldloc.s 4	; $T4
  000aa	28 00 00 00 00	 call ?set@Value@NumericUpDown@Forms@Windows@System@@$$FQ$AAMXVDecimal@5@@Z

; 401  : 		 }

  000af	2a		 ret 
 .end ?sentakushi_TextChanged@QBuild@Mogitter@@$$FA$AAMXP$AAVObject@System@@P$AAVEventArgs@4@@Z ; Mogitter::QBuild::sentakushi_TextChanged
;	.proc.end.void
.global	
	.bss
.local	,4
; Function compile flags: /Ogsp
; File f:\meijin4\c++\mogitter\mogitter\sprash.h
	.text
	.comdat	any, ?Sprash_Load@Sprash@Mogitter@@$$FA$AAMXP$AAVObject@System@@P$AAVEventArgs@4@@Z
.global	?Sprash_Load@Sprash@Mogitter@@$$FA$AAMXP$AAVObject@System@@P$AAVEventArgs@4@@Z ; Mogitter::Sprash::Sprash_Load
?Sprash_Load@Sprash@Mogitter@@$$FA$AAMXP$AAVObject@System@@P$AAVEventArgs@4@@Z: ; Mogitter::Sprash::Sprash_Load
;	.proc.def	D:V(PP)

; Function Header:
; max stack depth = 0
; function size = 1 bytes
; local varsig tk = 0x0 
; Exception Information:
; 0 handlers, each consisting of filtered handlers


;	.proc.beg

; 98   : 			 }

  0000b	2a		 ret 
 .end ?Sprash_Load@Sprash@Mogitter@@$$FA$AAMXP$AAVObject@System@@P$AAVEventArgs@4@@Z ; Mogitter::Sprash::Sprash_Load
;	.proc.end.void
; Function compile flags: /Ogsp
; File f:\meijin4\c++\mogitter\mogitter\sprash.h
	.text
	.comdat	any, ?closingNow@Sprash@Mogitter@@$$FA$AAMXP$AAVObject@System@@P$AAVEventArgs@4@@Z
.global	?closingNow@Sprash@Mogitter@@$$FA$AAMXP$AAVObject@System@@P$AAVEventArgs@4@@Z ; Mogitter::Sprash::closingNow
?closingNow@Sprash@Mogitter@@$$FA$AAMXP$AAVObject@System@@P$AAVEventArgs@4@@Z: ; Mogitter::Sprash::closingNow
;	.proc.def	D:V(PP)

; Function Header:
; max stack depth = 1
; function size = 7 bytes
; local varsig tk = 0x0 
; Exception Information:
; 0 handlers, each consisting of filtered handlers

;	.formal.mptr 0,"this$" SIG: Optional C Binding Modifier(token:0x3D7841D).class (token:0x3D78420)

;	.proc.beg

; 100  : 				 this->Close();

  0000b	02		 ldarg.0 	; this$
  0000c	28 00 00 00 00	 call ?Close@Form@Forms@Windows@System@@$$FQ$AAMXXZ

; 101  : 			 }

  00011	2a		 ret 
 .end ?closingNow@Sprash@Mogitter@@$$FA$AAMXP$AAVObject@System@@P$AAVEventArgs@4@@Z ; Mogitter::Sprash::closingNow
;	.proc.end.void
.global	
.global	?mogiMake@Form1@Mogitter@@3P$AAVButton@Forms@Windows@System@@$AA ; Mogitter::Form1::mogiMake
.global	?makeOrDeleteBox@Form1@Mogitter@@3P$AAVGroupBox@Forms@Windows@System@@$AA ; Mogitter::Form1::makeOrDeleteBox
.global	?kindSetBox@Form1@Mogitter@@3P$AAVGroupBox@Forms@Windows@System@@$AA ; Mogitter::Form1::kindSetBox
.global	?keishikiBox@Form1@Mogitter@@3P$AAVGroupBox@Forms@Windows@System@@$AA ; Mogitter::Form1::keishikiBox
	.bss
.local	,4
.local	?mogiMake@Form1@Mogitter@@3P$AAVButton@Forms@Windows@System@@$AA,4 ; Mogitter::Form1::mogiMake
.local	?makeOrDeleteBox@Form1@Mogitter@@3P$AAVGroupBox@Forms@Windows@System@@$AA,4 ; Mogitter::Form1::makeOrDeleteBox
.local	?kindSetBox@Form1@Mogitter@@3P$AAVGroupBox@Forms@Windows@System@@$AA,4 ; Mogitter::Form1::kindSetBox
.local	?keishikiBox@Form1@Mogitter@@3P$AAVGroupBox@Forms@Windows@System@@$AA,4 ; Mogitter::Form1::keishikiBox
; Function compile flags: /Ogsp
; File f:\meijin4\c++\mogitter\mogitter\form1.h
	.text
	.comdat	any, ?setButtonsEnabled@Form1@Mogitter@@$$FA$AAMX_N@Z
.global	?setButtonsEnabled@Form1@Mogitter@@$$FA$AAMX_N@Z ; Mogitter::Form1::setButtonsEnabled
?setButtonsEnabled@Form1@Mogitter@@$$FA$AAMX_N@Z:	; Mogitter::Form1::setButtonsEnabled
;	.proc.def	D:V(I)

; Function Header:
; max stack depth = 2
; function size = 49 bytes
; local varsig tk = 0x0 
; Exception Information:
; 0 handlers, each consisting of filtered handlers

;	.formal.mptr 0,"this$" SIG: Optional C Binding Modifier(token:0x38BA05).class (token:0x38BA08)
;	.formal.u1 1,"setBool$" SIG: bool

;	.proc.beg

; 748  : 				mogiMake->Enabled = setBool;

  0000b	02		 ldarg.0 	; this$
  0000c	7b 00 00 00 00	 ldfld ?mogiMake@Form1@Mogitter@@3P$AAVButton@Forms@Windows@System@@$AA
  00011	03		 ldarg.1 	; setBool$
  00012	28 00 00 00 00	 call ?set@Enabled@Control@Forms@Windows@System@@$$FQ$AAMX_N@Z

; 749  : 				makeOrDeleteBox->Enabled = setBool;

  00017	02		 ldarg.0 	; this$
  00018	7b 00 00 00 00	 ldfld ?makeOrDeleteBox@Form1@Mogitter@@3P$AAVGroupBox@Forms@Windows@System@@$AA
  0001d	03		 ldarg.1 	; setBool$
  0001e	28 00 00 00 00	 call ?set@Enabled@Control@Forms@Windows@System@@$$FQ$AAMX_N@Z

; 750  : 				kindSetBox->Enabled = setBool;

  00023	02		 ldarg.0 	; this$
  00024	7b 00 00 00 00	 ldfld ?kindSetBox@Form1@Mogitter@@3P$AAVGroupBox@Forms@Windows@System@@$AA
  00029	03		 ldarg.1 	; setBool$
  0002a	28 00 00 00 00	 call ?set@Enabled@Control@Forms@Windows@System@@$$FQ$AAMX_N@Z

; 751  : 				keishikiBox->Enabled = setBool;

  0002f	02		 ldarg.0 	; this$
  00030	7b 00 00 00 00	 ldfld ?keishikiBox@Form1@Mogitter@@3P$AAVGroupBox@Forms@Windows@System@@$AA
  00035	03		 ldarg.1 	; setBool$
  00036	28 00 00 00 00	 call ?set@Enabled@Control@Forms@Windows@System@@$$FQ$AAMX_N@Z

; 752  : 			 }

  0003b	2a		 ret 
 .end ?setButtonsEnabled@Form1@Mogitter@@$$FA$AAMX_N@Z	; Mogitter::Form1::setButtonsEnabled
;	.proc.end.void
.global	?whatToDoForUser@Form1@Mogitter@@3P$AAVToolStripStatusLabel@Forms@Windows@System@@$AA ; Mogitter::Form1::whatToDoForUser
	.bss
.local	$TypeTok$110E9D94$,4
.local	$StringLiteralTok$??_C@_1DG@EJLKPDCP@j?$CBd?l0?F0?$LJ0?H0nS?$JPe?$IH0?$JC0?F0?$KN0?$LJ0?H0?$KI0?j0?$KC0k?$IK?$KN0?$HP?$IP?$LM0?$JD0g0O0?$GA0U0D?$AA?$AA@,4
.local	$StringLiteralTok$??_C@_1EG@LAJOMJP@ztW?K0?$IB?$AA?5?$AA?1?$AA?5?$JAxb?$JOUO?$JIL0k0W0_0D?$HL?$IHb?$EA0?$JC0?$NO0?$KG0?$LJ0g?$JAxb?$JO0Y0?$IL0S0h0gO?2b?$BA0g0M@,4
.local	$StringLiteralTok$??_C@_1EM@FDADDLPJ@UO?$JILO?2b?$BA0L?$FL?$IMN?$IG0W0_0?$IJ0?$ABu?$BPb?$BA0?$NM0?$LP0?s0?$JCb?$LM0W0f?$IKf?$JK?$BD0?$JCY?K0?$IB0fN?$AL0U0D0?$ACO?$NN?$FLX@,4
.local	?whatToDoForUser@Form1@Mogitter@@3P$AAVToolStripStatusLabel@Forms@Windows@System@@$AA,4 ; Mogitter::Form1::whatToDoForUser
.local	$T1,0
; Function compile flags: /Ogsp
; File f:\meijin4\c++\mogitter\mogitter\form1.h
	.text
	.comdat	any, ?setExplainText@Form1@Mogitter@@$$FA$AAMXH@Z
.global	?setExplainText@Form1@Mogitter@@$$FA$AAMXH@Z	; Mogitter::Form1::setExplainText
?setExplainText@Form1@Mogitter@@$$FA$AAMXH@Z:		; Mogitter::Form1::setExplainText
;	.proc.def	D:V(I)

; Function Header:
; max stack depth = 3
; function size = 57 bytes
; local varsig tk = 0x1100000E 
; Exception Information:
; 0 handlers, each consisting of filtered handlers

;	.formal.mptr 0,"this$" SIG: Optional C Binding Modifier(token:0x38BA05).class (token:0x38BA08)
;	.formal.i4 1,"index$" SIG: i4
;	.local.mptr 0,"text$" SIG: szarray (token:0x3D1E3B5)

;	.proc.beg

; 754  : 				array<System::String ^> ^text = {"模擬テストの原文をテキストエリアに読み込んでください",
; 755  : 					 "穴埋め / 選択問題にしたい箇所をマウスで選択することで作成できます",
; 756  : 					 "問題作成が完了したら、生成ボタンを押して試験を始めて下さい。保存もできます",};

  0000b	19		 ldc.i.3 3	; i32 0x3
  0000c	8d 00 00 00 00	 newarr $TypeTok$110E9D94$
  00011	0a		 stloc.0 	; text$
  00012	06		 ldloc.0 	; text$
  00013	16		 ldc.i.0 0	; i32 0x0
  00014	72 00 00 00 00	 ldstr $StringLiteralTok$??_C@_1DG@EJLKPDCP@j?$CBd?l0?F0?$LJ0?H0nS?$JPe?$IH0?$JC0?F0?$KN0?$LJ0?H0?$KI0?j0?$KC0k?$IK?$KN0?$HP?$IP?$LM0?$JD0g0O0?$GA0U0D?$AA?$AA@
  00019	a2		 stelem.ref 
  0001a	06		 ldloc.0 	; text$
  0001b	17		 ldc.i.1 1	; i32 0x1
  0001c	72 00 00 00 00	 ldstr $StringLiteralTok$??_C@_1EG@LAJOMJP@ztW?K0?$IB?$AA?5?$AA?1?$AA?5?$JAxb?$JOUO?$JIL0k0W0_0D?$HL?$IHb?$EA0?$JC0?$NO0?$KG0?$LJ0g?$JAxb?$JO0Y0?$IL0S0h0gO?2b?$BA0g0M@
  00021	a2		 stelem.ref 
  00022	06		 ldloc.0 	; text$
  00023	18		 ldc.i.2 2	; i32 0x2
  00024	72 00 00 00 00	 ldstr $StringLiteralTok$??_C@_1EM@FDADDLPJ@UO?$JILO?2b?$BA0L?$FL?$IMN?$IG0W0_0?$IJ0?$ABu?$BPb?$BA0?$NM0?$LP0?s0?$JCb?$LM0W0f?$IKf?$JK?$BD0?$JCY?K0?$IB0fN?$AL0U0D0?$ACO?$NN?$FLX@
  00029	a2		 stelem.ref 

; 757  : 				if(index>=0 && index<=text->Length-1)

  0002a	03		 ldarg.1 	; index$
  0002b	16		 ldc.i.0 0	; i32 0x0
  0002c	32 16		 blt.s $LN1@setExplain
  0002e	03		 ldarg.1 	; index$
  0002f	06		 ldloc.0 	; text$
  00030	8e		 ldlen 
  00031	17		 ldc.i.1 1	; i32 0x1
  00032	59		 sub 
  00033	30 0f		 bgt.s $LN1@setExplain

; 758  : 					 whatToDoForUser->Text = text[index];

  00035	02		 ldarg.0 	; this$
  00036	7b 00 00 00 00	 ldfld ?whatToDoForUser@Form1@Mogitter@@3P$AAVToolStripStatusLabel@Forms@Windows@System@@$AA
  0003b	06		 ldloc.0 	; text$
  0003c	03		 ldarg.1 	; index$
  0003d	9a		 ldelem.ref 
  0003e	6f 00 00 00 00	 callvirt ?set@Text@ToolStripItem@Forms@Windows@System@@$$FU$AAMXP$AAVString@5@@Z
$LN1@setExplain:

; 759  : 			 }

  00044	2a		 ret 
 .end ?setExplainText@Form1@Mogitter@@$$FA$AAMXH@Z	; Mogitter::Form1::setExplainText
;	.proc.end.void
.global	
.global	
.global	?panel1@QMarking@Mogitter@@3P$AAVPanel@Forms@Windows@System@@$AA ; Mogitter::QMarking::panel1
	.bss
.local	,4
.local	,4
.local	?panel1@QMarking@Mogitter@@3P$AAVPanel@Forms@Windows@System@@$AA,4 ; Mogitter::QMarking::panel1
.local	$T1,0
; Function compile flags: /Ogsp
; File f:\meijin4\c++\mogitter\mogitter\qmarking.h
	.text
	.comdat	any, ?QMarking_Load@QMarking@Mogitter@@$$FA$AAMXP$AAVObject@System@@P$AAVEventArgs@4@@Z
.global	?QMarking_Load@QMarking@Mogitter@@$$FA$AAMXP$AAVObject@System@@P$AAVEventArgs@4@@Z ; Mogitter::QMarking::QMarking_Load
?QMarking_Load@QMarking@Mogitter@@$$FA$AAMXP$AAVObject@System@@P$AAVEventArgs@4@@Z: ; Mogitter::QMarking::QMarking_Load
;	.proc.def	D:V(PP)

; Function Header:
; max stack depth = 6
; function size = 114 bytes
; local varsig tk = 0x11000011 
; Exception Information:
; 0 handlers, each consisting of filtered handlers

;	.formal.mptr 0,"this$" SIG: Optional C Binding Modifier(token:0x3D0DB75).class (token:0x3D0DB78)
;	.local.i4 3,"w$" SIG: i4
;	.local.mb8   5,"$T2" SIG: valueType (token:0x3D1E7AD)
;	.local.i4 2,"h$" SIG: i4
;	.local.mb8   4,"$T3" SIG: valueType (token:0x3D1E7AD)
;	.local.mptr 1,"pn$" SIG: class (token:0x3D0D5FD)
;	.local.i4 0,"$T4" SIG: i4

;	.proc.beg

; 310  : 				 
; 311  : 				 int w = panel1->Size.Width;

  0000b	02		 ldarg.0 	; this$
  0000c	7b 00 00 00 00	 ldfld ?panel1@QMarking@Mogitter@@3P$AAVPanel@Forms@Windows@System@@$AA
  00011	28 00 00 00 00	 call ?get@Size@Control@Forms@Windows@System@@$$FQ$AAM?AV1Drawing@5@XZ
  00016	13 05		 stloc.s 5	; $T2
  00018	12 05		 ldloca.s 5	; $T2
  0001a	28 00 00 00 00	 call ?get@Width@Size@Drawing@System@@$$FQ$CAMHXZ
  0001f	0d		 stloc.3 	; w$

; 312  : 				 int h = panel1->Size.Height;

  00020	02		 ldarg.0 	; this$
  00021	7b 00 00 00 00	 ldfld ?panel1@QMarking@Mogitter@@3P$AAVPanel@Forms@Windows@System@@$AA
  00026	28 00 00 00 00	 call ?get@Size@Control@Forms@Windows@System@@$$FQ$AAM?AV1Drawing@5@XZ
  0002b	13 04		 stloc.s 4	; $T3
  0002d	12 04		 ldloca.s 4	; $T3
  0002f	28 00 00 00 00	 call ?get@Height@Size@Drawing@System@@$$FQ$CAMHXZ
  00034	0c		 stloc.2 	; h$

; 313  : 				 panel1->BackgroundImage = gcnew Bitmap(w,h);

  00035	02		 ldarg.0 	; this$
  00036	7b 00 00 00 00	 ldfld ?panel1@QMarking@Mogitter@@3P$AAVPanel@Forms@Windows@System@@$AA
  0003b	09		 ldloc.3 	; w$
  0003c	08		 ldloc.2 	; h$
  0003d	73 00 00 00 00	 newobj ??0Bitmap@Drawing@System@@$$FQ$AAM@HH@Z
  00042	6f 00 00 00 00	 callvirt ?set@BackgroundImage@Control@Forms@Windows@System@@$$FU$AAMXP$AAVImage@Drawing@5@@Z

; 314  : 				 Graphics^ g = Graphics::FromImage(panel1->BackgroundImage);

  00047	02		 ldarg.0 	; this$
  00048	7b 00 00 00 00	 ldfld ?panel1@QMarking@Mogitter@@3P$AAVPanel@Forms@Windows@System@@$AA
  0004d	6f 00 00 00 00	 callvirt ?get@BackgroundImage@Control@Forms@Windows@System@@$$FU$AAMP$AAVImage@Drawing@5@XZ
  00052	28 00 00 00 00	 call ?FromImage@Graphics@Drawing@System@@$$FSMP$AAV123@P$AAVImage@23@@Z

; 315  : 				 Pen^ pn = gcnew Pen(Color::Black,2);

  00057	28 00 00 00 00	 call ?get@Black@Color@Drawing@System@@$$FSM?AV234@XZ
  0005c	22 00 00 00 40	 ldc.r4 2.000000
  00061	73 00 00 00 00	 newobj ??0Pen@Drawing@System@@$$FQ$AAM@VColor@12@M@Z
  00066	0b		 stloc.1 	; pn$

; 316  : 				 pn->DashStyle = System::Drawing::Drawing2D::DashStyle::Dot;

  00067	07		 ldloc.1 	; pn$
  00068	18		 ldc.i.2 2	; i32 0x2
  00069	28 00 00 00 00	 call ?set@DashStyle@Pen@Drawing@System@@$$FQ$AAMXW41Drawing2D@34@@Z

; 317  : 				 g->DrawLine(pn,0,h-2,w,h-2);

  0006e	08		 ldloc.2 	; h$
  0006f	18		 ldc.i.2 2	; i32 0x2
  00070	59		 sub 
  00071	0a		 stloc.0 	; $T4
  00072	07		 ldloc.1 	; pn$
  00073	16		 ldc.i.0 0	; i32 0x0
  00074	06		 ldloc.0 	; $T4
  00075	09		 ldloc.3 	; w$
  00076	06		 ldloc.0 	; $T4
  00077	28 00 00 00 00	 call ?DrawLine@Graphics@Drawing@System@@$$FQ$AAMXP$AAVPen@23@HHHH@Z

; 318  : 				 
; 319  : 			 }

  0007c	2a		 ret 
 .end ?QMarking_Load@QMarking@Mogitter@@$$FA$AAMXP$AAVObject@System@@P$AAVEventArgs@4@@Z ; Mogitter::QMarking::QMarking_Load
;	.proc.end.void
.global	
.global	?azukiArea@Form1@Mogitter@@3P$AAVAzukiControl@WinForms@Azuki@Sgry@@$AA ; Mogitter::Form1::azukiArea
	.bss
.local	,4
.local	?azukiArea@Form1@Mogitter@@3P$AAVAzukiControl@WinForms@Azuki@Sgry@@$AA,4 ; Mogitter::Form1::azukiArea
.local	$StringLiteralTok$??_C@_17EKFANPAK@?$AA?$CC?$AA?$HL?$AA?$CC?$AA?$AA@,4
.local	$StringLiteralTok$??_C@_17JMAJDMBH@?$AA?$CC?$AA?$HN?$AA?$CC?$AA?$AA@,4
.local	$StringLiteralTok$??_C@_13GCIFAHHO@?$AA?$HL?$AA?$AA@,4
.local	$StringLiteralTok$??_C@_13EHOOFIKC@?$AA?$HN?$AA?$AA@,4
.local	$T1,0
; Function compile flags: /Ogsp
; File f:\meijin4\c++\mogitter\mogitter\form1.h
	.text
	.comdat	any, ?Form1_Load@Form1@Mogitter@@$$FA$AAMXP$AAVObject@System@@P$AAVEventArgs@4@@Z
.global	?Form1_Load@Form1@Mogitter@@$$FA$AAMXP$AAVObject@System@@P$AAVEventArgs@4@@Z ; Mogitter::Form1::Form1_Load
?Form1_Load@Form1@Mogitter@@$$FA$AAMXP$AAVObject@System@@P$AAVEventArgs@4@@Z: ; Mogitter::Form1::Form1_Load
;	.proc.def	D:V(PP)

; Function Header:
; max stack depth = 5
; function size = 288 bytes
; local varsig tk = 0x11000013 
; Exception Information:
; 0 handlers, each consisting of filtered handlers

;	.formal.mptr 0,"this$" SIG: Optional C Binding Modifier(token:0x38BA05).class (token:0x38BA08)
;	.local.mptr 0,"high$" SIG: class (token:0x3D1D0B5)
;	.local.mb20  5,"$T2" SIG: valueType (token:0x3D28D25)
;	.local.mb20  4,"$T3" SIG: valueType (token:0x3D28D25)
;	.local.mb20  3,"$T4" SIG: valueType (token:0x3D28D25)
;	.local.mb20  2,"$T5" SIG: valueType (token:0x3D28D25)
;	.local.mb20  1,"$T6" SIG: valueType (token:0x3D28D25)

;	.proc.beg

; 763  : 
; 764  : 				 azukiArea->SetKeyBind(static_cast<System::Windows::Forms::Keys>((System::Windows::Forms::Keys::Control | System::Windows::Forms::Keys::C)),gcnew Sgry::Azuki::ActionProc(&Sgry::Azuki::Actions::Copy));

  0000b	02		 ldarg.0 	; this$
  0000c	7b 00 00 00 00	 ldfld ?azukiArea@Form1@Mogitter@@3P$AAVAzukiControl@WinForms@Azuki@Sgry@@$AA
  00011	20 43 00 02 00	 ldc.i4 131139	; i32 0x20043
  00016	14		 ldnull 0	; i32 0x0
  00017	fe 06 00 00 00
	00		 ldftn ?Copy@Actions@Azuki@Sgry@@$$FSMXP$AAUIUserInterface@23@@Z
  0001d	73 00 00 00 00	 newobj ??0ActionProc@Azuki@Sgry@@$$FQ$AAM@P$AAVObject@System@@VIntPtr@4@@Z
  00022	28 00 00 00 00	 call ?SetKeyBind@AzukiControl@WinForms@Azuki@Sgry@@$$FQ$AAMXW4Keys@Forms@Windows@System@@P$AAVActionProc@34@@Z

; 765  : 				 azukiArea->SetKeyBind(static_cast<System::Windows::Forms::Keys>((System::Windows::Forms::Keys::Control | System::Windows::Forms::Keys::V)),gcnew Sgry::Azuki::ActionProc(&Sgry::Azuki::Actions::Paste));

  00027	02		 ldarg.0 	; this$
  00028	7b 00 00 00 00	 ldfld ?azukiArea@Form1@Mogitter@@3P$AAVAzukiControl@WinForms@Azuki@Sgry@@$AA
  0002d	20 56 00 02 00	 ldc.i4 131158	; i32 0x20056
  00032	14		 ldnull 0	; i32 0x0
  00033	fe 06 00 00 00
	00		 ldftn ?Paste@Actions@Azuki@Sgry@@$$FSMXP$AAUIUserInterface@23@@Z
  00039	73 00 00 00 00	 newobj ??0ActionProc@Azuki@Sgry@@$$FQ$AAM@P$AAVObject@System@@VIntPtr@4@@Z
  0003e	28 00 00 00 00	 call ?SetKeyBind@AzukiControl@WinForms@Azuki@Sgry@@$$FQ$AAMXW4Keys@Forms@Windows@System@@P$AAVActionProc@34@@Z

; 766  : 				 azukiArea->SetKeyBind(static_cast<System::Windows::Forms::Keys>((System::Windows::Forms::Keys::Control | System::Windows::Forms::Keys::Z)),gcnew Sgry::Azuki::ActionProc(&Sgry::Azuki::Actions::Undo));

  00043	02		 ldarg.0 	; this$
  00044	7b 00 00 00 00	 ldfld ?azukiArea@Form1@Mogitter@@3P$AAVAzukiControl@WinForms@Azuki@Sgry@@$AA
  00049	20 5a 00 02 00	 ldc.i4 131162	; i32 0x2005a
  0004e	14		 ldnull 0	; i32 0x0
  0004f	fe 06 00 00 00
	00		 ldftn ?Undo@Actions@Azuki@Sgry@@$$FSMXP$AAUIUserInterface@23@@Z
  00055	73 00 00 00 00	 newobj ??0ActionProc@Azuki@Sgry@@$$FQ$AAM@P$AAVObject@System@@VIntPtr@4@@Z
  0005a	28 00 00 00 00	 call ?SetKeyBind@AzukiControl@WinForms@Azuki@Sgry@@$$FQ$AAMXW4Keys@Forms@Windows@System@@P$AAVActionProc@34@@Z

; 767  : 				 azukiArea->SetKeyBind(static_cast<System::Windows::Forms::Keys>((System::Windows::Forms::Keys::Control | System::Windows::Forms::Keys::Y)),gcnew Sgry::Azuki::ActionProc(&Sgry::Azuki::Actions::Redo));

  0005f	02		 ldarg.0 	; this$
  00060	7b 00 00 00 00	 ldfld ?azukiArea@Form1@Mogitter@@3P$AAVAzukiControl@WinForms@Azuki@Sgry@@$AA
  00065	20 59 00 02 00	 ldc.i4 131161	; i32 0x20059
  0006a	14		 ldnull 0	; i32 0x0
  0006b	fe 06 00 00 00
	00		 ldftn ?Redo@Actions@Azuki@Sgry@@$$FSMXP$AAUIUserInterface@23@@Z
  00071	73 00 00 00 00	 newobj ??0ActionProc@Azuki@Sgry@@$$FQ$AAM@P$AAVObject@System@@VIntPtr@4@@Z
  00076	28 00 00 00 00	 call ?SetKeyBind@AzukiControl@WinForms@Azuki@Sgry@@$$FQ$AAMXW4Keys@Forms@Windows@System@@P$AAVActionProc@34@@Z

; 768  : 				 Sgry::Azuki::Highlighter::KeywordHighlighter^ high = 
; 769  : 						 gcnew Sgry::Azuki::Highlighter::KeywordHighlighter();

  0007b	73 00 00 00 00	 newobj ??0KeywordHighlighter@Highlighter@Azuki@Sgry@@$$FQ$AAM@XZ
  00080	0a		 stloc.0 	; high$

; 770  : 				 high->AddEnclosure("\"{\"","\"}\"",Sgry::Azuki::CharClass::Normal,false);

  00081	06		 ldloc.0 	; high$
  00082	72 00 00 00 00	 ldstr $StringLiteralTok$??_C@_17EKFANPAK@?$AA?$CC?$AA?$HL?$AA?$CC?$AA?$AA@
  00087	72 00 00 00 00	 ldstr $StringLiteralTok$??_C@_17JMAJDMBH@?$AA?$CC?$AA?$HN?$AA?$CC?$AA?$AA@
  0008c	16		 ldc.i.0 0	; u8 0x0
  0008d	16		 ldc.i.0 0	; u8 0x0
  0008e	28 00 00 00 00	 call ?AddEnclosure@KeywordHighlighter@Highlighter@Azuki@Sgry@@$$FQ$AAMXP$AAVString@System@@0W4CharClass@34@_N@Z

; 771  : 				 high->AddEnclosure("{","}",Sgry::Azuki::CharClass::Function,false);

  00093	06		 ldloc.0 	; high$
  00094	72 00 00 00 00	 ldstr $StringLiteralTok$??_C@_13GCIFAHHO@?$AA?$HL?$AA?$AA@
  00099	72 00 00 00 00	 ldstr $StringLiteralTok$??_C@_13EHOOFIKC@?$AA?$HN?$AA?$AA@
  0009e	1f 21		 ldc.i4.s 33	; u8 0x21
  000a0	16		 ldc.i.0 0	; u8 0x0
  000a1	28 00 00 00 00	 call ?AddEnclosure@KeywordHighlighter@Highlighter@Azuki@Sgry@@$$FQ$AAMXP$AAVString@System@@0W4CharClass@34@_N@Z

; 772  : 				 azukiArea->Highlighter = high;

  000a6	02		 ldarg.0 	; this$
  000a7	7b 00 00 00 00	 ldfld ?azukiArea@Form1@Mogitter@@3P$AAVAzukiControl@WinForms@Azuki@Sgry@@$AA
  000ac	06		 ldloc.0 	; high$
  000ad	6f 00 00 00 00	 callvirt ?set@Highlighter@AzukiControl@WinForms@Azuki@Sgry@@$$FU$AAMXP$AAUIHighlighter@145@@Z

; 773  : 				 azukiArea->ColorScheme->SetColor(Sgry::Azuki::CharClass::Function,Color::Blue,Color::White);

  000b2	28 00 00 00 00	 call ?get@White@Color@Drawing@System@@$$FSM?AV234@XZ
  000b7	13 05		 stloc.s 5	; $T2
  000b9	28 00 00 00 00	 call ?get@Blue@Color@Drawing@System@@$$FSM?AV234@XZ
  000be	13 04		 stloc.s 4	; $T3
  000c0	02		 ldarg.0 	; this$
  000c1	7b 00 00 00 00	 ldfld ?azukiArea@Form1@Mogitter@@3P$AAVAzukiControl@WinForms@Azuki@Sgry@@$AA
  000c6	6f 00 00 00 00	 callvirt ?get@ColorScheme@AzukiControl@WinForms@Azuki@Sgry@@$$FU$AAMP$AAV145@XZ
  000cb	1f 21		 ldc.i4.s 33	; u8 0x21
  000cd	11 04		 ldloc.s 4	; $T3
  000cf	11 05		 ldloc.s 5	; $T2
  000d1	28 00 00 00 00	 call ?SetColor@ColorScheme@Azuki@Sgry@@$$FQ$AAMXW4CharClass@23@VColor@Drawing@System@@1@Z

; 774  : 				 azukiArea->ColorScheme->LineNumberFore = Color::DarkBlue;

  000d6	28 00 00 00 00	 call ?get@DarkBlue@Color@Drawing@System@@$$FSM?AV234@XZ
  000db	0d		 stloc.3 	; $T4
  000dc	02		 ldarg.0 	; this$
  000dd	7b 00 00 00 00	 ldfld ?azukiArea@Form1@Mogitter@@3P$AAVAzukiControl@WinForms@Azuki@Sgry@@$AA
  000e2	6f 00 00 00 00	 callvirt ?get@ColorScheme@AzukiControl@WinForms@Azuki@Sgry@@$$FU$AAMP$AAV145@XZ
  000e7	09		 ldloc.3 	; $T4
  000e8	7d 00 00 00 00	 stfld ?LineNumberFore@ColorScheme@Azuki@Sgry@@3VColor@Drawing@System@@A

; 775  : 				 azukiArea->ColorScheme->LineNumberBack = Color::AliceBlue;

  000ed	28 00 00 00 00	 call ?get@AliceBlue@Color@Drawing@System@@$$FSM?AV234@XZ
  000f2	0c		 stloc.2 	; $T5
  000f3	02		 ldarg.0 	; this$
  000f4	7b 00 00 00 00	 ldfld ?azukiArea@Form1@Mogitter@@3P$AAVAzukiControl@WinForms@Azuki@Sgry@@$AA
  000f9	6f 00 00 00 00	 callvirt ?get@ColorScheme@AzukiControl@WinForms@Azuki@Sgry@@$$FU$AAMP$AAV145@XZ
  000fe	08		 ldloc.2 	; $T5
  000ff	7d 00 00 00 00	 stfld ?LineNumberBack@ColorScheme@Azuki@Sgry@@3VColor@Drawing@System@@A

; 776  : 				 azukiArea->BackColor = Color::White;

  00104	28 00 00 00 00	 call ?get@White@Color@Drawing@System@@$$FSM?AV234@XZ
  00109	0b		 stloc.1 	; $T6
  0010a	02		 ldarg.0 	; this$
  0010b	7b 00 00 00 00	 ldfld ?azukiArea@Form1@Mogitter@@3P$AAVAzukiControl@WinForms@Azuki@Sgry@@$AA
  00110	07		 ldloc.1 	; $T6
  00111	6f 00 00 00 00	 callvirt ?set@BackColor@AzukiControl@WinForms@Azuki@Sgry@@$$FU$AAMXVColor@Drawing@System@@@Z

; 777  : 
; 778  : 				 
; 779  : 
; 780  : 				 this->Activate();

  00116	02		 ldarg.0 	; this$
  00117	28 00 00 00 00	 call ?Activate@Form@Forms@Windows@System@@$$FQ$AAMXXZ

; 781  : 
; 782  : 				 setButtonsEnabled(false);

  0011c	02		 ldarg.0 	; this$
  0011d	16		 ldc.i.0 0	; u8 0x0
  0011e	28 00 00 00 00	 call ?setButtonsEnabled@Form1@Mogitter@@$$FA$AAMX_N@Z

; 783  : 				 setExplainText(0);

  00123	02		 ldarg.0 	; this$
  00124	16		 ldc.i.0 0	; i32 0x0
  00125	28 00 00 00 00	 call ?setExplainText@Form1@Mogitter@@$$FA$AAMXH@Z

; 784  : 			 }

  0012a	2a		 ret 
 .end ?Form1_Load@Form1@Mogitter@@$$FA$AAMXP$AAVObject@System@@P$AAVEventArgs@4@@Z ; Mogitter::Form1::Form1_Load
;	.proc.end.void
.global	
.global	?byButtonClose@QMarking@Mogitter@@3_NA		; Mogitter::QMarking::byButtonClose
	.bss
.local	,4
.local	?byButtonClose@QMarking@Mogitter@@3_NA,1	; Mogitter::QMarking::byButtonClose
; Function compile flags: /Ogsp
; File f:\meijin4\c++\mogitter\mogitter\qmarking.h
	.text
	.comdat	any, ?QMarking_FormClosed@QMarking@Mogitter@@$$FA$AAMXP$AAVObject@System@@P$AAVFormClosedEventArgs@Forms@Windows@4@@Z
.global	?QMarking_FormClosed@QMarking@Mogitter@@$$FA$AAMXP$AAVObject@System@@P$AAVFormClosedEventArgs@Forms@Windows@4@@Z ; Mogitter::QMarking::QMarking_FormClosed
?QMarking_FormClosed@QMarking@Mogitter@@$$FA$AAMXP$AAVObject@System@@P$AAVFormClosedEventArgs@Forms@Windows@4@@Z: ; Mogitter::QMarking::QMarking_FormClosed
;	.proc.def	D:V(PP)

; Function Header:
; max stack depth = 3
; function size = 17 bytes
; local varsig tk = 0x0 
; Exception Information:
; 0 handlers, each consisting of filtered handlers

;	.formal.mptr 0,"this$" SIG: Optional C Binding Modifier(token:0x3D0DB75).class (token:0x3D0DB78)
;	.formal.mptr 2,"e$" SIG: class (token:0x3D0C79D)
;	.formal.mptr 1,"sender$" SIG: Unknown COM+ Object Signature

;	.proc.beg

; 324  : 			 if (!byButtonClose)

  0000b	02		 ldarg.0 	; this$
  0000c	7b 00 00 00 00	 ldfld ?byButtonClose@QMarking@Mogitter@@3_NA
  00011	2d 09		 brtrue.s $LN1@QMarking_F

; 325  : 			 {
; 326  : 				 button1_Click(sender,e);

  00013	02		 ldarg.0 	; this$
  00014	03		 ldarg.1 	; sender$
  00015	04		 ldarg.2 	; e$
  00016	28 00 00 00 00	 call ?button1_Click@QMarking@Mogitter@@$$FQ$AAMXP$AAVObject@System@@P$AAVEventArgs@4@@Z
$LN1@QMarking_F:

; 327  : 			 }
; 328  : 		 }

  0001c	2a		 ret 
 .end ?QMarking_FormClosed@QMarking@Mogitter@@$$FA$AAMXP$AAVObject@System@@P$AAVFormClosedEventArgs@Forms@Windows@4@@Z ; Mogitter::QMarking::QMarking_FormClosed
;	.proc.end.void
.global	
.global	
.global	?randomCheckBox@Form1@Mogitter@@3P$AAVCheckBox@Forms@Windows@System@@$AA ; Mogitter::Form1::randomCheckBox
.global	?mojiCode@Form1@Mogitter@@3P$AAVToolStripDropDownButton@Forms@Windows@System@@$AA ; Mogitter::Form1::mojiCode
.global	?randomQNum@Form1@Mogitter@@3P$AAVNumericUpDown@Forms@Windows@System@@$AA ; Mogitter::Form1::randomQNum
.global	?fileName@Form1@Mogitter@@3P$AAVString@System@@$AA ; Mogitter::Form1::fileName
	.bss
	.align	2
.local	,4
.local	,4
.local	?randomCheckBox@Form1@Mogitter@@3P$AAVCheckBox@Forms@Windows@System@@$AA,4 ; Mogitter::Form1::randomCheckBox
.local	$StringLiteralTok$??_C@_1IA@PDHNHFCH@0?F0?$KN0?$LJ0?H0?U0?$KB0?$KE0?k?$AA?$CI?$AA?$CK?$AA?4?$AAt?$AAx?$AAt?$AA?$CJ?$AA?$HM?$AA?$CK?$AA?4?$AAt?$AAx?$AAt?$AA?$HM?$AAM?$AAo?$AAg?$AAi0?U0?$KB0?$KE0?k?$AA?$CI?$AA?$CK@,4
.local	?mojiCode@Form1@Mogitter@@3P$AAVToolStripDropDownButton@Forms@Windows@System@@$AA,4 ; Mogitter::Form1::mojiCode
.local	$StringLiteralTok$??_C@_1M@LCHILMK@?$AA?4?$AAm?$AAo?$AAg?$AAi?$AA?$AA@,4
.local	$StringLiteralTok$??_C@_1BE@EPLDMCPJ@?$AA?$HL?$AA?$EA?$AAR?$AAa?$AAn?$AAd?$AAo?$AAm?$AA?$DN?$AA?$AA@,4
.local	?randomQNum@Form1@Mogitter@@3P$AAVNumericUpDown@Forms@Windows@System@@$AA,4 ; Mogitter::Form1::randomQNum
.local	$StringLiteralTok$??_C@_13PJJBFPED@?$AA?$DL?$AA?$AA@,4
.local	?fileName@Form1@Mogitter@@3P$AAVString@System@@$AA,4 ; Mogitter::Form1::fileName
.local	$T1,0
; Function compile flags: /Ogsp
; File f:\meijin4\c++\mogitter\mogitter\form1.h
	.text
	.comdat	any, ?openFile_Click@Form1@Mogitter@@$$FA$AAMXP$AAVObject@System@@P$AAVEventArgs@4@@Z
.global	?openFile_Click@Form1@Mogitter@@$$FA$AAMXP$AAVObject@System@@P$AAVEventArgs@4@@Z ; Mogitter::Form1::openFile_Click
?openFile_Click@Form1@Mogitter@@$$FA$AAMXP$AAVObject@System@@P$AAVEventArgs@4@@Z: ; Mogitter::Form1::openFile_Click
;	.proc.def	D:V(PP)

; Function Header:
; max stack depth = 4
; function size = 340 bytes
; local varsig tk = 0x11000017 
; Exception Information:
; 0 handlers, each consisting of filtered handlers

;	.formal.mptr 0,"this$" SIG: Optional C Binding Modifier(token:0x38BA05).class (token:0x38BA08)
;	.local.mptr 1,"ofd$" SIG: class (token:0x3D1BA1D)
;	.local.mptr 5,"reader$" SIG: class (token:0x3D1B985)
;	.local.mptr 0,"str$" SIG: string
;	.local.mptr 4,"$T2" SIG: szarray (token:0x3D1C00D)
;	.local.mptr 2,"aft$3" SIG: string
;	.local.mptr 3,"$T4" SIG: szarray (token:0x3D1C00D)
;	.local.mb16  6,"$T5" SIG: valueType (token:0x3D226AD)

;	.proc.beg

; 786  : 				 randomCheckBox->Checked = false;

  0000b	02		 ldarg.0 	; this$
  0000c	7b 00 00 00 00	 ldfld ?randomCheckBox@Form1@Mogitter@@3P$AAVCheckBox@Forms@Windows@System@@$AA
  00011	16		 ldc.i.0 0	; u8 0x0
  00012	28 00 00 00 00	 call ?set@Checked@CheckBox@Forms@Windows@System@@$$FQ$AAMX_N@Z

; 787  : 
; 788  : 				 OpenFileDialog^ ofd = gcnew OpenFileDialog();

  00017	73 00 00 00 00	 newobj ??0OpenFileDialog@Forms@Windows@System@@$$FQ$AAM@XZ
  0001c	0b		 stloc.1 	; ofd$

; 789  : 				 ofd->Filter = "テキストファイル(*.txt)|*.txt|Mogiファイル(*.mogi)|*.mogi|すべてのファイル(*.*)|*.*";

  0001d	07		 ldloc.1 	; ofd$
  0001e	72 00 00 00 00	 ldstr $StringLiteralTok$??_C@_1IA@PDHNHFCH@0?F0?$KN0?$LJ0?H0?U0?$KB0?$KE0?k?$AA?$CI?$AA?$CK?$AA?4?$AAt?$AAx?$AAt?$AA?$CJ?$AA?$HM?$AA?$CK?$AA?4?$AAt?$AAx?$AAt?$AA?$HM?$AAM?$AAo?$AAg?$AAi0?U0?$KB0?$KE0?k?$AA?$CI?$AA?$CK@
  00023	28 00 00 00 00	 call ?set@Filter@FileDialog@Forms@Windows@System@@$$FQ$AAMXP$AAVString@5@@Z

; 790  : 				 if(ofd->ShowDialog() != System::Windows::Forms::DialogResult::OK){

  00028	07		 ldloc.1 	; ofd$
  00029	28 00 00 00 00	 call ?ShowDialog@CommonDialog@Forms@Windows@System@@$$FQ$AAM?AW4DialogResult@234@XZ
  0002e	17		 ldc.i.1 1	; i32 0x1
  0002f	40 2b 01 00 00	 bne.un $LN5@openFile_C

; 791  : 					 return;
; 792  : 				 }
; 793  : 				 azukiArea->IsReadOnly = false;

  00034	02		 ldarg.0 	; this$
  00035	7b 00 00 00 00	 ldfld ?azukiArea@Form1@Mogitter@@3P$AAVAzukiControl@WinForms@Azuki@Sgry@@$AA
  0003a	16		 ldc.i.0 0	; u8 0x0
  0003b	6f 00 00 00 00	 callvirt ?set@IsReadOnly@AzukiControl@WinForms@Azuki@Sgry@@$$FU$AAMX_N@Z

; 794  : 				 StreamReader^ reader = gcnew StreamReader(ofd->FileName,System::Text::Encoding::GetEncoding(mojiCode->Text));

  00040	07		 ldloc.1 	; ofd$
  00041	28 00 00 00 00	 call ?get@FileName@FileDialog@Forms@Windows@System@@$$FQ$AAMP$AAVString@5@XZ
  00046	02		 ldarg.0 	; this$
  00047	7b 00 00 00 00	 ldfld ?mojiCode@Form1@Mogitter@@3P$AAVToolStripDropDownButton@Forms@Windows@System@@$AA
  0004c	6f 00 00 00 00	 callvirt ?get@Text@ToolStripItem@Forms@Windows@System@@$$FU$AAMP$AAVString@5@XZ
  00051	28 00 00 00 00	 call ?GetEncoding@Encoding@Text@System@@$$FSMP$AAV123@P$AAVString@3@@Z
  00056	73 00 00 00 00	 newobj ??0StreamReader@IO@System@@$$FQ$AAM@P$AAVString@2@P$AAVEncoding@Text@2@@Z
  0005b	13 05		 stloc.s 5	; reader$

; 795  : 				 String^ str = reader->ReadToEnd();

  0005d	11 05		 ldloc.s 5	; reader$
  0005f	6f 00 00 00 00	 callvirt ?ReadToEnd@StreamReader@IO@System@@$$FU$AAMP$AAVString@3@XZ
  00064	0a		 stloc.0 	; str$

; 796  : 				 if(!ofd->FileName->EndsWith(".mogi")){

  00065	07		 ldloc.1 	; ofd$
  00066	28 00 00 00 00	 call ?get@FileName@FileDialog@Forms@Windows@System@@$$FQ$AAMP$AAVString@5@XZ
  0006b	72 00 00 00 00	 ldstr $StringLiteralTok$??_C@_1M@LCHILMK@?$AA?4?$AAm?$AAo?$AAg?$AAi?$AA?$AA@
  00070	28 00 00 00 00	 call ?EndsWith@String@System@@$$FQ$AAM_NP$AAV12@@Z
  00075	2d 2c		 brtrue.s $LN3@openFile_C

; 797  : 					 str = str->Replace("{","\"{\"");

  00077	06		 ldloc.0 	; str$
  00078	72 00 00 00 00	 ldstr $StringLiteralTok$??_C@_13GCIFAHHO@?$AA?$HL?$AA?$AA@
  0007d	72 00 00 00 00	 ldstr $StringLiteralTok$??_C@_17EKFANPAK@?$AA?$CC?$AA?$HL?$AA?$CC?$AA?$AA@
  00082	28 00 00 00 00	 call ?Replace@String@System@@$$FQ$AAMP$AAV12@P$AAV12@0@Z
  00087	0a		 stloc.0 	; str$

; 798  : 					 str = str->Replace("}","\"}\"");

  00088	06		 ldloc.0 	; str$
  00089	72 00 00 00 00	 ldstr $StringLiteralTok$??_C@_13EHOOFIKC@?$AA?$HN?$AA?$AA@
  0008e	72 00 00 00 00	 ldstr $StringLiteralTok$??_C@_17JMAJDMBH@?$AA?$CC?$AA?$HN?$AA?$CC?$AA?$AA@
  00093	28 00 00 00 00	 call ?Replace@String@System@@$$FQ$AAMP$AAV12@P$AAV12@0@Z
  00098	0a		 stloc.0 	; str$

; 799  : 					 setExplainText(2);

  00099	02		 ldarg.0 	; this$
  0009a	18		 ldc.i.2 2	; i32 0x2
  0009b	28 00 00 00 00	 call ?setExplainText@Form1@Mogitter@@$$FA$AAMXH@Z

; 800  : 				 }else

  000a0	2b 08		 br.s $LN2@openFile_C
$LN3@openFile_C:

; 801  : 				 {
; 802  : 					 setExplainText(1);

  000a3	02		 ldarg.0 	; this$
  000a4	17		 ldc.i.1 1	; i32 0x1
  000a5	28 00 00 00 00	 call ?setExplainText@Form1@Mogitter@@$$FA$AAMXH@Z
$LN2@openFile_C:

; 803  : 				 }
; 804  : 				 azukiArea->Text = str;

  000aa	02		 ldarg.0 	; this$
  000ab	7b 00 00 00 00	 ldfld ?azukiArea@Form1@Mogitter@@3P$AAVAzukiControl@WinForms@Azuki@Sgry@@$AA
  000b0	06		 ldloc.0 	; str$
  000b1	6f 00 00 00 00	 callvirt ?set@Text@AzukiControl@WinForms@Azuki@Sgry@@$$FU$AAMXP$AAVString@System@@@Z

; 805  : 				 if (str->StartsWith("{@Random="))

  000b6	06		 ldloc.0 	; str$
  000b7	72 00 00 00 00	 ldstr $StringLiteralTok$??_C@_1BE@EPLDMCPJ@?$AA?$HL?$AA?$EA?$AAR?$AAa?$AAn?$AAd?$AAo?$AAm?$AA?$DN?$AA?$AA@
  000bc	28 00 00 00 00	 call ?StartsWith@String@System@@$$FQ$AAM_NP$AAV12@@Z
  000c1	39 7a 00 00 00	 brfalse $LN1@openFile_C

; 806  : 				 {
; 807  : 					 randomCheckBox->Checked = true;

  000c6	02		 ldarg.0 	; this$
  000c7	7b 00 00 00 00	 ldfld ?randomCheckBox@Form1@Mogitter@@3P$AAVCheckBox@Forms@Windows@System@@$AA
  000cc	17		 ldc.i.1 1	; u8 0x1
  000cd	28 00 00 00 00	 call ?set@Checked@CheckBox@Forms@Windows@System@@$$FQ$AAMX_N@Z

; 808  : 					 randomQNum->Enabled = true;

  000d2	02		 ldarg.0 	; this$
  000d3	7b 00 00 00 00	 ldfld ?randomQNum@Form1@Mogitter@@3P$AAVNumericUpDown@Forms@Windows@System@@$AA
  000d8	17		 ldc.i.1 1	; u8 0x1
  000d9	28 00 00 00 00	 call ?set@Enabled@Control@Forms@Windows@System@@$$FQ$AAMX_N@Z

; 809  : 					 array<String^> ^bufbef = str->Split('\n');

  000de	17		 ldc.i.1 1	; i32 0x1
  000df	8d 00 00 00 00	 newarr $TypeTok$11003218$
  000e4	13 04		 stloc.s 4	; $T2
  000e6	11 04		 ldloc.s 4	; $T2
  000e8	16		 ldc.i.0 0	; i32 0x0
  000e9	8f 00 00 00 00	 ldelema $va_argTok$_W
  000ee	1f 0a		 ldc.i4.s 10	; u16 0xa
  000f0	53		 stind.i2 
  000f1	06		 ldloc.0 	; str$
  000f2	11 04		 ldloc.s 4	; $T2
  000f4	28 00 00 00 00	 call ?Split@String@System@@$$FQ$AAMP$01AP$AAV12@P$01A_W@Z

; 810  : 					 String^ aft = bufbef[0]->Split('=')[1];

  000f9	17		 ldc.i.1 1	; i32 0x1
  000fa	8d 00 00 00 00	 newarr $TypeTok$11003218$
  000ff	0d		 stloc.3 	; $T4
  00100	09		 ldloc.3 	; $T4
  00101	16		 ldc.i.0 0	; i32 0x0
  00102	8f 00 00 00 00	 ldelema $va_argTok$_W
  00107	1f 3d		 ldc.i4.s 61	; u16 0x3d
  00109	53		 stind.i2 
  0010a	16		 ldc.i.0 0	; i32 0x0
  0010b	9a		 ldelem.ref 
  0010c	09		 ldloc.3 	; $T4
  0010d	28 00 00 00 00	 call ?Split@String@System@@$$FQ$AAMP$01AP$AAV12@P$01A_W@Z
  00112	17		 ldc.i.1 1	; i32 0x1
  00113	9a		 ldelem.ref 
  00114	0c		 stloc.2 	; aft$3

; 811  : 					 int qnum = int::Parse(aft->Substring(0,aft->IndexOf(";")));

  00115	08		 ldloc.2 	; aft$3
  00116	16		 ldc.i.0 0	; i32 0x0
  00117	08		 ldloc.2 	; aft$3
  00118	72 00 00 00 00	 ldstr $StringLiteralTok$??_C@_13PJJBFPED@?$AA?$DL?$AA?$AA@
  0011d	28 00 00 00 00	 call ?IndexOf@String@System@@$$FQ$AAMHP$AAV12@@Z
  00122	28 00 00 00 00	 call ?Substring@String@System@@$$FQ$AAMP$AAV12@HH@Z
  00127	28 00 00 00 00	 call ?Parse@Int32@System@@$$FSMHP$AAVString@2@@Z

; 812  : 					 randomQNum->Value = qnum;

  0012c	28 00 00 00 00	 call ??BDecimal@System@@$$FSM?AV01@H@Z
  00131	13 06		 stloc.s 6	; $T5
  00133	02		 ldarg.0 	; this$
  00134	7b 00 00 00 00	 ldfld ?randomQNum@Form1@Mogitter@@3P$AAVNumericUpDown@Forms@Windows@System@@$AA
  00139	11 06		 ldloc.s 6	; $T5
  0013b	28 00 00 00 00	 call ?set@Value@NumericUpDown@Forms@Windows@System@@$$FQ$AAMXVDecimal@5@@Z
$LN1@openFile_C:

; 813  : 				 }
; 814  : 				 reader->Close();

  00140	11 05		 ldloc.s 5	; reader$
  00142	6f 00 00 00 00	 callvirt ?Close@StreamReader@IO@System@@$$FU$AAMXXZ

; 815  : 
; 816  : 				 fileName = ofd->FileName;

  00147	02		 ldarg.0 	; this$
  00148	07		 ldloc.1 	; ofd$
  00149	28 00 00 00 00	 call ?get@FileName@FileDialog@Forms@Windows@System@@$$FQ$AAMP$AAVString@5@XZ
  0014e	7d 00 00 00 00	 stfld ?fileName@Form1@Mogitter@@3P$AAVString@System@@$AA

; 817  : 
; 818  : 				 azukiArea->IsReadOnly = true;

  00153	02		 ldarg.0 	; this$
  00154	7b 00 00 00 00	 ldfld ?azukiArea@Form1@Mogitter@@3P$AAVAzukiControl@WinForms@Azuki@Sgry@@$AA
  00159	17		 ldc.i.1 1	; u8 0x1
  0015a	6f 00 00 00 00	 callvirt ?set@IsReadOnly@AzukiControl@WinForms@Azuki@Sgry@@$$FU$AAMX_N@Z
$LN5@openFile_C:

; 819  : 				 
; 820  : 	    	 }

  0015f	2a		 ret 
 .end ?openFile_Click@Form1@Mogitter@@$$FA$AAMXP$AAVObject@System@@P$AAVEventArgs@4@@Z ; Mogitter::Form1::openFile_Click
;	.proc.end.void
; Function compile flags: /Ogsp
; File f:\meijin4\c++\mogitter\mogitter\form1.h
	.text
	.comdat	any, ?helpMenuItem_Click@Form1@Mogitter@@$$FA$AAMXP$AAVObject@System@@P$AAVEventArgs@4@@Z
.global	?helpMenuItem_Click@Form1@Mogitter@@$$FA$AAMXP$AAVObject@System@@P$AAVEventArgs@4@@Z ; Mogitter::Form1::helpMenuItem_Click
?helpMenuItem_Click@Form1@Mogitter@@$$FA$AAMXP$AAVObject@System@@P$AAVEventArgs@4@@Z: ; Mogitter::Form1::helpMenuItem_Click
;	.proc.def	D:V(PP)

; Function Header:
; max stack depth = 0
; function size = 1 bytes
; local varsig tk = 0x0 
; Exception Information:
; 0 handlers, each consisting of filtered handlers


;	.proc.beg

; 896  : 		     }

  0000b	2a		 ret 
 .end ?helpMenuItem_Click@Form1@Mogitter@@$$FA$AAMXP$AAVObject@System@@P$AAVEventArgs@4@@Z ; Mogitter::Form1::helpMenuItem_Click
;	.proc.end.void
; Function compile flags: /Ogsp
; File f:\meijin4\c++\mogitter\mogitter\form1.h
	.text
	.comdat	any, ?setting_Click@Form1@Mogitter@@$$FA$AAMXP$AAVObject@System@@P$AAVEventArgs@4@@Z
.global	?setting_Click@Form1@Mogitter@@$$FA$AAMXP$AAVObject@System@@P$AAVEventArgs@4@@Z ; Mogitter::Form1::setting_Click
?setting_Click@Form1@Mogitter@@$$FA$AAMXP$AAVObject@System@@P$AAVEventArgs@4@@Z: ; Mogitter::Form1::setting_Click
;	.proc.def	D:V(PP)

; Function Header:
; max stack depth = 0
; function size = 1 bytes
; local varsig tk = 0x0 
; Exception Information:
; 0 handlers, each consisting of filtered handlers


;	.proc.beg

; 898  : 	    	 }

  0000b	2a		 ret 
 .end ?setting_Click@Form1@Mogitter@@$$FA$AAMXP$AAVObject@System@@P$AAVEventArgs@4@@Z ; Mogitter::Form1::setting_Click
;	.proc.end.void
; Function compile flags: /Ogsp
; File f:\meijin4\c++\mogitter\mogitter\form1.h
	.text
	.comdat	any, ?helping_Click@Form1@Mogitter@@$$FA$AAMXP$AAVObject@System@@P$AAVEventArgs@4@@Z
.global	?helping_Click@Form1@Mogitter@@$$FA$AAMXP$AAVObject@System@@P$AAVEventArgs@4@@Z ; Mogitter::Form1::helping_Click
?helping_Click@Form1@Mogitter@@$$FA$AAMXP$AAVObject@System@@P$AAVEventArgs@4@@Z: ; Mogitter::Form1::helping_Click
;	.proc.def	D:V(PP)

; Function Header:
; max stack depth = 0
; function size = 1 bytes
; local varsig tk = 0x0 
; Exception Information:
; 0 handlers, each consisting of filtered handlers


;	.proc.beg

; 900  : 			 }

  0000b	2a		 ret 
 .end ?helping_Click@Form1@Mogitter@@$$FA$AAMXP$AAVObject@System@@P$AAVEventArgs@4@@Z ; Mogitter::Form1::helping_Click
;	.proc.end.void
	.bss
.local	$StringLiteralTok$??_C@_1BC@PAOKIFNK@?$AA?$HL?$AAA?$AAn?$AAs?$AAw?$AAe?$AAr?$AA?$DN?$AA?$AA@,4
.local	$T1,0
; Function compile flags: /Ogsp
; File f:\meijin4\c++\mogitter\mogitter\form1.h
	.text
	.comdat	any, ?azukiArea_TextChanged@Form1@Mogitter@@$$FA$AAMXP$AAVObject@System@@P$AAVEventArgs@4@@Z
.global	?azukiArea_TextChanged@Form1@Mogitter@@$$FA$AAMXP$AAVObject@System@@P$AAVEventArgs@4@@Z ; Mogitter::Form1::azukiArea_TextChanged
?azukiArea_TextChanged@Form1@Mogitter@@$$FA$AAMXP$AAVObject@System@@P$AAVEventArgs@4@@Z: ; Mogitter::Form1::azukiArea_TextChanged
;	.proc.def	D:V(PP)

; Function Header:
; max stack depth = 2
; function size = 148 bytes
; local varsig tk = 0x11000018 
; Exception Information:
; 0 handlers, each consisting of filtered handlers

;	.formal.mptr 0,"this$" SIG: Optional C Binding Modifier(token:0x38BA05).class (token:0x38BA08)
;	.local.mb16  1,"$T2" SIG: valueType (token:0x3D226AD)
;	.local.mptr 0,"$T3" SIG: szarray (token:0x3D1C00D)

;	.proc.beg

; 902  : 				 setButtonsEnabled(azukiArea->Text->Length>0);

  0000b	02		 ldarg.0 	; this$
  0000c	7b 00 00 00 00	 ldfld ?azukiArea@Form1@Mogitter@@3P$AAVAzukiControl@WinForms@Azuki@Sgry@@$AA
  00011	6f 00 00 00 00	 callvirt ?get@Text@AzukiControl@WinForms@Azuki@Sgry@@$$FU$AAMP$AAVString@System@@XZ
  00016	28 00 00 00 00	 call ?get@Length@String@System@@$$FQ$AAMHXZ
  0001b	16		 ldc.i.0 0	; i32 0x0
  0001c	fe 02		 cgt 
  0001e	0c		 stloc.2 	
  0001f	02		 ldarg.0 	; this$
  00020	08		 ldloc.2 	
  00021	28 00 00 00 00	 call ?setButtonsEnabled@Form1@Mogitter@@$$FA$AAMX_N@Z

; 903  : 				 azukiArea->Highlighter->Highlight(azukiArea->Document);

  00026	02		 ldarg.0 	; this$
  00027	7b 00 00 00 00	 ldfld ?azukiArea@Form1@Mogitter@@3P$AAVAzukiControl@WinForms@Azuki@Sgry@@$AA
  0002c	6f 00 00 00 00	 callvirt ?get@Highlighter@AzukiControl@WinForms@Azuki@Sgry@@$$FU$AAMP$AAUIHighlighter@145@XZ
  00031	02		 ldarg.0 	; this$
  00032	7b 00 00 00 00	 ldfld ?azukiArea@Form1@Mogitter@@3P$AAVAzukiControl@WinForms@Azuki@Sgry@@$AA
  00037	6f 00 00 00 00	 callvirt ?get@Document@AzukiControl@WinForms@Azuki@Sgry@@$$FU$AAMP$AAV145@XZ
  0003c	6f 00 00 00 00	 callvirt ?Highlight@IHighlighter@Highlighter@Azuki@Sgry@@$$FU$AAMXP$AAVDocument@34@@Z

; 904  : 				 randomQNum->Maximum = azukiArea->Text->Split('\n')->Length;

  00041	17		 ldc.i.1 1	; i32 0x1
  00042	8d 00 00 00 00	 newarr $TypeTok$11003218$
  00047	0a		 stloc.0 	; $T3
  00048	06		 ldloc.0 	; $T3
  00049	16		 ldc.i.0 0	; i32 0x0
  0004a	8f 00 00 00 00	 ldelema $va_argTok$_W
  0004f	1f 0a		 ldc.i4.s 10	; u16 0xa
  00051	53		 stind.i2 
  00052	02		 ldarg.0 	; this$
  00053	7b 00 00 00 00	 ldfld ?azukiArea@Form1@Mogitter@@3P$AAVAzukiControl@WinForms@Azuki@Sgry@@$AA
  00058	6f 00 00 00 00	 callvirt ?get@Text@AzukiControl@WinForms@Azuki@Sgry@@$$FU$AAMP$AAVString@System@@XZ
  0005d	06		 ldloc.0 	; $T3
  0005e	28 00 00 00 00	 call ?Split@String@System@@$$FQ$AAMP$01AP$AAV12@P$01A_W@Z
  00063	8e		 ldlen 
  00064	28 00 00 00 00	 call ??BDecimal@System@@$$FSM?AV01@H@Z
  00069	0b		 stloc.1 	; $T2
  0006a	02		 ldarg.0 	; this$
  0006b	7b 00 00 00 00	 ldfld ?randomQNum@Form1@Mogitter@@3P$AAVNumericUpDown@Forms@Windows@System@@$AA
  00070	07		 ldloc.1 	; $T2
  00071	28 00 00 00 00	 call ?set@Maximum@NumericUpDown@Forms@Windows@System@@$$FQ$AAMXVDecimal@5@@Z

; 905  : 				 if (azukiArea->Text->IndexOf("{Answer=") > 0)

  00076	02		 ldarg.0 	; this$
  00077	7b 00 00 00 00	 ldfld ?azukiArea@Form1@Mogitter@@3P$AAVAzukiControl@WinForms@Azuki@Sgry@@$AA
  0007c	6f 00 00 00 00	 callvirt ?get@Text@AzukiControl@WinForms@Azuki@Sgry@@$$FU$AAMP$AAVString@System@@XZ
  00081	72 00 00 00 00	 ldstr $StringLiteralTok$??_C@_1BC@PAOKIFNK@?$AA?$HL?$AAA?$AAn?$AAs?$AAw?$AAe?$AAr?$AA?$DN?$AA?$AA@
  00086	28 00 00 00 00	 call ?IndexOf@String@System@@$$FQ$AAMHP$AAV12@@Z
  0008b	16		 ldc.i.0 0	; i32 0x0
  0008c	31 0a		 ble.s $LN2@azukiArea_

; 906  : 				 {
; 907  : 					 setExplainText(2);

  0008e	02		 ldarg.0 	; this$
  0008f	18		 ldc.i.2 2	; i32 0x2
  00090	28 00 00 00 00	 call ?setExplainText@Form1@Mogitter@@$$FA$AAMXH@Z

; 908  : 				 }else

  00095	2b 08		 br.s $LN1@azukiArea_
$LN2@azukiArea_:

; 909  : 				 {
; 910  : 					 setExplainText(1);

  00098	02		 ldarg.0 	; this$
  00099	17		 ldc.i.1 1	; i32 0x1
  0009a	28 00 00 00 00	 call ?setExplainText@Form1@Mogitter@@$$FA$AAMXH@Z
$LN1@azukiArea_:

; 911  : 				 }
; 912  : 			 }

  0009f	2a		 ret 
 .end ?azukiArea_TextChanged@Form1@Mogitter@@$$FA$AAMXP$AAVObject@System@@P$AAVEventArgs@4@@Z ; Mogitter::Form1::azukiArea_TextChanged
;	.proc.end.void
.global	
	.bss
.local	,4
; Function compile flags: /Ogsp
; File f:\meijin4\c++\mogitter\mogitter\form1.h
	.text
	.comdat	any, ?sampleKeyDown@Form1@Mogitter@@$$FA$AAMXP$AAVObject@System@@P$AAVKeyEventArgs@Forms@Windows@4@@Z
.global	?sampleKeyDown@Form1@Mogitter@@$$FA$AAMXP$AAVObject@System@@P$AAVKeyEventArgs@Forms@Windows@4@@Z ; Mogitter::Form1::sampleKeyDown
?sampleKeyDown@Form1@Mogitter@@$$FA$AAMXP$AAVObject@System@@P$AAVKeyEventArgs@Forms@Windows@4@@Z: ; Mogitter::Form1::sampleKeyDown
;	.proc.def	D:V(PP)

; Function Header:
; max stack depth = 0
; function size = 1 bytes
; local varsig tk = 0x0 
; Exception Information:
; 0 handlers, each consisting of filtered handlers


;	.proc.beg

; 914  : 			 }

  0000b	2a		 ret 
 .end ?sampleKeyDown@Form1@Mogitter@@$$FA$AAMXP$AAVObject@System@@P$AAVKeyEventArgs@Forms@Windows@4@@Z ; Mogitter::Form1::sampleKeyDown
;	.proc.end.void
; Function compile flags: /Ogsp
; File f:\meijin4\c++\mogitter\mogitter\form1.h
	.text
	.comdat	any, ?openMenuItem_Click@Form1@Mogitter@@$$FA$AAMXP$AAVObject@System@@P$AAVEventArgs@4@@Z
.global	?openMenuItem_Click@Form1@Mogitter@@$$FA$AAMXP$AAVObject@System@@P$AAVEventArgs@4@@Z ; Mogitter::Form1::openMenuItem_Click
?openMenuItem_Click@Form1@Mogitter@@$$FA$AAMXP$AAVObject@System@@P$AAVEventArgs@4@@Z: ; Mogitter::Form1::openMenuItem_Click
;	.proc.def	D:V(PP)

; Function Header:
; max stack depth = 3
; function size = 9 bytes
; local varsig tk = 0x0 
; Exception Information:
; 0 handlers, each consisting of filtered handlers

;	.formal.mptr 0,"this$" SIG: Optional C Binding Modifier(token:0x38BA05).class (token:0x38BA08)
;	.formal.mptr 2,"e$" SIG: class (token:0x3D1D1F5)
;	.formal.mptr 1,"sender$" SIG: Unknown COM+ Object Signature

;	.proc.beg

; 1025 : 				   openFile_Click(sender,e);

  0000b	02		 ldarg.0 	; this$
  0000c	03		 ldarg.1 	; sender$
  0000d	04		 ldarg.2 	; e$
  0000e	28 00 00 00 00	 call ?openFile_Click@Form1@Mogitter@@$$FA$AAMXP$AAVObject@System@@P$AAVEventArgs@4@@Z

; 1026 : 			   }

  00013	2a		 ret 
 .end ?openMenuItem_Click@Form1@Mogitter@@$$FA$AAMXP$AAVObject@System@@P$AAVEventArgs@4@@Z ; Mogitter::Form1::openMenuItem_Click
;	.proc.end.void
; Function compile flags: /Ogsp
; File f:\meijin4\c++\mogitter\mogitter\form1.h
	.text
	.comdat	any, ?undoMenuItem_Click@Form1@Mogitter@@$$FA$AAMXP$AAVObject@System@@P$AAVEventArgs@4@@Z
.global	?undoMenuItem_Click@Form1@Mogitter@@$$FA$AAMXP$AAVObject@System@@P$AAVEventArgs@4@@Z ; Mogitter::Form1::undoMenuItem_Click
?undoMenuItem_Click@Form1@Mogitter@@$$FA$AAMXP$AAVObject@System@@P$AAVEventArgs@4@@Z: ; Mogitter::Form1::undoMenuItem_Click
;	.proc.def	D:V(PP)

; Function Header:
; max stack depth = 1
; function size = 12 bytes
; local varsig tk = 0x0 
; Exception Information:
; 0 handlers, each consisting of filtered handlers

;	.formal.mptr 0,"this$" SIG: Optional C Binding Modifier(token:0x38BA05).class (token:0x38BA08)

;	.proc.beg

; 1028 : 			 azukiArea->Undo();

  0000b	02		 ldarg.0 	; this$
  0000c	7b 00 00 00 00	 ldfld ?azukiArea@Form1@Mogitter@@3P$AAVAzukiControl@WinForms@Azuki@Sgry@@$AA
  00011	6f 00 00 00 00	 callvirt ?Undo@AzukiControl@WinForms@Azuki@Sgry@@$$FU$AAMXXZ

; 1029 : 		 }

  00016	2a		 ret 
 .end ?undoMenuItem_Click@Form1@Mogitter@@$$FA$AAMXP$AAVObject@System@@P$AAVEventArgs@4@@Z ; Mogitter::Form1::undoMenuItem_Click
;	.proc.end.void
; Function compile flags: /Ogsp
; File f:\meijin4\c++\mogitter\mogitter\form1.h
	.text
	.comdat	any, ?redoMenuItem_Click@Form1@Mogitter@@$$FA$AAMXP$AAVObject@System@@P$AAVEventArgs@4@@Z
.global	?redoMenuItem_Click@Form1@Mogitter@@$$FA$AAMXP$AAVObject@System@@P$AAVEventArgs@4@@Z ; Mogitter::Form1::redoMenuItem_Click
?redoMenuItem_Click@Form1@Mogitter@@$$FA$AAMXP$AAVObject@System@@P$AAVEventArgs@4@@Z: ; Mogitter::Form1::redoMenuItem_Click
;	.proc.def	D:V(PP)

; Function Header:
; max stack depth = 1
; function size = 12 bytes
; local varsig tk = 0x0 
; Exception Information:
; 0 handlers, each consisting of filtered handlers

;	.formal.mptr 0,"this$" SIG: Optional C Binding Modifier(token:0x38BA05).class (token:0x38BA08)

;	.proc.beg

; 1031 : 			 azukiArea->Redo();

  0000b	02		 ldarg.0 	; this$
  0000c	7b 00 00 00 00	 ldfld ?azukiArea@Form1@Mogitter@@3P$AAVAzukiControl@WinForms@Azuki@Sgry@@$AA
  00011	6f 00 00 00 00	 callvirt ?Redo@AzukiControl@WinForms@Azuki@Sgry@@$$FU$AAMXXZ

; 1032 : 		 }

  00016	2a		 ret 
 .end ?redoMenuItem_Click@Form1@Mogitter@@$$FA$AAMXP$AAVObject@System@@P$AAVEventArgs@4@@Z ; Mogitter::Form1::redoMenuItem_Click
;	.proc.end.void
; Function compile flags: /Ogsp
; File f:\meijin4\c++\mogitter\mogitter\form1.h
	.text
	.comdat	any, ?copyMenuItem_Click@Form1@Mogitter@@$$FA$AAMXP$AAVObject@System@@P$AAVEventArgs@4@@Z
.global	?copyMenuItem_Click@Form1@Mogitter@@$$FA$AAMXP$AAVObject@System@@P$AAVEventArgs@4@@Z ; Mogitter::Form1::copyMenuItem_Click
?copyMenuItem_Click@Form1@Mogitter@@$$FA$AAMXP$AAVObject@System@@P$AAVEventArgs@4@@Z: ; Mogitter::Form1::copyMenuItem_Click
;	.proc.def	D:V(PP)

; Function Header:
; max stack depth = 1
; function size = 12 bytes
; local varsig tk = 0x0 
; Exception Information:
; 0 handlers, each consisting of filtered handlers

;	.formal.mptr 0,"this$" SIG: Optional C Binding Modifier(token:0x38BA05).class (token:0x38BA08)

;	.proc.beg

; 1034 : 			 azukiArea->Copy();

  0000b	02		 ldarg.0 	; this$
  0000c	7b 00 00 00 00	 ldfld ?azukiArea@Form1@Mogitter@@3P$AAVAzukiControl@WinForms@Azuki@Sgry@@$AA
  00011	6f 00 00 00 00	 callvirt ?Copy@AzukiControl@WinForms@Azuki@Sgry@@$$FU$AAMXXZ

; 1035 : 		 }

  00016	2a		 ret 
 .end ?copyMenuItem_Click@Form1@Mogitter@@$$FA$AAMXP$AAVObject@System@@P$AAVEventArgs@4@@Z ; Mogitter::Form1::copyMenuItem_Click
;	.proc.end.void
; Function compile flags: /Ogsp
; File f:\meijin4\c++\mogitter\mogitter\form1.h
	.text
	.comdat	any, ?all_selectMenuItem_Click@Form1@Mogitter@@$$FA$AAMXP$AAVObject@System@@P$AAVEventArgs@4@@Z
.global	?all_selectMenuItem_Click@Form1@Mogitter@@$$FA$AAMXP$AAVObject@System@@P$AAVEventArgs@4@@Z ; Mogitter::Form1::all_selectMenuItem_Click
?all_selectMenuItem_Click@Form1@Mogitter@@$$FA$AAMXP$AAVObject@System@@P$AAVEventArgs@4@@Z: ; Mogitter::Form1::all_selectMenuItem_Click
;	.proc.def	D:V(PP)

; Function Header:
; max stack depth = 1
; function size = 12 bytes
; local varsig tk = 0x0 
; Exception Information:
; 0 handlers, each consisting of filtered handlers

;	.formal.mptr 0,"this$" SIG: Optional C Binding Modifier(token:0x38BA05).class (token:0x38BA08)

;	.proc.beg

; 1037 : 			 azukiArea->SelectAll();

  0000b	02		 ldarg.0 	; this$
  0000c	7b 00 00 00 00	 ldfld ?azukiArea@Form1@Mogitter@@3P$AAVAzukiControl@WinForms@Azuki@Sgry@@$AA
  00011	6f 00 00 00 00	 callvirt ?SelectAll@AzukiControl@WinForms@Azuki@Sgry@@$$FU$AAMXXZ

; 1038 : 		 }

  00016	2a		 ret 
 .end ?all_selectMenuItem_Click@Form1@Mogitter@@$$FA$AAMXP$AAVObject@System@@P$AAVEventArgs@4@@Z ; Mogitter::Form1::all_selectMenuItem_Click
;	.proc.end.void
.global	
.global	
	.bss
.local	,4
.local	,4
.local	$StringLiteralTok$??_C@_1FE@HKDFPMJE@?$AAM?$AAo?$AAg?$AAi0?U0?$KB0?$KE0?k?$AA?$CI?$AA?$CK?$AA?4?$AAm?$AAo?$AAg?$AAi?$AA?$CJ?$AA?$HM?$AA?$CK?$AA?4?$AAm?$AAo?$AAg?$AAi?$AA?$HM0Y0y0f0n0?U0?$KB0?$KE0?k@,4
.local	$T1,0
; Function compile flags: /Ogsp
; File f:\meijin4\c++\mogitter\mogitter\form1.h
	.text
	.comdat	any, ?savingDo@Form1@Mogitter@@$$FA$AAMX_N@Z
.global	?savingDo@Form1@Mogitter@@$$FA$AAMX_N@Z		; Mogitter::Form1::savingDo
?savingDo@Form1@Mogitter@@$$FA$AAMX_N@Z:		; Mogitter::Form1::savingDo
;	.proc.def	D:V(I)

; Function Header:
; max stack depth = 3
; function size = 91 bytes
; local varsig tk = 0x1100001C 
; Exception Information:
; 0 handlers, each consisting of filtered handlers

;	.formal.mptr 0,"this$" SIG: Optional C Binding Modifier(token:0x38BA05).class (token:0x38BA08)
;	.formal.u1 1,"append$" SIG: bool
;	.local.mptr 0,"sdg$" SIG: class (token:0x3D78A25)
;	.local.mptr 1,"writer$" SIG: class (token:0x3D78CE5)

;	.proc.beg

; 1059 : 			 	SaveFileDialog^ sdg = gcnew SaveFileDialog();

  0000b	73 00 00 00 00	 newobj ??0SaveFileDialog@Forms@Windows@System@@$$FQ$AAM@XZ
  00010	0a		 stloc.0 	; sdg$

; 1060 : 				sdg->Filter = "Mogiファイル(*.mogi)|*.mogi|すべてのファイル(*.*)|*.*";

  00011	06		 ldloc.0 	; sdg$
  00012	72 00 00 00 00	 ldstr $StringLiteralTok$??_C@_1FE@HKDFPMJE@?$AAM?$AAo?$AAg?$AAi0?U0?$KB0?$KE0?k?$AA?$CI?$AA?$CK?$AA?4?$AAm?$AAo?$AAg?$AAi?$AA?$CJ?$AA?$HM?$AA?$CK?$AA?4?$AAm?$AAo?$AAg?$AAi?$AA?$HM0Y0y0f0n0?U0?$KB0?$KE0?k@
  00017	28 00 00 00 00	 call ?set@Filter@FileDialog@Forms@Windows@System@@$$FQ$AAMXP$AAVString@5@@Z

; 1061 : 				if(sdg->ShowDialog() != System::Windows::Forms::DialogResult::OK){

  0001c	06		 ldloc.0 	; sdg$
  0001d	28 00 00 00 00	 call ?ShowDialog@CommonDialog@Forms@Windows@System@@$$FQ$AAM?AW4DialogResult@234@XZ
  00022	17		 ldc.i.1 1	; i32 0x1
  00023	33 41		 bne.un.s $LN2@savingDo

; 1062 : 					return;
; 1063 : 				}
; 1064 : 				fileName = sdg->FileName;

  00025	02		 ldarg.0 	; this$
  00026	06		 ldloc.0 	; sdg$
  00027	28 00 00 00 00	 call ?get@FileName@FileDialog@Forms@Windows@System@@$$FQ$AAMP$AAVString@5@XZ
  0002c	7d 00 00 00 00	 stfld ?fileName@Form1@Mogitter@@3P$AAVString@System@@$AA

; 1065 : 				StreamWriter^ writer = gcnew StreamWriter(sdg->FileName,append,System::Text::Encoding::GetEncoding(mojiCode->Text));

  00031	06		 ldloc.0 	; sdg$
  00032	28 00 00 00 00	 call ?get@FileName@FileDialog@Forms@Windows@System@@$$FQ$AAMP$AAVString@5@XZ
  00037	03		 ldarg.1 	; append$
  00038	02		 ldarg.0 	; this$
  00039	7b 00 00 00 00	 ldfld ?mojiCode@Form1@Mogitter@@3P$AAVToolStripDropDownButton@Forms@Windows@System@@$AA
  0003e	6f 00 00 00 00	 callvirt ?get@Text@ToolStripItem@Forms@Windows@System@@$$FU$AAMP$AAVString@5@XZ
  00043	28 00 00 00 00	 call ?GetEncoding@Encoding@Text@System@@$$FSMP$AAV123@P$AAVString@3@@Z
  00048	73 00 00 00 00	 newobj ??0StreamWriter@IO@System@@$$FQ$AAM@P$AAVString@2@_NP$AAVEncoding@Text@2@@Z
  0004d	0b		 stloc.1 	; writer$

; 1066 : 				writer->Write(azukiArea->Text);

  0004e	07		 ldloc.1 	; writer$
  0004f	02		 ldarg.0 	; this$
  00050	7b 00 00 00 00	 ldfld ?azukiArea@Form1@Mogitter@@3P$AAVAzukiControl@WinForms@Azuki@Sgry@@$AA
  00055	6f 00 00 00 00	 callvirt ?get@Text@AzukiControl@WinForms@Azuki@Sgry@@$$FU$AAMP$AAVString@System@@XZ
  0005a	6f 00 00 00 00	 callvirt ?Write@StreamWriter@IO@System@@$$FU$AAMXP$AAVString@3@@Z

; 1067 : 
; 1068 : 				writer->Close();

  0005f	07		 ldloc.1 	; writer$
  00060	6f 00 00 00 00	 callvirt ?Close@StreamWriter@IO@System@@$$FU$AAMXXZ
$LN2@savingDo:

; 1069 : 		 }

  00066	2a		 ret 
 .end ?savingDo@Form1@Mogitter@@$$FA$AAMX_N@Z		; Mogitter::Form1::savingDo
;	.proc.end.void
; Function compile flags: /Ogsp
; File f:\meijin4\c++\mogitter\mogitter\form1.h
	.text
	.comdat	any, ?named_saveMenuItem_Click@Form1@Mogitter@@$$FA$AAMXP$AAVObject@System@@P$AAVEventArgs@4@@Z
.global	?named_saveMenuItem_Click@Form1@Mogitter@@$$FA$AAMXP$AAVObject@System@@P$AAVEventArgs@4@@Z ; Mogitter::Form1::named_saveMenuItem_Click
?named_saveMenuItem_Click@Form1@Mogitter@@$$FA$AAMXP$AAVObject@System@@P$AAVEventArgs@4@@Z: ; Mogitter::Form1::named_saveMenuItem_Click
;	.proc.def	D:V(PP)

; Function Header:
; max stack depth = 2
; function size = 8 bytes
; local varsig tk = 0x0 
; Exception Information:
; 0 handlers, each consisting of filtered handlers

;	.formal.mptr 0,"this$" SIG: Optional C Binding Modifier(token:0x38BA05).class (token:0x38BA08)

;	.proc.beg

; 1071 : 			 savingDo(false);

  0000b	02		 ldarg.0 	; this$
  0000c	16		 ldc.i.0 0	; u8 0x0
  0000d	28 00 00 00 00	 call ?savingDo@Form1@Mogitter@@$$FA$AAMX_N@Z

; 1072 : 			}

  00012	2a		 ret 
 .end ?named_saveMenuItem_Click@Form1@Mogitter@@$$FA$AAMXP$AAVObject@System@@P$AAVEventArgs@4@@Z ; Mogitter::Form1::named_saveMenuItem_Click
;	.proc.end.void
	.bss
.local	$StringLiteralTok$??_C@_15LJNFNBHD@?$AA?$DL?$AA?$HN?$AA?$AA@,4
.local	$T1,0
; Function compile flags: /Ogsp
; File f:\meijin4\c++\mogitter\mogitter\form1.h
	.text
	.comdat	any, ?randomQNum_ValueChanged@Form1@Mogitter@@$$FA$AAMXP$AAVObject@System@@P$AAVEventArgs@4@@Z
.global	?randomQNum_ValueChanged@Form1@Mogitter@@$$FA$AAMXP$AAVObject@System@@P$AAVEventArgs@4@@Z ; Mogitter::Form1::randomQNum_ValueChanged
?randomQNum_ValueChanged@Form1@Mogitter@@$$FA$AAMXP$AAVObject@System@@P$AAVEventArgs@4@@Z: ; Mogitter::Form1::randomQNum_ValueChanged
;	.proc.def	D:V(PP)

; Function Header:
; max stack depth = 5
; function size = 157 bytes
; local varsig tk = 0x1100001D 
; Exception Information:
; 0 handlers, each consisting of filtered handlers

;	.formal.mptr 0,"this$" SIG: Optional C Binding Modifier(token:0x38BA05).class (token:0x38BA08)
;	.local.mptr 0,"insStr$" SIG: string
;	.local.i4 1,"$T2" SIG: i4

;	.proc.beg

; 1074 : 				if (!randomCheckBox->Checked)

  0000b	02		 ldarg.0 	; this$
  0000c	7b 00 00 00 00	 ldfld ?randomCheckBox@Form1@Mogitter@@3P$AAVCheckBox@Forms@Windows@System@@$AA
  00011	28 00 00 00 00	 call ?get@Checked@CheckBox@Forms@Windows@System@@$$FQ$AAM_NXZ
  00016	39 8d 00 00 00	 brfalse $LN1@randomQNum

; 1075 : 				{
; 1076 : 					return;
; 1077 : 				}
; 1078 : 				String^ insStr = "{@Random=";

  0001b	72 00 00 00 00	 ldstr $StringLiteralTok$??_C@_1BE@EPLDMCPJ@?$AA?$HL?$AA?$EA?$AAR?$AAa?$AAn?$AAd?$AAo?$AAm?$AA?$DN?$AA?$AA@
  00020	0a		 stloc.0 	; insStr$

; 1079 : 				int num = Decimal::ToInt32(randomQNum->Value);

  00021	02		 ldarg.0 	; this$
  00022	7b 00 00 00 00	 ldfld ?randomQNum@Form1@Mogitter@@3P$AAVNumericUpDown@Forms@Windows@System@@$AA
  00027	28 00 00 00 00	 call ?get@Value@NumericUpDown@Forms@Windows@System@@$$FQ$AAM?AVDecimal@5@XZ
  0002c	28 00 00 00 00	 call ?ToInt32@Decimal@System@@$$FSMHV12@@Z
  00031	0b		 stloc.1 	; $T2

; 1080 : 				insStr+=num.ToString()+";}";

  00032	06		 ldloc.0 	; insStr$
  00033	12 01		 ldloca.s 1	; $T2
  00035	28 00 00 00 00	 call ?ToString@Int32@System@@$$FU$CAMP$AAVString@2@XZ
  0003a	72 00 00 00 00	 ldstr $StringLiteralTok$??_C@_15LJNFNBHD@?$AA?$DL?$AA?$HN?$AA?$AA@
  0003f	28 00 00 00 00	 call ?Concat@String@System@@$$FSMP$AAV12@P$AAV12@0@Z
  00044	28 00 00 00 00	 call ?Concat@String@System@@$$FSMP$AAV12@P$AAV12@0@Z
  00049	0a		 stloc.0 	; insStr$

; 1081 : 				if (azukiArea->Text->StartsWith("{@Random="))

  0004a	02		 ldarg.0 	; this$
  0004b	7b 00 00 00 00	 ldfld ?azukiArea@Form1@Mogitter@@3P$AAVAzukiControl@WinForms@Azuki@Sgry@@$AA
  00050	6f 00 00 00 00	 callvirt ?get@Text@AzukiControl@WinForms@Azuki@Sgry@@$$FU$AAMP$AAVString@System@@XZ
  00055	72 00 00 00 00	 ldstr $StringLiteralTok$??_C@_1BE@EPLDMCPJ@?$AA?$HL?$AA?$EA?$AAR?$AAa?$AAn?$AAd?$AAo?$AAm?$AA?$DN?$AA?$AA@
  0005a	28 00 00 00 00	 call ?StartsWith@String@System@@$$FQ$AAM_NP$AAV12@@Z
  0005f	2c 21		 brfalse.s $LN2@randomQNum

; 1082 : 				{
; 1083 : 					azukiArea->Document->Replace(insStr,0,azukiArea->GetLineLength(0));

  00061	02		 ldarg.0 	; this$
  00062	7b 00 00 00 00	 ldfld ?azukiArea@Form1@Mogitter@@3P$AAVAzukiControl@WinForms@Azuki@Sgry@@$AA
  00067	6f 00 00 00 00	 callvirt ?get@Document@AzukiControl@WinForms@Azuki@Sgry@@$$FU$AAMP$AAV145@XZ
  0006c	06		 ldloc.0 	; insStr$
  0006d	16		 ldc.i.0 0	; i32 0x0
  0006e	02		 ldarg.0 	; this$
  0006f	7b 00 00 00 00	 ldfld ?azukiArea@Form1@Mogitter@@3P$AAVAzukiControl@WinForms@Azuki@Sgry@@$AA
  00074	16		 ldc.i.0 0	; i32 0x0
  00075	6f 00 00 00 00	 callvirt ?GetLineLength@AzukiControl@WinForms@Azuki@Sgry@@$$FU$AAMHH@Z
  0007a	28 00 00 00 00	 call ?Replace@Document@Azuki@Sgry@@$$FQ$AAMXP$AAVString@System@@HH@Z

; 1084 : 				}else

  0007f	2b 27		 br.s $LN1@randomQNum
$LN2@randomQNum:

; 1085 : 				{
; 1086 : 					azukiArea->Text = insStr + "\n" + azukiArea->Text;

  00082	02		 ldarg.0 	; this$
  00083	7b 00 00 00 00	 ldfld ?azukiArea@Form1@Mogitter@@3P$AAVAzukiControl@WinForms@Azuki@Sgry@@$AA
  00088	06		 ldloc.0 	; insStr$
  00089	72 00 00 00 00	 ldstr $StringLiteralTok$??_C@_13LBAGMAIH@?$AA?6?$AA?$AA@
  0008e	28 00 00 00 00	 call ?Concat@String@System@@$$FSMP$AAV12@P$AAV12@0@Z
  00093	02		 ldarg.0 	; this$
  00094	7b 00 00 00 00	 ldfld ?azukiArea@Form1@Mogitter@@3P$AAVAzukiControl@WinForms@Azuki@Sgry@@$AA
  00099	6f 00 00 00 00	 callvirt ?get@Text@AzukiControl@WinForms@Azuki@Sgry@@$$FU$AAMP$AAVString@System@@XZ
  0009e	28 00 00 00 00	 call ?Concat@String@System@@$$FSMP$AAV12@P$AAV12@0@Z
  000a3	6f 00 00 00 00	 callvirt ?set@Text@AzukiControl@WinForms@Azuki@Sgry@@$$FU$AAMXP$AAVString@System@@@Z
$LN1@randomQNum:

; 1087 : 				}
; 1088 : 			}

  000a8	2a		 ret 
 .end ?randomQNum_ValueChanged@Form1@Mogitter@@$$FA$AAMXP$AAVObject@System@@P$AAVEventArgs@4@@Z ; Mogitter::Form1::randomQNum_ValueChanged
;	.proc.end.void
; Function compile flags: /Ogsp
; File f:\meijin4\c++\mogitter\mogitter\form1.h
	.text
	.comdat	any, ?randomCheckBox_CheckedChanged@Form1@Mogitter@@$$FA$AAMXP$AAVObject@System@@P$AAVEventArgs@4@@Z
.global	?randomCheckBox_CheckedChanged@Form1@Mogitter@@$$FA$AAMXP$AAVObject@System@@P$AAVEventArgs@4@@Z ; Mogitter::Form1::randomCheckBox_CheckedChanged
?randomCheckBox_CheckedChanged@Form1@Mogitter@@$$FA$AAMXP$AAVObject@System@@P$AAVEventArgs@4@@Z: ; Mogitter::Form1::randomCheckBox_CheckedChanged
;	.proc.def	D:V(PP)

; Function Header:
; max stack depth = 5
; function size = 107 bytes
; local varsig tk = 0x0 
; Exception Information:
; 0 handlers, each consisting of filtered handlers

;	.formal.mptr 0,"this$" SIG: Optional C Binding Modifier(token:0x38BA05).class (token:0x38BA08)
;	.formal.mptr 2,"e$" SIG: class (token:0x3D1D1F5)
;	.formal.mptr 1,"sender$" SIG: Unknown COM+ Object Signature

;	.proc.beg

; 1090 : 				if (randomCheckBox->Checked)

  0000b	02		 ldarg.0 	; this$
  0000c	7b 00 00 00 00	 ldfld ?randomCheckBox@Form1@Mogitter@@3P$AAVCheckBox@Forms@Windows@System@@$AA
  00011	28 00 00 00 00	 call ?get@Checked@CheckBox@Forms@Windows@System@@$$FQ$AAM_NXZ
  00016	2c 17		 brfalse.s $LN3@randomChec

; 1091 : 				{
; 1092 : 					randomQNum->Enabled = true;

  00018	02		 ldarg.0 	; this$
  00019	7b 00 00 00 00	 ldfld ?randomQNum@Form1@Mogitter@@3P$AAVNumericUpDown@Forms@Windows@System@@$AA
  0001e	17		 ldc.i.1 1	; u8 0x1
  0001f	28 00 00 00 00	 call ?set@Enabled@Control@Forms@Windows@System@@$$FQ$AAMX_N@Z

; 1093 : 					randomQNum_ValueChanged(sender,e);

  00024	02		 ldarg.0 	; this$
  00025	03		 ldarg.1 	; sender$
  00026	04		 ldarg.2 	; e$
  00027	28 00 00 00 00	 call ?randomQNum_ValueChanged@Form1@Mogitter@@$$FA$AAMXP$AAVObject@System@@P$AAVEventArgs@4@@Z

; 1094 : 				}
; 1095 : 				else

  0002c	2b 48		 br.s $LN1@randomChec
$LN3@randomChec:

; 1096 : 				{
; 1097 : 					randomQNum->Enabled = false;

  0002f	02		 ldarg.0 	; this$
  00030	7b 00 00 00 00	 ldfld ?randomQNum@Form1@Mogitter@@3P$AAVNumericUpDown@Forms@Windows@System@@$AA
  00035	16		 ldc.i.0 0	; u8 0x0
  00036	28 00 00 00 00	 call ?set@Enabled@Control@Forms@Windows@System@@$$FQ$AAMX_N@Z

; 1098 : 					if (azukiArea->Text->StartsWith("{@Random="))

  0003b	02		 ldarg.0 	; this$
  0003c	7b 00 00 00 00	 ldfld ?azukiArea@Form1@Mogitter@@3P$AAVAzukiControl@WinForms@Azuki@Sgry@@$AA
  00041	6f 00 00 00 00	 callvirt ?get@Text@AzukiControl@WinForms@Azuki@Sgry@@$$FU$AAMP$AAVString@System@@XZ
  00046	72 00 00 00 00	 ldstr $StringLiteralTok$??_C@_1BE@EPLDMCPJ@?$AA?$HL?$AA?$EA?$AAR?$AAa?$AAn?$AAd?$AAo?$AAm?$AA?$DN?$AA?$AA@
  0004b	28 00 00 00 00	 call ?StartsWith@String@System@@$$FQ$AAM_NP$AAV12@@Z
  00050	2c 24		 brfalse.s $LN1@randomChec

; 1099 : 					{
; 1100 : 						azukiArea->Document->Replace("",0,azukiArea->GetLineLength(0)+1);

  00052	02		 ldarg.0 	; this$
  00053	7b 00 00 00 00	 ldfld ?azukiArea@Form1@Mogitter@@3P$AAVAzukiControl@WinForms@Azuki@Sgry@@$AA
  00058	6f 00 00 00 00	 callvirt ?get@Document@AzukiControl@WinForms@Azuki@Sgry@@$$FU$AAMP$AAV145@XZ
  0005d	72 00 00 00 00	 ldstr $StringLiteralTok$??_C@_11LOCGONAA@?$AA?$AA@
  00062	16		 ldc.i.0 0	; i32 0x0
  00063	02		 ldarg.0 	; this$
  00064	7b 00 00 00 00	 ldfld ?azukiArea@Form1@Mogitter@@3P$AAVAzukiControl@WinForms@Azuki@Sgry@@$AA
  00069	16		 ldc.i.0 0	; i32 0x0
  0006a	6f 00 00 00 00	 callvirt ?GetLineLength@AzukiControl@WinForms@Azuki@Sgry@@$$FU$AAMHH@Z
  0006f	17		 ldc.i.1 1	; i32 0x1
  00070	58		 add 
  00071	28 00 00 00 00	 call ?Replace@Document@Azuki@Sgry@@$$FQ$AAMXP$AAVString@System@@HH@Z
$LN1@randomChec:

; 1101 : 					}
; 1102 : 				}
; 1103 : 			}

  00076	2a		 ret 
 .end ?randomCheckBox_CheckedChanged@Form1@Mogitter@@$$FA$AAMXP$AAVObject@System@@P$AAVEventArgs@4@@Z ; Mogitter::Form1::randomCheckBox_CheckedChanged
;	.proc.end.void
; Function compile flags: /Ogsp
; File f:\meijin4\c++\mogitter\mogitter\form1.h
	.text
	.comdat	any, ?newMakeItem_Click@Form1@Mogitter@@$$FA$AAMXP$AAVObject@System@@P$AAVEventArgs@4@@Z
.global	?newMakeItem_Click@Form1@Mogitter@@$$FA$AAMXP$AAVObject@System@@P$AAVEventArgs@4@@Z ; Mogitter::Form1::newMakeItem_Click
?newMakeItem_Click@Form1@Mogitter@@$$FA$AAMXP$AAVObject@System@@P$AAVEventArgs@4@@Z: ; Mogitter::Form1::newMakeItem_Click
;	.proc.def	D:V(PP)

; Function Header:
; max stack depth = 2
; function size = 28 bytes
; local varsig tk = 0x0 
; Exception Information:
; 0 handlers, each consisting of filtered handlers

;	.formal.mptr 0,"this$" SIG: Optional C Binding Modifier(token:0x38BA05).class (token:0x38BA08)

;	.proc.beg

; 1105 : 			 azukiArea->Text = "";

  0000b	02		 ldarg.0 	; this$
  0000c	7b 00 00 00 00	 ldfld ?azukiArea@Form1@Mogitter@@3P$AAVAzukiControl@WinForms@Azuki@Sgry@@$AA
  00011	72 00 00 00 00	 ldstr $StringLiteralTok$??_C@_11LOCGONAA@?$AA?$AA@
  00016	6f 00 00 00 00	 callvirt ?set@Text@AzukiControl@WinForms@Azuki@Sgry@@$$FU$AAMXP$AAVString@System@@@Z

; 1106 : 			 fileName = "";

  0001b	02		 ldarg.0 	; this$
  0001c	72 00 00 00 00	 ldstr $StringLiteralTok$??_C@_11LOCGONAA@?$AA?$AA@
  00021	7d 00 00 00 00	 stfld ?fileName@Form1@Mogitter@@3P$AAVString@System@@$AA

; 1107 : 		 }

  00026	2a		 ret 
 .end ?newMakeItem_Click@Form1@Mogitter@@$$FA$AAMXP$AAVObject@System@@P$AAVEventArgs@4@@Z ; Mogitter::Form1::newMakeItem_Click
;	.proc.end.void
; Function compile flags: /Ogsp
; File f:\meijin4\c++\mogitter\mogitter\form1.h
	.text
	.comdat	any, ?endMenuItem_Click@Form1@Mogitter@@$$FA$AAMXP$AAVObject@System@@P$AAVEventArgs@4@@Z
.global	?endMenuItem_Click@Form1@Mogitter@@$$FA$AAMXP$AAVObject@System@@P$AAVEventArgs@4@@Z ; Mogitter::Form1::endMenuItem_Click
?endMenuItem_Click@Form1@Mogitter@@$$FA$AAMXP$AAVObject@System@@P$AAVEventArgs@4@@Z: ; Mogitter::Form1::endMenuItem_Click
;	.proc.def	D:V(PP)

; Function Header:
; max stack depth = 1
; function size = 7 bytes
; local varsig tk = 0x0 
; Exception Information:
; 0 handlers, each consisting of filtered handlers

;	.formal.mptr 0,"this$" SIG: Optional C Binding Modifier(token:0x38BA05).class (token:0x38BA08)

;	.proc.beg

; 1109 : 			 this->Close();

  0000b	02		 ldarg.0 	; this$
  0000c	28 00 00 00 00	 call ?Close@Form@Forms@Windows@System@@$$FQ$AAMXXZ

; 1110 : 		 }

  00011	2a		 ret 
 .end ?endMenuItem_Click@Form1@Mogitter@@$$FA$AAMXP$AAVObject@System@@P$AAVEventArgs@4@@Z ; Mogitter::Form1::endMenuItem_Click
;	.proc.end.void
; Function compile flags: /Ogsp
; File f:\meijin4\c++\mogitter\mogitter\form1.h
	.text
	.comdat	any, ?plusMenuItem_Click@Form1@Mogitter@@$$FA$AAMXP$AAVObject@System@@P$AAVEventArgs@4@@Z
.global	?plusMenuItem_Click@Form1@Mogitter@@$$FA$AAMXP$AAVObject@System@@P$AAVEventArgs@4@@Z ; Mogitter::Form1::plusMenuItem_Click
?plusMenuItem_Click@Form1@Mogitter@@$$FA$AAMXP$AAVObject@System@@P$AAVEventArgs@4@@Z: ; Mogitter::Form1::plusMenuItem_Click
;	.proc.def	D:V(PP)

; Function Header:
; max stack depth = 2
; function size = 8 bytes
; local varsig tk = 0x0 
; Exception Information:
; 0 handlers, each consisting of filtered handlers

;	.formal.mptr 0,"this$" SIG: Optional C Binding Modifier(token:0x38BA05).class (token:0x38BA08)

;	.proc.beg

; 1112 : 			 savingDo(true);

  0000b	02		 ldarg.0 	; this$
  0000c	17		 ldc.i.1 1	; u8 0x1
  0000d	28 00 00 00 00	 call ?savingDo@Form1@Mogitter@@$$FA$AAMX_N@Z

; 1113 : 		 }

  00012	2a		 ret 
 .end ?plusMenuItem_Click@Form1@Mogitter@@$$FA$AAMXP$AAVObject@System@@P$AAVEventArgs@4@@Z ; Mogitter::Form1::plusMenuItem_Click
;	.proc.end.void
.global	?shiftjisToolStripMenuItem@Form1@Mogitter@@3P$AAVToolStripMenuItem@Forms@Windows@System@@$AA ; Mogitter::Form1::shiftjisToolStripMenuItem
	.bss
.local	?shiftjisToolStripMenuItem@Form1@Mogitter@@3P$AAVToolStripMenuItem@Forms@Windows@System@@$AA,4 ; Mogitter::Form1::shiftjisToolStripMenuItem
; Function compile flags: /Ogsp
; File f:\meijin4\c++\mogitter\mogitter\form1.h
	.text
	.comdat	any, ?shiftjisToolStripMenuItem_Click@Form1@Mogitter@@$$FA$AAMXP$AAVObject@System@@P$AAVEventArgs@4@@Z
.global	?shiftjisToolStripMenuItem_Click@Form1@Mogitter@@$$FA$AAMXP$AAVObject@System@@P$AAVEventArgs@4@@Z ; Mogitter::Form1::shiftjisToolStripMenuItem_Click
?shiftjisToolStripMenuItem_Click@Form1@Mogitter@@$$FA$AAMXP$AAVObject@System@@P$AAVEventArgs@4@@Z: ; Mogitter::Form1::shiftjisToolStripMenuItem_Click
;	.proc.def	D:V(PP)

; Function Header:
; max stack depth = 2
; function size = 23 bytes
; local varsig tk = 0x0 
; Exception Information:
; 0 handlers, each consisting of filtered handlers

;	.formal.mptr 0,"this$" SIG: Optional C Binding Modifier(token:0x38BA05).class (token:0x38BA08)

;	.proc.beg

; 1115 : 			 mojiCode->Text = shiftjisToolStripMenuItem->Text;

  0000b	02		 ldarg.0 	; this$
  0000c	7b 00 00 00 00	 ldfld ?mojiCode@Form1@Mogitter@@3P$AAVToolStripDropDownButton@Forms@Windows@System@@$AA
  00011	02		 ldarg.0 	; this$
  00012	7b 00 00 00 00	 ldfld ?shiftjisToolStripMenuItem@Form1@Mogitter@@3P$AAVToolStripMenuItem@Forms@Windows@System@@$AA
  00017	6f 00 00 00 00	 callvirt ?get@Text@ToolStripItem@Forms@Windows@System@@$$FU$AAMP$AAVString@5@XZ
  0001c	6f 00 00 00 00	 callvirt ?set@Text@ToolStripItem@Forms@Windows@System@@$$FU$AAMXP$AAVString@5@@Z

; 1116 : 		 }

  00021	2a		 ret 
 .end ?shiftjisToolStripMenuItem_Click@Form1@Mogitter@@$$FA$AAMXP$AAVObject@System@@P$AAVEventArgs@4@@Z ; Mogitter::Form1::shiftjisToolStripMenuItem_Click
;	.proc.end.void
.global	?uTF8ToolStripMenuItem@Form1@Mogitter@@3P$AAVToolStripMenuItem@Forms@Windows@System@@$AA ; Mogitter::Form1::uTF8ToolStripMenuItem
	.bss
.local	?uTF8ToolStripMenuItem@Form1@Mogitter@@3P$AAVToolStripMenuItem@Forms@Windows@System@@$AA,4 ; Mogitter::Form1::uTF8ToolStripMenuItem
; Function compile flags: /Ogsp
; File f:\meijin4\c++\mogitter\mogitter\form1.h
	.text
	.comdat	any, ?uTF8ToolStripMenuItem_Click@Form1@Mogitter@@$$FA$AAMXP$AAVObject@System@@P$AAVEventArgs@4@@Z
.global	?uTF8ToolStripMenuItem_Click@Form1@Mogitter@@$$FA$AAMXP$AAVObject@System@@P$AAVEventArgs@4@@Z ; Mogitter::Form1::uTF8ToolStripMenuItem_Click
?uTF8ToolStripMenuItem_Click@Form1@Mogitter@@$$FA$AAMXP$AAVObject@System@@P$AAVEventArgs@4@@Z: ; Mogitter::Form1::uTF8ToolStripMenuItem_Click
;	.proc.def	D:V(PP)

; Function Header:
; max stack depth = 2
; function size = 23 bytes
; local varsig tk = 0x0 
; Exception Information:
; 0 handlers, each consisting of filtered handlers

;	.formal.mptr 0,"this$" SIG: Optional C Binding Modifier(token:0x38BA05).class (token:0x38BA08)

;	.proc.beg

; 1118 : 			 mojiCode->Text = uTF8ToolStripMenuItem->Text;

  0000b	02		 ldarg.0 	; this$
  0000c	7b 00 00 00 00	 ldfld ?mojiCode@Form1@Mogitter@@3P$AAVToolStripDropDownButton@Forms@Windows@System@@$AA
  00011	02		 ldarg.0 	; this$
  00012	7b 00 00 00 00	 ldfld ?uTF8ToolStripMenuItem@Form1@Mogitter@@3P$AAVToolStripMenuItem@Forms@Windows@System@@$AA
  00017	6f 00 00 00 00	 callvirt ?get@Text@ToolStripItem@Forms@Windows@System@@$$FU$AAMP$AAVString@5@XZ
  0001c	6f 00 00 00 00	 callvirt ?set@Text@ToolStripItem@Forms@Windows@System@@$$FU$AAMXP$AAVString@5@@Z

; 1119 : 		 }

  00021	2a		 ret 
 .end ?uTF8ToolStripMenuItem_Click@Form1@Mogitter@@$$FA$AAMXP$AAVObject@System@@P$AAVEventArgs@4@@Z ; Mogitter::Form1::uTF8ToolStripMenuItem_Click
;	.proc.end.void
	.bss
.local	$T1,0
; Function compile flags: /Ogsp
; File f:\meijin4\c++\mogitter\mogitter\form1.h
	.text
	.comdat	any, ?mojiCode_Click@Form1@Mogitter@@$$FA$AAMXP$AAVObject@System@@P$AAVEventArgs@4@@Z
.global	?mojiCode_Click@Form1@Mogitter@@$$FA$AAMXP$AAVObject@System@@P$AAVEventArgs@4@@Z ; Mogitter::Form1::mojiCode_Click
?mojiCode_Click@Form1@Mogitter@@$$FA$AAMXP$AAVObject@System@@P$AAVEventArgs@4@@Z: ; Mogitter::Form1::mojiCode_Click
;	.proc.def	D:V(PP)

; Function Header:
; max stack depth = 2
; function size = 19 bytes
; local varsig tk = 0x1100001E 
; Exception Information:
; 0 handlers, each consisting of filtered handlers

;	.formal.mptr 0,"this$" SIG: Optional C Binding Modifier(token:0x38BA05).class (token:0x38BA08)
;	.local.mb20  0,"$T2" SIG: valueType (token:0x3D28D25)

;	.proc.beg

; 1121 : 			 mojiCode->ForeColor = Color::Blue;

  0000b	28 00 00 00 00	 call ?get@Blue@Color@Drawing@System@@$$FSM?AV234@XZ
  00010	0a		 stloc.0 	; $T2
  00011	02		 ldarg.0 	; this$
  00012	7b 00 00 00 00	 ldfld ?mojiCode@Form1@Mogitter@@3P$AAVToolStripDropDownButton@Forms@Windows@System@@$AA
  00017	06		 ldloc.0 	; $T2
  00018	6f 00 00 00 00	 callvirt ?set@ForeColor@ToolStripItem@Forms@Windows@System@@$$FU$AAMXVColor@Drawing@5@@Z

; 1122 : 		 }

  0001d	2a		 ret 
 .end ?mojiCode_Click@Form1@Mogitter@@$$FA$AAMXP$AAVObject@System@@P$AAVEventArgs@4@@Z ; Mogitter::Form1::mojiCode_Click
;	.proc.end.void
.global	?dropOpen@Form1@Mogitter@@3_NA			; Mogitter::Form1::dropOpen
	.bss
.local	?dropOpen@Form1@Mogitter@@3_NA,1		; Mogitter::Form1::dropOpen
	.align	2
.local	$T1,0
; Function compile flags: /Ogsp
; File f:\meijin4\c++\mogitter\mogitter\form1.h
	.text
	.comdat	any, ?mojiCode_DropDownClosed@Form1@Mogitter@@$$FA$AAMXP$AAVObject@System@@P$AAVEventArgs@4@@Z
.global	?mojiCode_DropDownClosed@Form1@Mogitter@@$$FA$AAMXP$AAVObject@System@@P$AAVEventArgs@4@@Z ; Mogitter::Form1::mojiCode_DropDownClosed
?mojiCode_DropDownClosed@Form1@Mogitter@@$$FA$AAMXP$AAVObject@System@@P$AAVEventArgs@4@@Z: ; Mogitter::Form1::mojiCode_DropDownClosed
;	.proc.def	D:V(PP)

; Function Header:
; max stack depth = 2
; function size = 26 bytes
; local varsig tk = 0x1100001E 
; Exception Information:
; 0 handlers, each consisting of filtered handlers

;	.formal.mptr 0,"this$" SIG: Optional C Binding Modifier(token:0x38BA05).class (token:0x38BA08)
;	.local.mb20  0,"$T2" SIG: valueType (token:0x3D28D25)

;	.proc.beg

; 1124 : 			 mojiCode->ForeColor = Color::White;

  0000b	28 00 00 00 00	 call ?get@White@Color@Drawing@System@@$$FSM?AV234@XZ
  00010	0a		 stloc.0 	; $T2
  00011	02		 ldarg.0 	; this$
  00012	7b 00 00 00 00	 ldfld ?mojiCode@Form1@Mogitter@@3P$AAVToolStripDropDownButton@Forms@Windows@System@@$AA
  00017	06		 ldloc.0 	; $T2
  00018	6f 00 00 00 00	 callvirt ?set@ForeColor@ToolStripItem@Forms@Windows@System@@$$FU$AAMXVColor@Drawing@5@@Z

; 1125 : 			 dropOpen=false;

  0001d	02		 ldarg.0 	; this$
  0001e	16		 ldc.i.0 0	; u8 0x0
  0001f	7d 00 00 00 00	 stfld ?dropOpen@Form1@Mogitter@@3_NA

; 1126 : 		 }

  00024	2a		 ret 
 .end ?mojiCode_DropDownClosed@Form1@Mogitter@@$$FA$AAMXP$AAVObject@System@@P$AAVEventArgs@4@@Z ; Mogitter::Form1::mojiCode_DropDownClosed
;	.proc.end.void
; Function compile flags: /Ogsp
; File f:\meijin4\c++\mogitter\mogitter\form1.h
	.text
	.comdat	any, ?mojiCode_DropDownOpened@Form1@Mogitter@@$$FA$AAMXP$AAVObject@System@@P$AAVEventArgs@4@@Z
.global	?mojiCode_DropDownOpened@Form1@Mogitter@@$$FA$AAMXP$AAVObject@System@@P$AAVEventArgs@4@@Z ; Mogitter::Form1::mojiCode_DropDownOpened
?mojiCode_DropDownOpened@Form1@Mogitter@@$$FA$AAMXP$AAVObject@System@@P$AAVEventArgs@4@@Z: ; Mogitter::Form1::mojiCode_DropDownOpened
;	.proc.def	D:V(PP)

; Function Header:
; max stack depth = 2
; function size = 8 bytes
; local varsig tk = 0x0 
; Exception Information:
; 0 handlers, each consisting of filtered handlers

;	.formal.mptr 0,"this$" SIG: Optional C Binding Modifier(token:0x38BA05).class (token:0x38BA08)

;	.proc.beg

; 1129 : 			 dropOpen=true;

  0000b	02		 ldarg.0 	; this$
  0000c	17		 ldc.i.1 1	; u8 0x1
  0000d	7d 00 00 00 00	 stfld ?dropOpen@Form1@Mogitter@@3_NA

; 1130 : 		 }

  00012	2a		 ret 
 .end ?mojiCode_DropDownOpened@Form1@Mogitter@@$$FA$AAMXP$AAVObject@System@@P$AAVEventArgs@4@@Z ; Mogitter::Form1::mojiCode_DropDownOpened
;	.proc.end.void
	.bss
.local	$T1,0
; Function compile flags: /Ogsp
; File f:\meijin4\c++\mogitter\mogitter\form1.h
	.text
	.comdat	any, ?mojiCode_MouseLeave@Form1@Mogitter@@$$FA$AAMXP$AAVObject@System@@P$AAVEventArgs@4@@Z
.global	?mojiCode_MouseLeave@Form1@Mogitter@@$$FA$AAMXP$AAVObject@System@@P$AAVEventArgs@4@@Z ; Mogitter::Form1::mojiCode_MouseLeave
?mojiCode_MouseLeave@Form1@Mogitter@@$$FA$AAMXP$AAVObject@System@@P$AAVEventArgs@4@@Z: ; Mogitter::Form1::mojiCode_MouseLeave
;	.proc.def	D:V(PP)

; Function Header:
; max stack depth = 2
; function size = 27 bytes
; local varsig tk = 0x1100001E 
; Exception Information:
; 0 handlers, each consisting of filtered handlers

;	.formal.mptr 0,"this$" SIG: Optional C Binding Modifier(token:0x38BA05).class (token:0x38BA08)
;	.local.mb20  0,"$T2" SIG: valueType (token:0x3D28D25)

;	.proc.beg

; 1132 : 			 if (!dropOpen)

  0000b	02		 ldarg.0 	; this$
  0000c	7b 00 00 00 00	 ldfld ?dropOpen@Form1@Mogitter@@3_NA
  00011	2d 13		 brtrue.s $LN1@mojiCode_M

; 1133 : 			 {
; 1134 : 				 mojiCode->ForeColor = Color::White;

  00013	28 00 00 00 00	 call ?get@White@Color@Drawing@System@@$$FSM?AV234@XZ
  00018	0a		 stloc.0 	; $T2
  00019	02		 ldarg.0 	; this$
  0001a	7b 00 00 00 00	 ldfld ?mojiCode@Form1@Mogitter@@3P$AAVToolStripDropDownButton@Forms@Windows@System@@$AA
  0001f	06		 ldloc.0 	; $T2
  00020	6f 00 00 00 00	 callvirt ?set@ForeColor@ToolStripItem@Forms@Windows@System@@$$FU$AAMXVColor@Drawing@5@@Z
$LN1@mojiCode_M:

; 1135 : 			 }
; 1136 : 		 }

  00026	2a		 ret 
 .end ?mojiCode_MouseLeave@Form1@Mogitter@@$$FA$AAMXP$AAVObject@System@@P$AAVEventArgs@4@@Z ; Mogitter::Form1::mojiCode_MouseLeave
;	.proc.end.void
; Function compile flags: /Ogsp
	.text
	.comdat	any, ?<Dispose>@Form1@Mogitter@@$$FM$AAMX_N@Z
.global	?<Dispose>@Form1@Mogitter@@$$FM$AAMX_N@Z	; Mogitter::Form1::<Dispose>
?<Dispose>@Form1@Mogitter@@$$FM$AAMX_N@Z:		; Mogitter::Form1::<Dispose>
;	.proc.def	D:V(I)

; Function Header:
; max stack depth = 2
; function size = 27 bytes
; local varsig tk = 0x0 
; Exception Information:
; 1 handlers, each consisting of filtered handlers

;	.formal.mptr 0,"this$" SIG: Optional C Binding Modifier(token:0x38BA05).class (token:0x38BA08)
;	.formal.u1 1,"disposing$" SIG: bool

;	.proc.beg
  0000b	03		 ldarg.1 	; disposing$
  0000c	2c 11		 brfalse.s $LN3@
$LN13@:
  0000f	02		 ldarg.0 	; this$
  00010	28 00 00 00 00	 call ??1Form1@Mogitter@@$$FA$AAM@XZ
$LN2@:
  00015	de 0f		 leave.s $LN12@
$LN7@:
  00017	02		 ldarg.0 	; this$
  00018	17		 ldc.i.1 1	; u8 0x1
  00019	28 00 00 00 00	 call ?<Dispose>@Form@Forms@Windows@System@@$$FM$AAMX_N@Z
$LN9@:
  0001e	dc		 endfinally 
$LN3@:
  0001f	02		 ldarg.0 	; this$
  00020	16		 ldc.i.0 0	; u8 0x0
  00021	28 00 00 00 00	 call ?<Dispose>@Form@Forms@Windows@System@@$$FM$AAMX_N@Z
$LN12@:
  00026	2a		 ret 
 .end ?<Dispose>@Form1@Mogitter@@$$FM$AAMX_N@Z		; Mogitter::Form1::<Dispose>
;	.proc.end.void
.global	?kakkos@Form1@Mogitter@@1P$01AP$AAVString@System@@A ; Mogitter::Form1::kakkos
	.bss
.local	?kakkos@Form1@Mogitter@@1P$01AP$AAVString@System@@A,4 ; Mogitter::Form1::kakkos
.local	$T1,0
; Function compile flags: /Ogsp
	.text
	.comdat	any, ?.cctor@Form1@Mogitter@@$$FSMXXZ
.global	?.cctor@Form1@Mogitter@@$$FSMXXZ		; ?.cctor@Form1@Mogitter@@$$FSMXXZ
?.cctor@Form1@Mogitter@@$$FSMXXZ:			; ?.cctor@Form1@Mogitter@@$$FSMXXZ
;	.proc.def	D:V()

; Function Header:
; max stack depth = 3
; function size = 54 bytes
; local varsig tk = 0x1100001F 
; Exception Information:
; 0 handlers, each consisting of filtered handlers

;	.local.i4 0,"$T2" SIG: string
;	.local.i4 1,"$T3" SIG: string
;	.local.i4 2,"$T4" SIG: string

;	.proc.beg
  0000b	19		 ldc.i.3 3	; i32 0x3
  0000c	8d 00 00 00 00	 newarr $TypeTok$110E9D94$
  00011	80 00 00 00 00	 stsfld ?kakkos@Form1@Mogitter@@1P$01AP$AAVString@System@@A
  00016	72 00 00 00 00	 ldstr $StringLiteralTok$??_C@_13GCIFAHHO@?$AA?$HL?$AA?$AA@
  0001b	0c		 stloc.2 	; $T4
  0001c	7e 00 00 00 00	 ldsfld ?kakkos@Form1@Mogitter@@1P$01AP$AAVString@System@@A
  00021	16		 ldc.i.0 0	; i32 0x0
  00022	08		 ldloc.2 	; $T4
  00023	a2		 stelem.ref 
  00024	72 00 00 00 00	 ldstr $StringLiteralTok$??_C@_13GCIFAHHO@?$AA?$HL?$AA?$AA@
  00029	0b		 stloc.1 	; $T3
  0002a	7e 00 00 00 00	 ldsfld ?kakkos@Form1@Mogitter@@1P$01AP$AAVString@System@@A
  0002f	17		 ldc.i.1 1	; i32 0x1
  00030	07		 ldloc.1 	; $T3
  00031	a2		 stelem.ref 
  00032	72 00 00 00 00	 ldstr $StringLiteralTok$??_C@_13EHOOFIKC@?$AA?$HN?$AA?$AA@
  00037	0a		 stloc.0 	; $T2
  00038	7e 00 00 00 00	 ldsfld ?kakkos@Form1@Mogitter@@1P$01AP$AAVString@System@@A
  0003d	18		 ldc.i.2 2	; i32 0x2
  0003e	06		 ldloc.0 	; $T2
  0003f	a2		 stelem.ref 
  00040	2a		 ret 
 .end ?.cctor@Form1@Mogitter@@$$FSMXXZ			; ?.cctor@Form1@Mogitter@@$$FSMXXZ
;	.proc.end.void
.global	?toEsc@MogiTest@Mogitter@@2P$01AP$AAVString@System@@A ; Mogitter::MogiTest::toEsc
	.bss
.local	?toEsc@MogiTest@Mogitter@@2P$01AP$AAVString@System@@A,4 ; Mogitter::MogiTest::toEsc
.local	$StringLiteralTok$??_C@_13NEIAEHFG@?$AA?$CC?$AA?$AA@,4
.local	$T1,0
; Function compile flags: /Ogsp
; File f:\meijin4\c++\mogitter\mogitter\mogitest.h
	.text
	.comdat	any, ?escapeReady@MogiTest@Mogitter@@$$FSMP$AAVString@System@@P$AAV34@@Z
.global	?escapeReady@MogiTest@Mogitter@@$$FSMP$AAVString@System@@P$AAV34@@Z ; Mogitter::MogiTest::escapeReady
?escapeReady@MogiTest@Mogitter@@$$FSMP$AAVString@System@@P$AAV34@@Z: ; Mogitter::MogiTest::escapeReady
;	.proc.def	D:P(P)

; Function Header:
; max stack depth = 4
; function size = 60 bytes
; local varsig tk = 0x11000020 
; Exception Information:
; 0 handlers, each consisting of filtered handlers

;	.formal.mptr 0,"text$" SIG: string
;	.local.mptr 2,"txt$" SIG: string
;	.local.mptr 1,"$S118$2" SIG: szarray (token:0x3D1E3B5)
;	.local.i4 0,"$I$3" SIG: i4
;	.local.mptr 4,"esc$4" SIG: string
;	.local.i4 3,"$T5" SIG: string

;	.proc.beg

; 558  : 				String^ txt = text;

  0000b	02		 ldarg.0 	; text$
  0000c	0c		 stloc.2 	; txt$

; 559  : 				for each(String^ esc in toEsc){

  0000d	7e 00 00 00 00	 ldsfld ?toEsc@MogiTest@Mogitter@@2P$01AP$AAVString@System@@A
  00012	0b		 stloc.1 	; $S118$2
  00013	16		 ldc.i.0 0	; i32 0x0
  00014	0a		 stloc.0 	; $I$3
  00015	16		 ldc.i.0 0	; i32 0x0
  00016	07		 ldloc.1 	; $S118$2
  00017	8e		 ldlen 
  00018	2f 2c		 bge.s $LN1@escapeRead
$LL3@escapeRead:
  0001b	07		 ldloc.1 	; $S118$2
  0001c	06		 ldloc.0 	; $I$3
  0001d	9a		 ldelem.ref 
  0001e	13 04		 stloc.s 4	; esc$4

; 560  : 					txt = txt->Replace(esc,"\""+esc+"\"");

  00020	72 00 00 00 00	 ldstr $StringLiteralTok$??_C@_13NEIAEHFG@?$AA?$CC?$AA?$AA@
  00025	0d		 stloc.3 	; $T5
  00026	08		 ldloc.2 	; txt$
  00027	11 04		 ldloc.s 4	; esc$4
  00029	09		 ldloc.3 	; $T5
  0002a	11 04		 ldloc.s 4	; esc$4
  0002c	28 00 00 00 00	 call ?Concat@String@System@@$$FSMP$AAV12@P$AAV12@0@Z
  00031	09		 ldloc.3 	; $T5
  00032	28 00 00 00 00	 call ?Concat@String@System@@$$FSMP$AAV12@P$AAV12@0@Z
  00037	28 00 00 00 00	 call ?Replace@String@System@@$$FQ$AAMP$AAV12@P$AAV12@0@Z
  0003c	0c		 stloc.2 	; txt$

; 559  : 				for each(String^ esc in toEsc){

  0003d	06		 ldloc.0 	; $I$3
  0003e	17		 ldc.i.1 1	; i32 0x1
  0003f	58		 add 
  00040	0a		 stloc.0 	; $I$3
  00041	06		 ldloc.0 	; $I$3
  00042	07		 ldloc.1 	; $S118$2
  00043	8e		 ldlen 
  00044	32 d5		 blt.s $LL3@escapeRead
$LN1@escapeRead:

; 561  : 				}
; 562  : 				return txt;

  00046	08		 ldloc.2 	; txt$
  00047	2a		 ret 
 .end ?escapeReady@MogiTest@Mogitter@@$$FSMP$AAVString@System@@P$AAV34@@Z ; Mogitter::MogiTest::escapeReady
;	.proc.end.mptr
	.bss
.local	$StringLiteralTok$??_C@_13EFKPHINO@?$AA?$EA?$AA?$AA@,4
.local	$T1,0
; Function compile flags: /Ogsp
; File f:\meijin4\c++\mogitter\mogitter\mogitest.h
	.text
	.comdat	any, ?escapeSet@MogiTest@Mogitter@@$$FSMP$AAVString@System@@P$AAV34@@Z
.global	?escapeSet@MogiTest@Mogitter@@$$FSMP$AAVString@System@@P$AAV34@@Z ; Mogitter::MogiTest::escapeSet
?escapeSet@MogiTest@Mogitter@@$$FSMP$AAVString@System@@P$AAV34@@Z: ; Mogitter::MogiTest::escapeSet
;	.proc.def	D:P(P)

; Function Header:
; max stack depth = 4
; function size = 124 bytes
; local varsig tk = 0x11000021 
; Exception Information:
; 0 handlers, each consisting of filtered handlers

;	.formal.mptr 0,"text$" SIG: string
;	.local.mptr 3,"txt$" SIG: string
;	.local.i4 2,"i$" SIG: i4
;	.local.mptr 1,"$S119$2" SIG: szarray (token:0x3D1E3B5)
;	.local.i4 0,"$I$3" SIG: i4
;	.local.mptr 5,"esc$4" SIG: string
;	.local.i4 6,"$T5" SIG: i4
;	.local.i4 4,"$T6" SIG: string

;	.proc.beg

; 565  : 				String^ txt = text;

  0000b	02		 ldarg.0 	; text$
  0000c	0d		 stloc.3 	; txt$

; 566  : 				int i=toEsc->Length-1;

  0000d	7e 00 00 00 00	 ldsfld ?toEsc@MogiTest@Mogitter@@2P$01AP$AAVString@System@@A
  00012	8e		 ldlen 
  00013	17		 ldc.i.1 1	; i32 0x1
  00014	59		 sub 
  00015	0c		 stloc.2 	; i$

; 567  : 				System::Array::Reverse(toEsc);

  00016	7e 00 00 00 00	 ldsfld ?toEsc@MogiTest@Mogitter@@2P$01AP$AAVString@System@@A
  0001b	28 00 00 00 00	 call ?Reverse@Array@System@@$$FSMXP$AAV12@@Z

; 568  : 				for each(String^ esc in toEsc){

  00020	7e 00 00 00 00	 ldsfld ?toEsc@MogiTest@Mogitter@@2P$01AP$AAVString@System@@A
  00025	0b		 stloc.1 	; $S119$2
  00026	16		 ldc.i.0 0	; i32 0x0
  00027	0a		 stloc.0 	; $I$3
  00028	16		 ldc.i.0 0	; i32 0x0
  00029	07		 ldloc.1 	; $S119$2
  0002a	8e		 ldlen 
  0002b	2f 4f		 bge.s $LN1@escapeSet
$LL3@escapeSet:
  0002e	07		 ldloc.1 	; $S119$2
  0002f	06		 ldloc.0 	; $I$3
  00030	9a		 ldelem.ref 
  00031	13 05		 stloc.s 5	; esc$4

; 569  : 					txt = txt->Replace("\""+esc+"\"","@"+i.ToString()+"@");

  00033	08		 ldloc.2 	; i$
  00034	13 06		 stloc.s 6	; $T5
  00036	72 00 00 00 00	 ldstr $StringLiteralTok$??_C@_13NEIAEHFG@?$AA?$CC?$AA?$AA@
  0003b	13 04		 stloc.s 4	; $T6
  0003d	09		 ldloc.3 	; txt$
  0003e	11 04		 ldloc.s 4	; $T6
  00040	11 05		 ldloc.s 5	; esc$4
  00042	28 00 00 00 00	 call ?Concat@String@System@@$$FSMP$AAV12@P$AAV12@0@Z
  00047	11 04		 ldloc.s 4	; $T6
  00049	28 00 00 00 00	 call ?Concat@String@System@@$$FSMP$AAV12@P$AAV12@0@Z
  0004e	72 00 00 00 00	 ldstr $StringLiteralTok$??_C@_13EFKPHINO@?$AA?$EA?$AA?$AA@
  00053	12 06		 ldloca.s 6	; $T5
  00055	28 00 00 00 00	 call ?ToString@Int32@System@@$$FU$CAMP$AAVString@2@XZ
  0005a	28 00 00 00 00	 call ?Concat@String@System@@$$FSMP$AAV12@P$AAV12@0@Z
  0005f	72 00 00 00 00	 ldstr $StringLiteralTok$??_C@_13EFKPHINO@?$AA?$EA?$AA?$AA@
  00064	28 00 00 00 00	 call ?Concat@String@System@@$$FSMP$AAV12@P$AAV12@0@Z
  00069	28 00 00 00 00	 call ?Replace@String@System@@$$FQ$AAMP$AAV12@P$AAV12@0@Z
  0006e	0d		 stloc.3 	; txt$

; 570  : 					i--;

  0006f	08		 ldloc.2 	; i$
  00070	17		 ldc.i.1 1	; i32 0x1
  00071	59		 sub 
  00072	0c		 stloc.2 	; i$

; 568  : 				for each(String^ esc in toEsc){

  00073	06		 ldloc.0 	; $I$3
  00074	17		 ldc.i.1 1	; i32 0x1
  00075	58		 add 
  00076	0a		 stloc.0 	; $I$3
  00077	06		 ldloc.0 	; $I$3
  00078	07		 ldloc.1 	; $S119$2
  00079	8e		 ldlen 
  0007a	32 b2		 blt.s $LL3@escapeSet
$LN1@escapeSet:

; 571  : 				}
; 572  : 				System::Array::Reverse(toEsc);

  0007c	7e 00 00 00 00	 ldsfld ?toEsc@MogiTest@Mogitter@@2P$01AP$AAVString@System@@A
  00081	28 00 00 00 00	 call ?Reverse@Array@System@@$$FSMXP$AAV12@@Z

; 573  : 				return txt;

  00086	09		 ldloc.3 	; txt$
  00087	2a		 ret 
 .end ?escapeSet@MogiTest@Mogitter@@$$FSMP$AAVString@System@@P$AAV34@@Z ; Mogitter::MogiTest::escapeSet
;	.proc.end.mptr
	.bss
.local	$T1,0
; Function compile flags: /Ogsp
; File f:\meijin4\c++\mogitter\mogitter\mogitest.h
	.text
	.comdat	any, ?escapeReSet@MogiTest@Mogitter@@$$FSMP$AAVString@System@@P$AAV34@@Z
.global	?escapeReSet@MogiTest@Mogitter@@$$FSMP$AAVString@System@@P$AAV34@@Z ; Mogitter::MogiTest::escapeReSet
?escapeReSet@MogiTest@Mogitter@@$$FSMP$AAVString@System@@P$AAV34@@Z: ; Mogitter::MogiTest::escapeReSet
;	.proc.def	D:P(P)

; Function Header:
; max stack depth = 3
; function size = 68 bytes
; local varsig tk = 0x11000022 
; Exception Information:
; 0 handlers, each consisting of filtered handlers

;	.formal.mptr 0,"text$" SIG: string
;	.local.mptr 2,"txt$" SIG: string
;	.local.mptr 1,"$S120$2" SIG: szarray (token:0x3D1E3B5)
;	.local.i4 0,"$I$3" SIG: i4
;	.local.mptr 3,"esc$4" SIG: string
;	.local.i4 4,"$T5" SIG: i4

;	.proc.beg

; 576  : 				String^ txt = text;

  0000b	02		 ldarg.0 	; text$
  0000c	0c		 stloc.2 	; txt$

; 577  : 				int i=0;
; 578  : 				for each(String^ esc in toEsc){

  0000d	7e 00 00 00 00	 ldsfld ?toEsc@MogiTest@Mogitter@@2P$01AP$AAVString@System@@A
  00012	0b		 stloc.1 	; $S120$2
  00013	16		 ldc.i.0 0	; i32 0x0
  00014	0a		 stloc.0 	; $I$3
  00015	16		 ldc.i.0 0	; i32 0x0
  00016	07		 ldloc.1 	; $S120$2
  00017	8e		 ldlen 
  00018	2f 34		 bge.s $LN1@escapeReSe
$LL3@escapeReSe:
  0001b	07		 ldloc.1 	; $S120$2
  0001c	06		 ldloc.0 	; $I$3
  0001d	9a		 ldelem.ref 
  0001e	0d		 stloc.3 	; esc$4

; 579  : 					txt = txt->Replace("@"+i.ToString()+"@",esc);

  0001f	06		 ldloc.0 	; $I$3
  00020	13 04		 stloc.s 4	; $T5
  00022	08		 ldloc.2 	; txt$
  00023	72 00 00 00 00	 ldstr $StringLiteralTok$??_C@_13EFKPHINO@?$AA?$EA?$AA?$AA@
  00028	12 04		 ldloca.s 4	; $T5
  0002a	28 00 00 00 00	 call ?ToString@Int32@System@@$$FU$CAMP$AAVString@2@XZ
  0002f	28 00 00 00 00	 call ?Concat@String@System@@$$FSMP$AAV12@P$AAV12@0@Z
  00034	72 00 00 00 00	 ldstr $StringLiteralTok$??_C@_13EFKPHINO@?$AA?$EA?$AA?$AA@
  00039	28 00 00 00 00	 call ?Concat@String@System@@$$FSMP$AAV12@P$AAV12@0@Z
  0003e	09		 ldloc.3 	; esc$4
  0003f	28 00 00 00 00	 call ?Replace@String@System@@$$FQ$AAMP$AAV12@P$AAV12@0@Z
  00044	0c		 stloc.2 	; txt$

; 577  : 				int i=0;
; 578  : 				for each(String^ esc in toEsc){

  00045	06		 ldloc.0 	; $I$3
  00046	17		 ldc.i.1 1	; i32 0x1
  00047	58		 add 
  00048	0a		 stloc.0 	; $I$3
  00049	06		 ldloc.0 	; $I$3
  0004a	07		 ldloc.1 	; $S120$2
  0004b	8e		 ldlen 
  0004c	32 cd		 blt.s $LL3@escapeReSe
$LN1@escapeReSe:

; 580  : 					i++;
; 581  : 				}
; 582  : 				return txt;

  0004e	08		 ldloc.2 	; txt$
  0004f	2a		 ret 
 .end ?escapeReSet@MogiTest@Mogitter@@$$FSMP$AAVString@System@@P$AAV34@@Z ; Mogitter::MogiTest::escapeReSet
;	.proc.end.mptr
.global	
.global	?QuestSentence@MogiTest@Mogitter@@3P$AAVAzukiControl@WinForms@Azuki@Sgry@@$AA ; Mogitter::MogiTest::QuestSentence
.global	?userAnswerArea@MogiTest@Mogitter@@3P$AAVAzukiControl@WinForms@Azuki@Sgry@@$AA ; Mogitter::MogiTest::userAnswerArea
.global	?marubatsu@MogiTest@Mogitter@@3P$AAVKeywordHighlighter@Highlighter@Azuki@Sgry@@$AA ; Mogitter::MogiTest::marubatsu
.global	?maru@MogiTest@Mogitter@@3P$01AP$AAVString@System@@A ; Mogitter::MogiTest::maru
.global	?batsu@MogiTest@Mogitter@@3P$01AP$AAVString@System@@A ; Mogitter::MogiTest::batsu
.global	?keikaSec@MogiTest@Mogitter@@3HA		; Mogitter::MogiTest::keikaSec
.global	?keikajikan@MogiTest@Mogitter@@3P$AAVTimer@Forms@Windows@System@@$AA ; Mogitter::MogiTest::keikajikan
	.bss
.local	,4
.local	?QuestSentence@MogiTest@Mogitter@@3P$AAVAzukiControl@WinForms@Azuki@Sgry@@$AA,4 ; Mogitter::MogiTest::QuestSentence
.local	?userAnswerArea@MogiTest@Mogitter@@3P$AAVAzukiControl@WinForms@Azuki@Sgry@@$AA,4 ; Mogitter::MogiTest::userAnswerArea
.local	?marubatsu@MogiTest@Mogitter@@3P$AAVKeywordHighlighter@Highlighter@Azuki@Sgry@@$AA,4 ; Mogitter::MogiTest::marubatsu
.local	?maru@MogiTest@Mogitter@@3P$01AP$AAVString@System@@A,4 ; Mogitter::MogiTest::maru
.local	$StringLiteralTok$??_C@_13EBHBMNOP@?$CF?K?$AA?$AA@,4
.local	?batsu@MogiTest@Mogitter@@3P$01AP$AAVString@System@@A,4 ; Mogitter::MogiTest::batsu
.local	$StringLiteralTok$??_C@_13GFDIKBMD@?$AA?W?$AA?$AA@,4
.local	?keikaSec@MogiTest@Mogitter@@3HA,4		; Mogitter::MogiTest::keikaSec
.local	?keikajikan@MogiTest@Mogitter@@3P$AAVTimer@Forms@Windows@System@@$AA,4 ; Mogitter::MogiTest::keikajikan
.local	$T1,0
; Function compile flags: /Ogsp
; File f:\meijin4\c++\mogitter\mogitter\mogitest.h
	.text
	.comdat	any, ?MogiTest_Load@MogiTest@Mogitter@@$$FA$AAMXP$AAVObject@System@@P$AAVEventArgs@4@@Z
.global	?MogiTest_Load@MogiTest@Mogitter@@$$FA$AAMXP$AAVObject@System@@P$AAVEventArgs@4@@Z ; Mogitter::MogiTest::MogiTest_Load
?MogiTest_Load@MogiTest@Mogitter@@$$FA$AAMXP$AAVObject@System@@P$AAVEventArgs@4@@Z: ; Mogitter::MogiTest::MogiTest_Load
;	.proc.def	D:V(PP)

; Function Header:
; max stack depth = 4
; function size = 287 bytes
; local varsig tk = 0x11000024 
; Exception Information:
; 0 handlers, each consisting of filtered handlers

;	.formal.mptr 0,"this$" SIG: Optional C Binding Modifier(token:0x3D121A5).class (token:0x3D121A8)
;	.local.mb20  9,"$T2" SIG: valueType (token:0x3D28D25)
;	.local.mb20  8,"$T3" SIG: valueType (token:0x3D28D25)
;	.local.mb20  7,"$T4" SIG: valueType (token:0x3D28D25)
;	.local.mb20  6,"$T5" SIG: valueType (token:0x3D28D25)
;	.local.mb20  5,"$T6" SIG: valueType (token:0x3D28D25)
;	.local.mb20  4,"$T7" SIG: valueType (token:0x3D28D25)
;	.local.mb20  3,"$T8" SIG: valueType (token:0x3D28D25)
;	.local.mb20  2,"$T9" SIG: valueType (token:0x3D28D25)
;	.local.i4 1,"$T10" SIG: szarray (token:0x3CD392D)
;	.local.i4 0,"$T11" SIG: szarray (token:0x3CD39C5)

;	.proc.beg

; 772  : 
; 773  : 				 this->QuestSentence->BackColor = System::Drawing::Color::Ivory;

  0000b	28 00 00 00 00	 call ?get@Ivory@Color@Drawing@System@@$$FSM?AV234@XZ
  00010	13 09		 stloc.s 9	; $T2
  00012	02		 ldarg.0 	; this$
  00013	7b 00 00 00 00	 ldfld ?QuestSentence@MogiTest@Mogitter@@3P$AAVAzukiControl@WinForms@Azuki@Sgry@@$AA
  00018	11 09		 ldloc.s 9	; $T2
  0001a	6f 00 00 00 00	 callvirt ?set@BackColor@AzukiControl@WinForms@Azuki@Sgry@@$$FU$AAMXVColor@Drawing@System@@@Z

; 774  : 				 userAnswerArea->BackColor = Color::White;

  0001f	28 00 00 00 00	 call ?get@White@Color@Drawing@System@@$$FSM?AV234@XZ
  00024	13 08		 stloc.s 8	; $T3
  00026	02		 ldarg.0 	; this$
  00027	7b 00 00 00 00	 ldfld ?userAnswerArea@MogiTest@Mogitter@@3P$AAVAzukiControl@WinForms@Azuki@Sgry@@$AA
  0002c	11 08		 ldloc.s 8	; $T3
  0002e	6f 00 00 00 00	 callvirt ?set@BackColor@AzukiControl@WinForms@Azuki@Sgry@@$$FU$AAMXVColor@Drawing@System@@@Z

; 775  : 				 
; 776  : 				marubatsu = 
; 777  : 					gcnew Sgry::Azuki::Highlighter::KeywordHighlighter();

  00033	02		 ldarg.0 	; this$
  00034	73 00 00 00 00	 newobj ??0KeywordHighlighter@Highlighter@Azuki@Sgry@@$$FQ$AAM@XZ
  00039	7d 00 00 00 00	 stfld ?marubatsu@MogiTest@Mogitter@@3P$AAVKeywordHighlighter@Highlighter@Azuki@Sgry@@$AA

; 778  : 				maru = gcnew array<String^>(1);

  0003e	17		 ldc.i.1 1	; i32 0x1
  0003f	8d 00 00 00 00	 newarr $TypeTok$110E9D94$
  00044	0b		 stloc.1 	; $T10
  00045	02		 ldarg.0 	; this$
  00046	07		 ldloc.1 	; $T10
  00047	7d 00 00 00 00	 stfld ?maru@MogiTest@Mogitter@@3P$01AP$AAVString@System@@A

; 779  : 				maru[0] = "○";

  0004c	07		 ldloc.1 	; $T10
  0004d	16		 ldc.i.0 0	; i32 0x0
  0004e	72 00 00 00 00	 ldstr $StringLiteralTok$??_C@_13EBHBMNOP@?$CF?K?$AA?$AA@
  00053	a2		 stelem.ref 

; 780  : 				batsu = gcnew array<String^>(1);

  00054	17		 ldc.i.1 1	; i32 0x1
  00055	8d 00 00 00 00	 newarr $TypeTok$110E9D94$
  0005a	0a		 stloc.0 	; $T11
  0005b	02		 ldarg.0 	; this$
  0005c	06		 ldloc.0 	; $T11
  0005d	7d 00 00 00 00	 stfld ?batsu@MogiTest@Mogitter@@3P$01AP$AAVString@System@@A

; 781  : 				batsu[0] = "×";

  00062	06		 ldloc.0 	; $T11
  00063	16		 ldc.i.0 0	; i32 0x0
  00064	72 00 00 00 00	 ldstr $StringLiteralTok$??_C@_13GFDIKBMD@?$AA?W?$AA?$AA@
  00069	a2		 stelem.ref 

; 782  : 				marubatsu->AddKeywordSet(maru,Sgry::Azuki::CharClass::Function);

  0006a	02		 ldarg.0 	; this$
  0006b	7b 00 00 00 00	 ldfld ?marubatsu@MogiTest@Mogitter@@3P$AAVKeywordHighlighter@Highlighter@Azuki@Sgry@@$AA
  00070	02		 ldarg.0 	; this$
  00071	7b 00 00 00 00	 ldfld ?maru@MogiTest@Mogitter@@3P$01AP$AAVString@System@@A
  00076	1f 21		 ldc.i4.s 33	; u8 0x21
  00078	28 00 00 00 00	 call ?AddKeywordSet@KeywordHighlighter@Highlighter@Azuki@Sgry@@$$FQ$AAMXP$01AP$AAVString@System@@W4CharClass@34@@Z

; 783  : 				marubatsu->AddKeywordSet(batsu,Sgry::Azuki::CharClass::Property);

  0007d	02		 ldarg.0 	; this$
  0007e	7b 00 00 00 00	 ldfld ?marubatsu@MogiTest@Mogitter@@3P$AAVKeywordHighlighter@Highlighter@Azuki@Sgry@@$AA
  00083	02		 ldarg.0 	; this$
  00084	7b 00 00 00 00	 ldfld ?batsu@MogiTest@Mogitter@@3P$01AP$AAVString@System@@A
  00089	1f 0e		 ldc.i4.s 14	; u8 0xe
  0008b	28 00 00 00 00	 call ?AddKeywordSet@KeywordHighlighter@Highlighter@Azuki@Sgry@@$$FQ$AAMXP$01AP$AAVString@System@@W4CharClass@34@@Z

; 784  : 				userAnswerArea->Highlighter = marubatsu;

  00090	02		 ldarg.0 	; this$
  00091	7b 00 00 00 00	 ldfld ?userAnswerArea@MogiTest@Mogitter@@3P$AAVAzukiControl@WinForms@Azuki@Sgry@@$AA
  00096	02		 ldarg.0 	; this$
  00097	7b 00 00 00 00	 ldfld ?marubatsu@MogiTest@Mogitter@@3P$AAVKeywordHighlighter@Highlighter@Azuki@Sgry@@$AA
  0009c	6f 00 00 00 00	 callvirt ?set@Highlighter@AzukiControl@WinForms@Azuki@Sgry@@$$FU$AAMXP$AAUIHighlighter@145@@Z

; 785  : 				userAnswerArea->ColorScheme->SetColor(Sgry::Azuki::CharClass::Function,Color::Red,Color::White);

  000a1	28 00 00 00 00	 call ?get@White@Color@Drawing@System@@$$FSM?AV234@XZ
  000a6	13 07		 stloc.s 7	; $T4
  000a8	28 00 00 00 00	 call ?get@Red@Color@Drawing@System@@$$FSM?AV234@XZ
  000ad	13 06		 stloc.s 6	; $T5
  000af	02		 ldarg.0 	; this$
  000b0	7b 00 00 00 00	 ldfld ?userAnswerArea@MogiTest@Mogitter@@3P$AAVAzukiControl@WinForms@Azuki@Sgry@@$AA
  000b5	6f 00 00 00 00	 callvirt ?get@ColorScheme@AzukiControl@WinForms@Azuki@Sgry@@$$FU$AAMP$AAV145@XZ
  000ba	1f 21		 ldc.i4.s 33	; u8 0x21
  000bc	11 06		 ldloc.s 6	; $T5
  000be	11 07		 ldloc.s 7	; $T4
  000c0	28 00 00 00 00	 call ?SetColor@ColorScheme@Azuki@Sgry@@$$FQ$AAMXW4CharClass@23@VColor@Drawing@System@@1@Z

; 786  : 				userAnswerArea->ColorScheme->SetColor(Sgry::Azuki::CharClass::Property,Color::MediumBlue,Color::White);

  000c5	28 00 00 00 00	 call ?get@White@Color@Drawing@System@@$$FSM?AV234@XZ
  000ca	13 05		 stloc.s 5	; $T6
  000cc	28 00 00 00 00	 call ?get@MediumBlue@Color@Drawing@System@@$$FSM?AV234@XZ
  000d1	13 04		 stloc.s 4	; $T7
  000d3	02		 ldarg.0 	; this$
  000d4	7b 00 00 00 00	 ldfld ?userAnswerArea@MogiTest@Mogitter@@3P$AAVAzukiControl@WinForms@Azuki@Sgry@@$AA
  000d9	6f 00 00 00 00	 callvirt ?get@ColorScheme@AzukiControl@WinForms@Azuki@Sgry@@$$FU$AAMP$AAV145@XZ
  000de	1f 0e		 ldc.i4.s 14	; u8 0xe
  000e0	11 04		 ldloc.s 4	; $T7
  000e2	11 05		 ldloc.s 5	; $T6
  000e4	28 00 00 00 00	 call ?SetColor@ColorScheme@Azuki@Sgry@@$$FQ$AAMXW4CharClass@23@VColor@Drawing@System@@1@Z

; 787  : 				userAnswerArea->ColorScheme->LineNumberFore = Color::Lime;

  000e9	28 00 00 00 00	 call ?get@Lime@Color@Drawing@System@@$$FSM?AV234@XZ
  000ee	0d		 stloc.3 	; $T8
  000ef	02		 ldarg.0 	; this$
  000f0	7b 00 00 00 00	 ldfld ?userAnswerArea@MogiTest@Mogitter@@3P$AAVAzukiControl@WinForms@Azuki@Sgry@@$AA
  000f5	6f 00 00 00 00	 callvirt ?get@ColorScheme@AzukiControl@WinForms@Azuki@Sgry@@$$FU$AAMP$AAV145@XZ
  000fa	09		 ldloc.3 	; $T8
  000fb	7d 00 00 00 00	 stfld ?LineNumberFore@ColorScheme@Azuki@Sgry@@3VColor@Drawing@System@@A

; 788  : 				userAnswerArea->ColorScheme->LineNumberBack = Color::Honeydew;

  00100	28 00 00 00 00	 call ?get@Honeydew@Color@Drawing@System@@$$FSM?AV234@XZ
  00105	0c		 stloc.2 	; $T9
  00106	02		 ldarg.0 	; this$
  00107	7b 00 00 00 00	 ldfld ?userAnswerArea@MogiTest@Mogitter@@3P$AAVAzukiControl@WinForms@Azuki@Sgry@@$AA
  0010c	6f 00 00 00 00	 callvirt ?get@ColorScheme@AzukiControl@WinForms@Azuki@Sgry@@$$FU$AAMP$AAV145@XZ
  00111	08		 ldloc.2 	; $T9
  00112	7d 00 00 00 00	 stfld ?LineNumberBack@ColorScheme@Azuki@Sgry@@3VColor@Drawing@System@@A

; 789  : 
; 790  : 				keikaSec = 0;

  00117	02		 ldarg.0 	; this$
  00118	16		 ldc.i.0 0	; i32 0x0
  00119	7d 00 00 00 00	 stfld ?keikaSec@MogiTest@Mogitter@@3HA

; 791  : 				keikajikan->Start();

  0011e	02		 ldarg.0 	; this$
  0011f	7b 00 00 00 00	 ldfld ?keikajikan@MogiTest@Mogitter@@3P$AAVTimer@Forms@Windows@System@@$AA
  00124	28 00 00 00 00	 call ?Start@Timer@Forms@Windows@System@@$$FQ$AAMXXZ

; 792  : 				 
; 793  : 				 //QNumUpDown->Enabled = false;
; 794  : /*azuki.Resize += delegate {
; 795  :     azuki.ViewWidth = azuki.ClientSize.Width;
; 796  : };*/
; 797  : 			 }

  00129	2a		 ret 
 .end ?MogiTest_Load@MogiTest@Mogitter@@$$FA$AAMXP$AAVObject@System@@P$AAVEventArgs@4@@Z ; Mogitter::MogiTest::MogiTest_Load
;	.proc.end.void
.global	?QNumUpDown@MogiTest@Mogitter@@3P$AAVNumericUpDown@Forms@Windows@System@@$AA ; Mogitter::MogiTest::QNumUpDown
.global	?anaumeGroup@MogiTest@Mogitter@@3P$AAVGroupBox@Forms@Windows@System@@$AA ; Mogitter::MogiTest::anaumeGroup
.global	?sentakuGroup@MogiTest@Mogitter@@3P$AAVGroupBox@Forms@Windows@System@@$AA ; Mogitter::MogiTest::sentakuGroup
.global	?answerStrings@MogiTest@Mogitter@@3P$AAV?$List@P$AAVString@System@@@Generic@Collections@System@@$AA ; Mogitter::MogiTest::answerStrings
.global	?anaumeAnsBox@MogiTest@Mogitter@@3P$AAVRichTextBox@Forms@Windows@System@@$AA ; Mogitter::MogiTest::anaumeAnsBox
	.bss
.local	?QNumUpDown@MogiTest@Mogitter@@3P$AAVNumericUpDown@Forms@Windows@System@@$AA,4 ; Mogitter::MogiTest::QNumUpDown
.local	?anaumeGroup@MogiTest@Mogitter@@3P$AAVGroupBox@Forms@Windows@System@@$AA,4 ; Mogitter::MogiTest::anaumeGroup
.local	?sentakuGroup@MogiTest@Mogitter@@3P$AAVGroupBox@Forms@Windows@System@@$AA,4 ; Mogitter::MogiTest::sentakuGroup
.local	?answerStrings@MogiTest@Mogitter@@3P$AAV?$List@P$AAVString@System@@@Generic@Collections@System@@$AA,4 ; Mogitter::MogiTest::answerStrings
.local	?anaumeAnsBox@MogiTest@Mogitter@@3P$AAVRichTextBox@Forms@Windows@System@@$AA,4 ; Mogitter::MogiTest::anaumeAnsBox
.local	$T1,0
; Function compile flags: /Ogsp
; File f:\meijin4\c++\mogitter\mogitter\mogitest.h
	.text
	.comdat	any, ?anaumeAnsBox_TextChanged@MogiTest@Mogitter@@$$FA$AAMXP$AAVObject@System@@P$AAVEventArgs@4@@Z
.global	?anaumeAnsBox_TextChanged@MogiTest@Mogitter@@$$FA$AAMXP$AAVObject@System@@P$AAVEventArgs@4@@Z ; Mogitter::MogiTest::anaumeAnsBox_TextChanged
?anaumeAnsBox_TextChanged@MogiTest@Mogitter@@$$FA$AAMXP$AAVObject@System@@P$AAVEventArgs@4@@Z: ; Mogitter::MogiTest::anaumeAnsBox_TextChanged
;	.proc.def	D:V(PP)

; Function Header:
; max stack depth = 3
; function size = 188 bytes
; local varsig tk = 0x11000025 
; Exception Information:
; 0 handlers, each consisting of filtered handlers

;	.formal.mptr 0,"this$" SIG: Optional C Binding Modifier(token:0x3D121A5).class (token:0x3D121A8)
;	.local.i4 2,"seleNum$" SIG: i4
;	.local.mptr 1,"buff$2" SIG: string
;	.local.i4 0,"i$3" SIG: i4

;	.proc.beg

; 799  : 				 int seleNum = Decimal::ToInt32(QNumUpDown->Value);

  0000b	02		 ldarg.0 	; this$
  0000c	7b 00 00 00 00	 ldfld ?QNumUpDown@MogiTest@Mogitter@@3P$AAVNumericUpDown@Forms@Windows@System@@$AA
  00011	28 00 00 00 00	 call ?get@Value@NumericUpDown@Forms@Windows@System@@$$FQ$AAM?AVDecimal@5@XZ
  00016	28 00 00 00 00	 call ?ToInt32@Decimal@System@@$$FSMHV12@@Z
  0001b	0c		 stloc.2 	; seleNum$

; 800  : 				 if(seleNum == 0){

  0001c	08		 ldloc.2 	; seleNum$
  0001d	2d 1e		 brtrue.s $LN6@anaumeAnsB

; 801  : 					 anaumeGroup->Enabled = false;

  0001f	02		 ldarg.0 	; this$
  00020	7b 00 00 00 00	 ldfld ?anaumeGroup@MogiTest@Mogitter@@3P$AAVGroupBox@Forms@Windows@System@@$AA
  00025	16		 ldc.i.0 0	; u8 0x0
  00026	28 00 00 00 00	 call ?set@Enabled@Control@Forms@Windows@System@@$$FQ$AAMX_N@Z

; 802  : 					 sentakuGroup->Enabled = false;

  0002b	02		 ldarg.0 	; this$
  0002c	7b 00 00 00 00	 ldfld ?sentakuGroup@MogiTest@Mogitter@@3P$AAVGroupBox@Forms@Windows@System@@$AA
  00031	16		 ldc.i.0 0	; u8 0x0
  00032	28 00 00 00 00	 call ?set@Enabled@Control@Forms@Windows@System@@$$FQ$AAMX_N@Z

; 803  : 				 }else{

  00037	38 8b 00 00 00	 br $LN5@anaumeAnsB
$LN6@anaumeAnsB:

; 804  : 					 if(sentakuGroup->Enabled)

  0003d	02		 ldarg.0 	; this$
  0003e	7b 00 00 00 00	 ldfld ?sentakuGroup@MogiTest@Mogitter@@3P$AAVGroupBox@Forms@Windows@System@@$AA
  00043	28 00 00 00 00	 call ?get@Enabled@Control@Forms@Windows@System@@$$FQ$AAM_NXZ
  00048	3a 7a 00 00 00	 brtrue $LN5@anaumeAnsB

; 805  : 						 return;
; 806  : 					 userAnswerArea->Text = "";

  0004d	02		 ldarg.0 	; this$
  0004e	7b 00 00 00 00	 ldfld ?userAnswerArea@MogiTest@Mogitter@@3P$AAVAzukiControl@WinForms@Azuki@Sgry@@$AA
  00053	72 00 00 00 00	 ldstr $StringLiteralTok$??_C@_11LOCGONAA@?$AA?$AA@
  00058	6f 00 00 00 00	 callvirt ?set@Text@AzukiControl@WinForms@Azuki@Sgry@@$$FU$AAMXP$AAVString@System@@@Z

; 807  : 					 answerStrings[seleNum-1] = anaumeAnsBox->Text;

  0005d	02		 ldarg.0 	; this$
  0005e	7b 00 00 00 00	 ldfld ?answerStrings@MogiTest@Mogitter@@3P$AAV?$List@P$AAVString@System@@@Generic@Collections@System@@$AA
  00063	08		 ldloc.2 	; seleNum$
  00064	17		 ldc.i.1 1	; i32 0x1
  00065	59		 sub 
  00066	02		 ldarg.0 	; this$
  00067	7b 00 00 00 00	 ldfld ?anaumeAnsBox@MogiTest@Mogitter@@3P$AAVRichTextBox@Forms@Windows@System@@$AA
  0006c	6f 00 00 00 00	 callvirt ?get@Text@RichTextBox@Forms@Windows@System@@$$FU$AAMP$AAVString@5@XZ
  00071	6f 00 00 00 00	 callvirt ?set@default@?$List@P$AAVString@System@@@Generic@Collections@System@@$$FU$AAMXHP$AAVString@5@@Z

; 808  : 					 String^ buff = "";

  00076	72 00 00 00 00	 ldstr $StringLiteralTok$??_C@_11LOCGONAA@?$AA?$AA@
  0007b	0b		 stloc.1 	; buff$2

; 809  : 					 for(int i = 0;i<answerStrings->Count;i++){

  0007c	16		 ldc.i.0 0	; i32 0x0
  0007d	0a		 stloc.0 	; i$3
  0007e	16		 ldc.i.0 0	; i32 0x0
  0007f	02		 ldarg.0 	; this$
  00080	7b 00 00 00 00	 ldfld ?answerStrings@MogiTest@Mogitter@@3P$AAV?$List@P$AAVString@System@@@Generic@Collections@System@@$AA
  00085	6f 00 00 00 00	 callvirt ?get@Count@?$List@P$AAVString@System@@@Generic@Collections@System@@$$FU$AAMHXZ
  0008a	2f 2f		 bge.s $LN1@anaumeAnsB
$LL3@anaumeAnsB:

; 810  : 						 buff += answerStrings[i] + "\n";

  0008c	07		 ldloc.1 	; buff$2
  0008d	02		 ldarg.0 	; this$
  0008e	7b 00 00 00 00	 ldfld ?answerStrings@MogiTest@Mogitter@@3P$AAV?$List@P$AAVString@System@@@Generic@Collections@System@@$AA
  00093	06		 ldloc.0 	; i$3
  00094	6f 00 00 00 00	 callvirt ?get@default@?$List@P$AAVString@System@@@Generic@Collections@System@@$$FU$AAMP$AAVString@5@H@Z
  00099	72 00 00 00 00	 ldstr $StringLiteralTok$??_C@_13LBAGMAIH@?$AA?6?$AA?$AA@
  0009e	28 00 00 00 00	 call ?Concat@String@System@@$$FSMP$AAV12@P$AAV12@0@Z
  000a3	28 00 00 00 00	 call ?Concat@String@System@@$$FSMP$AAV12@P$AAV12@0@Z
  000a8	0b		 stloc.1 	; buff$2

; 809  : 					 for(int i = 0;i<answerStrings->Count;i++){

  000a9	06		 ldloc.0 	; i$3
  000aa	17		 ldc.i.1 1	; i32 0x1
  000ab	58		 add 
  000ac	0a		 stloc.0 	; i$3
  000ad	06		 ldloc.0 	; i$3
  000ae	02		 ldarg.0 	; this$
  000af	7b 00 00 00 00	 ldfld ?answerStrings@MogiTest@Mogitter@@3P$AAV?$List@P$AAVString@System@@@Generic@Collections@System@@$AA
  000b4	6f 00 00 00 00	 callvirt ?get@Count@?$List@P$AAVString@System@@@Generic@Collections@System@@$$FU$AAMHXZ
  000b9	32 d1		 blt.s $LL3@anaumeAnsB
$LN1@anaumeAnsB:

; 811  : 					 }
; 812  : 					 userAnswerArea->Text = buff;

  000bb	02		 ldarg.0 	; this$
  000bc	7b 00 00 00 00	 ldfld ?userAnswerArea@MogiTest@Mogitter@@3P$AAVAzukiControl@WinForms@Azuki@Sgry@@$AA
  000c1	07		 ldloc.1 	; buff$2
  000c2	6f 00 00 00 00	 callvirt ?set@Text@AzukiControl@WinForms@Azuki@Sgry@@$$FU$AAMXP$AAVString@System@@@Z
$LN5@anaumeAnsB:

; 813  : 				 }
; 814  : 			 }

  000c7	2a		 ret 
 .end ?anaumeAnsBox_TextChanged@MogiTest@Mogitter@@$$FA$AAMXP$AAVObject@System@@P$AAVEventArgs@4@@Z ; Mogitter::MogiTest::anaumeAnsBox_TextChanged
;	.proc.end.void
.global	?sentakushiCombo@MogiTest@Mogitter@@3P$AAVComboBox@Forms@Windows@System@@$AA ; Mogitter::MogiTest::sentakushiCombo
	.bss
.local	?sentakushiCombo@MogiTest@Mogitter@@3P$AAVComboBox@Forms@Windows@System@@$AA,4 ; Mogitter::MogiTest::sentakushiCombo
.local	$TypeTok$110365EC$,4
.local	$StringLiteralTok$??_C@_1O@HBJEMMOJ@?$AA?$CI?$AAn?$AAo?$AAn?$AAe?$AA?$CJ?$AA?$AA@,4
.local	$T1,0
; Function compile flags: /Ogsp
; File f:\meijin4\c++\mogitter\mogitter\mogitest.h
	.text
	.comdat	any, ?sentakushiCombo_SelectionChangeCommitted@MogiTest@Mogitter@@$$FA$AAMXP$AAVObject@System@@P$AAVEventArgs@4@@Z
.global	?sentakushiCombo_SelectionChangeCommitted@MogiTest@Mogitter@@$$FA$AAMXP$AAVObject@System@@P$AAVEventArgs@4@@Z ; Mogitter::MogiTest::sentakushiCombo_SelectionChangeCommitted
?sentakushiCombo_SelectionChangeCommitted@MogiTest@Mogitter@@$$FA$AAMXP$AAVObject@System@@P$AAVEventArgs@4@@Z: ; Mogitter::MogiTest::sentakushiCombo_SelectionChangeCommitted
;	.proc.def	D:V(PP)

; Function Header:
; max stack depth = 3
; function size = 198 bytes
; local varsig tk = 0x11000026 
; Exception Information:
; 0 handlers, each consisting of filtered handlers

;	.formal.mptr 0,"this$" SIG: Optional C Binding Modifier(token:0x3D121A5).class (token:0x3D121A8)
;	.local.i4 3,"seleNum$" SIG: i4
;	.local.mptr 2,"ansMe$2" SIG: string
;	.local.mptr 1,"buff$3" SIG: string
;	.local.i4 0,"i$4" SIG: i4

;	.proc.beg

; 816  : 				 int seleNum = Decimal::ToInt32(QNumUpDown->Value);

  0000b	02		 ldarg.0 	; this$
  0000c	7b 00 00 00 00	 ldfld ?QNumUpDown@MogiTest@Mogitter@@3P$AAVNumericUpDown@Forms@Windows@System@@$AA
  00011	28 00 00 00 00	 call ?get@Value@NumericUpDown@Forms@Windows@System@@$$FQ$AAM?AVDecimal@5@XZ
  00016	28 00 00 00 00	 call ?ToInt32@Decimal@System@@$$FSMHV12@@Z
  0001b	0d		 stloc.3 	; seleNum$

; 817  : 				 if(seleNum == 0){

  0001c	09		 ldloc.3 	; seleNum$
  0001d	2d 1e		 brtrue.s $LN6@sentakushi

; 818  : 					 anaumeGroup->Enabled = false;

  0001f	02		 ldarg.0 	; this$
  00020	7b 00 00 00 00	 ldfld ?anaumeGroup@MogiTest@Mogitter@@3P$AAVGroupBox@Forms@Windows@System@@$AA
  00025	16		 ldc.i.0 0	; u8 0x0
  00026	28 00 00 00 00	 call ?set@Enabled@Control@Forms@Windows@System@@$$FQ$AAMX_N@Z

; 819  : 					 sentakuGroup->Enabled = false;

  0002b	02		 ldarg.0 	; this$
  0002c	7b 00 00 00 00	 ldfld ?sentakuGroup@MogiTest@Mogitter@@3P$AAVGroupBox@Forms@Windows@System@@$AA
  00031	16		 ldc.i.0 0	; u8 0x0
  00032	28 00 00 00 00	 call ?set@Enabled@Control@Forms@Windows@System@@$$FQ$AAMX_N@Z

; 820  : 				 }else{

  00037	38 95 00 00 00	 br $LN5@sentakushi
$LN6@sentakushi:

; 821  : 					 String^ ansMe = (String^)(sentakushiCombo->SelectedItem);

  0003d	02		 ldarg.0 	; this$
  0003e	7b 00 00 00 00	 ldfld ?sentakushiCombo@MogiTest@Mogitter@@3P$AAVComboBox@Forms@Windows@System@@$AA
  00043	28 00 00 00 00	 call ?get@SelectedItem@ComboBox@Forms@Windows@System@@$$FQ$AAMP$AAVObject@5@XZ
  00048	74 00 00 00 00	 castClass $TypeTok$110365EC$
  0004d	0c		 stloc.2 	; ansMe$2

; 822  : 					 if(ansMe == "(none)")

  0004e	08		 ldloc.2 	; ansMe$2
  0004f	72 00 00 00 00	 ldstr $StringLiteralTok$??_C@_1O@HBJEMMOJ@?$AA?$CI?$AAn?$AAo?$AAn?$AAe?$AA?$CJ?$AA?$AA@
  00054	28 00 00 00 00	 call ??8String@System@@$$FSM_NP$AAV01@0@Z
  00059	2c 06		 brfalse.s $LN4@sentakushi

; 823  : 					 {
; 824  : 						 ansMe = "";

  0005b	72 00 00 00 00	 ldstr $StringLiteralTok$??_C@_11LOCGONAA@?$AA?$AA@
  00060	0c		 stloc.2 	; ansMe$2
$LN4@sentakushi:

; 825  : 					 }
; 826  : 					 userAnswerArea->Text = "";

  00061	02		 ldarg.0 	; this$
  00062	7b 00 00 00 00	 ldfld ?userAnswerArea@MogiTest@Mogitter@@3P$AAVAzukiControl@WinForms@Azuki@Sgry@@$AA
  00067	72 00 00 00 00	 ldstr $StringLiteralTok$??_C@_11LOCGONAA@?$AA?$AA@
  0006c	6f 00 00 00 00	 callvirt ?set@Text@AzukiControl@WinForms@Azuki@Sgry@@$$FU$AAMXP$AAVString@System@@@Z

; 827  : 					 answerStrings[seleNum-1] = ansMe;

  00071	02		 ldarg.0 	; this$
  00072	7b 00 00 00 00	 ldfld ?answerStrings@MogiTest@Mogitter@@3P$AAV?$List@P$AAVString@System@@@Generic@Collections@System@@$AA
  00077	09		 ldloc.3 	; seleNum$
  00078	17		 ldc.i.1 1	; i32 0x1
  00079	59		 sub 
  0007a	08		 ldloc.2 	; ansMe$2
  0007b	6f 00 00 00 00	 callvirt ?set@default@?$List@P$AAVString@System@@@Generic@Collections@System@@$$FU$AAMXHP$AAVString@5@@Z

; 828  : 					 String^ buff = "";

  00080	72 00 00 00 00	 ldstr $StringLiteralTok$??_C@_11LOCGONAA@?$AA?$AA@
  00085	0b		 stloc.1 	; buff$3

; 829  : 					 for(int i = 0;i<answerStrings->Count;i++){

  00086	16		 ldc.i.0 0	; i32 0x0
  00087	0a		 stloc.0 	; i$4
  00088	16		 ldc.i.0 0	; i32 0x0
  00089	02		 ldarg.0 	; this$
  0008a	7b 00 00 00 00	 ldfld ?answerStrings@MogiTest@Mogitter@@3P$AAV?$List@P$AAVString@System@@@Generic@Collections@System@@$AA
  0008f	6f 00 00 00 00	 callvirt ?get@Count@?$List@P$AAVString@System@@@Generic@Collections@System@@$$FU$AAMHXZ
  00094	2f 2f		 bge.s $LN1@sentakushi
$LL3@sentakushi:

; 830  : 						 buff += answerStrings[i] + "\n";

  00096	07		 ldloc.1 	; buff$3
  00097	02		 ldarg.0 	; this$
  00098	7b 00 00 00 00	 ldfld ?answerStrings@MogiTest@Mogitter@@3P$AAV?$List@P$AAVString@System@@@Generic@Collections@System@@$AA
  0009d	06		 ldloc.0 	; i$4
  0009e	6f 00 00 00 00	 callvirt ?get@default@?$List@P$AAVString@System@@@Generic@Collections@System@@$$FU$AAMP$AAVString@5@H@Z
  000a3	72 00 00 00 00	 ldstr $StringLiteralTok$??_C@_13LBAGMAIH@?$AA?6?$AA?$AA@
  000a8	28 00 00 00 00	 call ?Concat@String@System@@$$FSMP$AAV12@P$AAV12@0@Z
  000ad	28 00 00 00 00	 call ?Concat@String@System@@$$FSMP$AAV12@P$AAV12@0@Z
  000b2	0b		 stloc.1 	; buff$3

; 829  : 					 for(int i = 0;i<answerStrings->Count;i++){

  000b3	06		 ldloc.0 	; i$4
  000b4	17		 ldc.i.1 1	; i32 0x1
  000b5	58		 add 
  000b6	0a		 stloc.0 	; i$4
  000b7	06		 ldloc.0 	; i$4
  000b8	02		 ldarg.0 	; this$
  000b9	7b 00 00 00 00	 ldfld ?answerStrings@MogiTest@Mogitter@@3P$AAV?$List@P$AAVString@System@@@Generic@Collections@System@@$AA
  000be	6f 00 00 00 00	 callvirt ?get@Count@?$List@P$AAVString@System@@@Generic@Collections@System@@$$FU$AAMHXZ
  000c3	32 d1		 blt.s $LL3@sentakushi
$LN1@sentakushi:

; 831  : 					 }
; 832  : 					 userAnswerArea->Text = buff;

  000c5	02		 ldarg.0 	; this$
  000c6	7b 00 00 00 00	 ldfld ?userAnswerArea@MogiTest@Mogitter@@3P$AAVAzukiControl@WinForms@Azuki@Sgry@@$AA
  000cb	07		 ldloc.1 	; buff$3
  000cc	6f 00 00 00 00	 callvirt ?set@Text@AzukiControl@WinForms@Azuki@Sgry@@$$FU$AAMXP$AAVString@System@@@Z
$LN5@sentakushi:

; 833  : 				 }
; 834  : 			 }

  000d1	2a		 ret 
 .end ?sentakushiCombo_SelectionChangeCommitted@MogiTest@Mogitter@@$$FA$AAMXP$AAVObject@System@@P$AAVEventArgs@4@@Z ; Mogitter::MogiTest::sentakushiCombo_SelectionChangeCommitted
;	.proc.end.void
.global	
	.bss
.local	,4
.local	$T1,0
; Function compile flags: /Ogsp
; File f:\meijin4\c++\mogitter\mogitter\mogitest.h
	.text
	.comdat	any, ?getLineText@MogiTest@Mogitter@@$$FA$AAMP$AAVString@System@@P$AAVAzukiControl@WinForms@Azuki@Sgry@@H@Z
.global	?getLineText@MogiTest@Mogitter@@$$FA$AAMP$AAVString@System@@P$AAVAzukiControl@WinForms@Azuki@Sgry@@H@Z ; Mogitter::MogiTest::getLineText
?getLineText@MogiTest@Mogitter@@$$FA$AAMP$AAVString@System@@P$AAVAzukiControl@WinForms@Azuki@Sgry@@H@Z: ; Mogitter::MogiTest::getLineText
;	.proc.def	D:P(PI)

; Function Header:
; max stack depth = 4
; function size = 30 bytes
; local varsig tk = 0x11000028 
; Exception Information:
; 0 handlers, each consisting of filtered handlers

;	.formal.i4 2,"lineNum$" SIG: i4
;	.formal.mptr 1,"azuki$" SIG: class (token:0x3D7DA5D)
;	.local.i4 0,"$T2" SIG: i4

;	.proc.beg

; 836  : 				 return azuki->Text->Substring(azuki->GetLineHeadIndex(lineNum-1),azuki->GetLineLength(lineNum-1));

  0000b	04		 ldarg.2 	; lineNum$
  0000c	17		 ldc.i.1 1	; i32 0x1
  0000d	59		 sub 
  0000e	0a		 stloc.0 	; $T2
  0000f	03		 ldarg.1 	; azuki$
  00010	6f 00 00 00 00	 callvirt ?get@Text@AzukiControl@WinForms@Azuki@Sgry@@$$FU$AAMP$AAVString@System@@XZ
  00015	03		 ldarg.1 	; azuki$
  00016	06		 ldloc.0 	; $T2
  00017	6f 00 00 00 00	 callvirt ?GetLineHeadIndex@AzukiControl@WinForms@Azuki@Sgry@@$$FU$AAMHH@Z
  0001c	03		 ldarg.1 	; azuki$
  0001d	06		 ldloc.0 	; $T2
  0001e	6f 00 00 00 00	 callvirt ?GetLineLength@AzukiControl@WinForms@Azuki@Sgry@@$$FU$AAMHH@Z
  00023	28 00 00 00 00	 call ?Substring@String@System@@$$FQ$AAMP$AAV12@HH@Z
  00028	2a		 ret 
 .end ?getLineText@MogiTest@Mogitter@@$$FA$AAMP$AAVString@System@@P$AAVAzukiControl@WinForms@Azuki@Sgry@@H@Z ; Mogitter::MogiTest::getLineText
;	.proc.end.mptr
.global	?questStrings@MogiTest@Mogitter@@3P$AAV?$List@P$AAVString@System@@@Generic@Collections@System@@$AA ; Mogitter::MogiTest::questStrings
	.bss
.local	?questStrings@MogiTest@Mogitter@@3P$AAV?$List@P$AAVString@System@@@Generic@Collections@System@@$AA,4 ; Mogitter::MogiTest::questStrings
.local	$T1,0
; Function compile flags: /Ogsp
; File f:\meijin4\c++\mogitter\mogitter\mogitest.h
	.text
	.comdat	any, ?qnumDoing@MogiTest@Mogitter@@$$FA$AAMXXZ
.global	?qnumDoing@MogiTest@Mogitter@@$$FA$AAMXXZ	; Mogitter::MogiTest::qnumDoing
?qnumDoing@MogiTest@Mogitter@@$$FA$AAMXXZ:		; Mogitter::MogiTest::qnumDoing
;	.proc.def	D:V()

; Function Header:
; max stack depth = 4
; function size = 463 bytes
; local varsig tk = 0x11000029 
; Exception Information:
; 0 handlers, each consisting of filtered handlers

;	.formal.mptr 0,"this$" SIG: Optional C Binding Modifier(token:0x3D121A5).class (token:0x3D121A8)
;	.local.i4 3,"seleNum$" SIG: i4
;	.local.mptr 2,"spliters$2" SIG: szarray (token:0x3D1C00D)
;	.local.mptr 6,"splStrs$3" SIG: szarray (token:0x3D1E3B5)
;	.local.mptr 4,"items$4" SIG: szarray (token:0x3D1E3B5)
;	.local.i4 1,"$I$5" SIG: i4
;	.local.mptr 0,"item$6" SIG: string
;	.local.mptr 5,"alreadyAns$7" SIG: string

;	.proc.beg

; 846  : 				  int seleNum = Decimal::ToInt32(QNumUpDown->Value);

  0000b	02		 ldarg.0 	; this$
  0000c	7b 00 00 00 00	 ldfld ?QNumUpDown@MogiTest@Mogitter@@3P$AAVNumericUpDown@Forms@Windows@System@@$AA
  00011	28 00 00 00 00	 call ?get@Value@NumericUpDown@Forms@Windows@System@@$$FQ$AAM?AVDecimal@5@XZ
  00016	28 00 00 00 00	 call ?ToInt32@Decimal@System@@$$FSMHV12@@Z
  0001b	0d		 stloc.3 	; seleNum$

; 847  : 				 if(seleNum == 0){

  0001c	09		 ldloc.3 	; seleNum$
  0001d	2d 1e		 brtrue.s $LN10@qnumDoing

; 848  : 					 anaumeGroup->Enabled = false;

  0001f	02		 ldarg.0 	; this$
  00020	7b 00 00 00 00	 ldfld ?anaumeGroup@MogiTest@Mogitter@@3P$AAVGroupBox@Forms@Windows@System@@$AA
  00025	16		 ldc.i.0 0	; u8 0x0
  00026	28 00 00 00 00	 call ?set@Enabled@Control@Forms@Windows@System@@$$FQ$AAMX_N@Z

; 849  : 					 sentakuGroup->Enabled = false;

  0002b	02		 ldarg.0 	; this$
  0002c	7b 00 00 00 00	 ldfld ?sentakuGroup@MogiTest@Mogitter@@3P$AAVGroupBox@Forms@Windows@System@@$AA
  00031	16		 ldc.i.0 0	; u8 0x0
  00032	28 00 00 00 00	 call ?set@Enabled@Control@Forms@Windows@System@@$$FQ$AAMX_N@Z

; 850  : 				 }else{

  00037	38 9e 01 00 00	 br $LN1@qnumDoing
$LN10@qnumDoing:

; 851  : 					 String^ seleCombo = escapeSet(questStrings[seleNum-1]);

  0003d	02		 ldarg.0 	; this$
  0003e	7b 00 00 00 00	 ldfld ?questStrings@MogiTest@Mogitter@@3P$AAV?$List@P$AAVString@System@@@Generic@Collections@System@@$AA
  00043	09		 ldloc.3 	; seleNum$
  00044	17		 ldc.i.1 1	; i32 0x1
  00045	59		 sub 
  00046	6f 00 00 00 00	 callvirt ?get@default@?$List@P$AAVString@System@@@Generic@Collections@System@@$$FU$AAMP$AAVString@5@H@Z
  0004b	28 00 00 00 00	 call ?escapeSet@MogiTest@Mogitter@@$$FSMP$AAVString@System@@P$AAV34@@Z

; 852  : 					 array<wchar_t> ^spliters={','};

  00050	17		 ldc.i.1 1	; i32 0x1
  00051	8d 00 00 00 00	 newarr $TypeTok$11003218$
  00056	0c		 stloc.2 	; spliters$2
  00057	08		 ldloc.2 	; spliters$2
  00058	16		 ldc.i.0 0	; i32 0x0
  00059	8f 00 00 00 00	 ldelema $va_argTok$_W
  0005e	1f 2c		 ldc.i4.s 44	; u16 0x2c
  00060	53		 stind.i2 

; 853  : 					 array<String^>^ splStrs = seleCombo->Split(spliters);

  00061	08		 ldloc.2 	; spliters$2
  00062	28 00 00 00 00	 call ?Split@String@System@@$$FQ$AAMP$01AP$AAV12@P$01A_W@Z
  00067	13 06		 stloc.s 6	; splStrs$3

; 854  : 			 //書式："1,(answer)"
; 855  : 			 //書式："4,(ansNum),aaa:bbb:ccc:ddd"
; 856  : 					 if(splStrs->Length>2){

  00069	11 06		 ldloc.s 6	; splStrs$3
  0006b	8e		 ldlen 
  0006c	18		 ldc.i.2 2	; i32 0x2
  0006d	3e e6 00 00 00	 ble $LN8@qnumDoing

; 857  : 						 anaumeGroup->Enabled = false;

  00072	02		 ldarg.0 	; this$
  00073	7b 00 00 00 00	 ldfld ?anaumeGroup@MogiTest@Mogitter@@3P$AAVGroupBox@Forms@Windows@System@@$AA
  00078	16		 ldc.i.0 0	; u8 0x0
  00079	28 00 00 00 00	 call ?set@Enabled@Control@Forms@Windows@System@@$$FQ$AAMX_N@Z

; 858  : 						 sentakuGroup->Enabled = true;

  0007e	02		 ldarg.0 	; this$
  0007f	7b 00 00 00 00	 ldfld ?sentakuGroup@MogiTest@Mogitter@@3P$AAVGroupBox@Forms@Windows@System@@$AA
  00084	17		 ldc.i.1 1	; u8 0x1
  00085	28 00 00 00 00	 call ?set@Enabled@Control@Forms@Windows@System@@$$FQ$AAMX_N@Z

; 859  : 						 anaumeAnsBox->Text = "";//?????						 

  0008a	02		 ldarg.0 	; this$
  0008b	7b 00 00 00 00	 ldfld ?anaumeAnsBox@MogiTest@Mogitter@@3P$AAVRichTextBox@Forms@Windows@System@@$AA
  00090	72 00 00 00 00	 ldstr $StringLiteralTok$??_C@_11LOCGONAA@?$AA?$AA@
  00095	6f 00 00 00 00	 callvirt ?set@Text@RichTextBox@Forms@Windows@System@@$$FU$AAMXP$AAVString@5@@Z

; 860  : 						 spliters[0] = ':';

  0009a	08		 ldloc.2 	; spliters$2
  0009b	16		 ldc.i.0 0	; i32 0x0
  0009c	8f 00 00 00 00	 ldelema $va_argTok$_W
  000a1	1f 3a		 ldc.i4.s 58	; u16 0x3a
  000a3	53		 stind.i2 

; 861  : 						 array<String^>^ items = splStrs[2]->Split(spliters);

  000a4	11 06		 ldloc.s 6	; splStrs$3
  000a6	18		 ldc.i.2 2	; i32 0x2
  000a7	9a		 ldelem.ref 
  000a8	08		 ldloc.2 	; spliters$2
  000a9	28 00 00 00 00	 call ?Split@String@System@@$$FQ$AAMP$01AP$AAV12@P$01A_W@Z
  000ae	13 04		 stloc.s 4	; items$4

; 862  : 						 sentakushiCombo->Items->Clear();

  000b0	02		 ldarg.0 	; this$
  000b1	7b 00 00 00 00	 ldfld ?sentakushiCombo@MogiTest@Mogitter@@3P$AAVComboBox@Forms@Windows@System@@$AA
  000b6	28 00 00 00 00	 call ?get@Items@ComboBox@Forms@Windows@System@@$$FQ$AAMP$AAVObjectCollection@2345@XZ
  000bb	6f 00 00 00 00	 callvirt ?Clear@ObjectCollection@ComboBox@Forms@Windows@System@@$$FU$AAMXXZ

; 863  : 						 sentakushiCombo->Items->Add("(none)");

  000c0	02		 ldarg.0 	; this$
  000c1	7b 00 00 00 00	 ldfld ?sentakushiCombo@MogiTest@Mogitter@@3P$AAVComboBox@Forms@Windows@System@@$AA
  000c6	28 00 00 00 00	 call ?get@Items@ComboBox@Forms@Windows@System@@$$FQ$AAMP$AAVObjectCollection@2345@XZ
  000cb	72 00 00 00 00	 ldstr $StringLiteralTok$??_C@_1O@HBJEMMOJ@?$AA?$CI?$AAn?$AAo?$AAn?$AAe?$AA?$CJ?$AA?$AA@
  000d0	28 00 00 00 00	 call ?Add@ObjectCollection@ComboBox@Forms@Windows@System@@$$FQ$AAMHP$AAVObject@5@@Z
  000d5	26		 pop 

; 864  : 						 for each(String^ item in items){

  000d6	16		 ldc.i.0 0	; i32 0x0
  000d7	0b		 stloc.1 	; $I$5
  000d8	16		 ldc.i.0 0	; i32 0x0
  000d9	11 04		 ldloc.s 4	; items$4
  000db	8e		 ldlen 
  000dc	2f 31		 bge.s $LN5@qnumDoing
$LL7@qnumDoing:
  000de	11 04		 ldloc.s 4	; items$4
  000e0	07		 ldloc.1 	; $I$5
  000e1	9a		 ldelem.ref 
  000e2	0a		 stloc.0 	; item$6

; 865  : 							 item = escapeReSet(item);

  000e3	06		 ldloc.0 	; item$6
  000e4	28 00 00 00 00	 call ?escapeReSet@MogiTest@Mogitter@@$$FSMP$AAVString@System@@P$AAV34@@Z
  000e9	0a		 stloc.0 	; item$6

; 866  : 							 if(item->Length>0)

  000ea	06		 ldloc.0 	; item$6
  000eb	28 00 00 00 00	 call ?get@Length@String@System@@$$FQ$AAMHXZ
  000f0	16		 ldc.i.0 0	; i32 0x0
  000f1	31 12		 ble.s $LN6@qnumDoing

; 867  : 								 sentakushiCombo->Items->Add(item);

  000f3	02		 ldarg.0 	; this$
  000f4	7b 00 00 00 00	 ldfld ?sentakushiCombo@MogiTest@Mogitter@@3P$AAVComboBox@Forms@Windows@System@@$AA
  000f9	28 00 00 00 00	 call ?get@Items@ComboBox@Forms@Windows@System@@$$FQ$AAMP$AAVObjectCollection@2345@XZ
  000fe	06		 ldloc.0 	; item$6
  000ff	28 00 00 00 00	 call ?Add@ObjectCollection@ComboBox@Forms@Windows@System@@$$FQ$AAMHP$AAVObject@5@@Z
  00104	26		 pop 
$LN6@qnumDoing:

; 864  : 						 for each(String^ item in items){

  00105	07		 ldloc.1 	; $I$5
  00106	17		 ldc.i.1 1	; i32 0x1
  00107	58		 add 
  00108	0b		 stloc.1 	; $I$5
  00109	07		 ldloc.1 	; $I$5
  0010a	11 04		 ldloc.s 4	; items$4
  0010c	8e		 ldlen 
  0010d	32 cf		 blt.s $LL7@qnumDoing
$LN5@qnumDoing:

; 868  : 						 }
; 869  : 						 String^ alreadyAns = getLineText(userAnswerArea,seleNum)->Trim();

  0010f	02		 ldarg.0 	; this$
  00110	25		 dup 
  00111	7b 00 00 00 00	 ldfld ?userAnswerArea@MogiTest@Mogitter@@3P$AAVAzukiControl@WinForms@Azuki@Sgry@@$AA
  00116	09		 ldloc.3 	; seleNum$
  00117	28 00 00 00 00	 call ?getLineText@MogiTest@Mogitter@@$$FA$AAMP$AAVString@System@@P$AAVAzukiControl@WinForms@Azuki@Sgry@@H@Z
  0011c	28 00 00 00 00	 call ?Trim@String@System@@$$FQ$AAMP$AAV12@XZ
  00121	13 05		 stloc.s 5	; alreadyAns$7

; 870  : 						 if(alreadyAns->Length == 0)

  00123	11 05		 ldloc.s 5	; alreadyAns$7
  00125	28 00 00 00 00	 call ?get@Length@String@System@@$$FQ$AAMHXZ
  0012a	2d 0e		 brtrue.s $LN3@qnumDoing

; 871  : 							 sentakushiCombo->SelectedIndex = 0;

  0012c	02		 ldarg.0 	; this$
  0012d	7b 00 00 00 00	 ldfld ?sentakushiCombo@MogiTest@Mogitter@@3P$AAVComboBox@Forms@Windows@System@@$AA
  00132	16		 ldc.i.0 0	; i32 0x0
  00133	6f 00 00 00 00	 callvirt ?set@SelectedIndex@ComboBox@Forms@Windows@System@@$$FU$AAMXH@Z

; 872  : 						 else

  00138	2b 0d		 br.s $LN2@qnumDoing
$LN3@qnumDoing:

; 873  : 							 sentakushiCombo->SelectedItem = alreadyAns;

  0013a	02		 ldarg.0 	; this$
  0013b	7b 00 00 00 00	 ldfld ?sentakushiCombo@MogiTest@Mogitter@@3P$AAVComboBox@Forms@Windows@System@@$AA
  00140	11 05		 ldloc.s 5	; alreadyAns$7
  00142	28 00 00 00 00	 call ?set@SelectedItem@ComboBox@Forms@Windows@System@@$$FQ$AAMXP$AAVObject@5@@Z
$LN2@qnumDoing:

; 874  : 						 sentakushiCombo->Focus();

  00147	02		 ldarg.0 	; this$
  00148	7b 00 00 00 00	 ldfld ?sentakushiCombo@MogiTest@Mogitter@@3P$AAVComboBox@Forms@Windows@System@@$AA
  0014d	28 00 00 00 00	 call ?Focus@Control@Forms@Windows@System@@$$FQ$AAM_NXZ
  00152	26		 pop 

; 875  : 					 }else{

  00153	38 82 00 00 00	 br $LN1@qnumDoing
$LN8@qnumDoing:

; 876  : 						 sentakushiCombo->Items->Clear();

  00158	02		 ldarg.0 	; this$
  00159	7b 00 00 00 00	 ldfld ?sentakushiCombo@MogiTest@Mogitter@@3P$AAVComboBox@Forms@Windows@System@@$AA
  0015e	28 00 00 00 00	 call ?get@Items@ComboBox@Forms@Windows@System@@$$FQ$AAMP$AAVObjectCollection@2345@XZ
  00163	6f 00 00 00 00	 callvirt ?Clear@ObjectCollection@ComboBox@Forms@Windows@System@@$$FU$AAMXXZ

; 877  : 
; 878  : 						 sentakuGroup->Enabled = false;

  00168	02		 ldarg.0 	; this$
  00169	7b 00 00 00 00	 ldfld ?sentakuGroup@MogiTest@Mogitter@@3P$AAVGroupBox@Forms@Windows@System@@$AA
  0016e	16		 ldc.i.0 0	; u8 0x0
  0016f	28 00 00 00 00	 call ?set@Enabled@Control@Forms@Windows@System@@$$FQ$AAMX_N@Z

; 879  : 						 anaumeGroup->Enabled = true;

  00174	02		 ldarg.0 	; this$
  00175	7b 00 00 00 00	 ldfld ?anaumeGroup@MogiTest@Mogitter@@3P$AAVGroupBox@Forms@Windows@System@@$AA
  0017a	17		 ldc.i.1 1	; u8 0x1
  0017b	28 00 00 00 00	 call ?set@Enabled@Control@Forms@Windows@System@@$$FQ$AAMX_N@Z

; 880  : 						 anaumeAnsBox->Text = getLineText(userAnswerArea,seleNum)->Trim();

  00180	02		 ldarg.0 	; this$
  00181	7b 00 00 00 00	 ldfld ?anaumeAnsBox@MogiTest@Mogitter@@3P$AAVRichTextBox@Forms@Windows@System@@$AA
  00186	02		 ldarg.0 	; this$
  00187	25		 dup 
  00188	7b 00 00 00 00	 ldfld ?userAnswerArea@MogiTest@Mogitter@@3P$AAVAzukiControl@WinForms@Azuki@Sgry@@$AA
  0018d	09		 ldloc.3 	; seleNum$
  0018e	28 00 00 00 00	 call ?getLineText@MogiTest@Mogitter@@$$FA$AAMP$AAVString@System@@P$AAVAzukiControl@WinForms@Azuki@Sgry@@H@Z
  00193	28 00 00 00 00	 call ?Trim@String@System@@$$FQ$AAMP$AAV12@XZ
  00198	6f 00 00 00 00	 callvirt ?set@Text@RichTextBox@Forms@Windows@System@@$$FU$AAMXP$AAVString@5@@Z

; 881  : 						 anaumeAnsBox->SelectAll();

  0019d	02		 ldarg.0 	; this$
  0019e	7b 00 00 00 00	 ldfld ?anaumeAnsBox@MogiTest@Mogitter@@3P$AAVRichTextBox@Forms@Windows@System@@$AA
  001a3	28 00 00 00 00	 call ?SelectAll@TextBoxBase@Forms@Windows@System@@$$FQ$AAMXXZ

; 882  : //						 if(anaumeAnsBox->Text->Trim()->Length == 0)
; 883  : //							 anaumeAnsBox->Text = "";
; 884  : 						 sentakushiCombo->Items->Clear();

  001a8	02		 ldarg.0 	; this$
  001a9	7b 00 00 00 00	 ldfld ?sentakushiCombo@MogiTest@Mogitter@@3P$AAVComboBox@Forms@Windows@System@@$AA
  001ae	28 00 00 00 00	 call ?get@Items@ComboBox@Forms@Windows@System@@$$FQ$AAMP$AAVObjectCollection@2345@XZ
  001b3	6f 00 00 00 00	 callvirt ?Clear@ObjectCollection@ComboBox@Forms@Windows@System@@$$FU$AAMXXZ

; 885  : 						 sentakushiCombo->Items->Add("(none)");

  001b8	02		 ldarg.0 	; this$
  001b9	7b 00 00 00 00	 ldfld ?sentakushiCombo@MogiTest@Mogitter@@3P$AAVComboBox@Forms@Windows@System@@$AA
  001be	28 00 00 00 00	 call ?get@Items@ComboBox@Forms@Windows@System@@$$FQ$AAMP$AAVObjectCollection@2345@XZ
  001c3	72 00 00 00 00	 ldstr $StringLiteralTok$??_C@_1O@HBJEMMOJ@?$AA?$CI?$AAn?$AAo?$AAn?$AAe?$AA?$CJ?$AA?$AA@
  001c8	28 00 00 00 00	 call ?Add@ObjectCollection@ComboBox@Forms@Windows@System@@$$FQ$AAMHP$AAVObject@5@@Z
  001cd	26		 pop 

; 886  : 						 anaumeAnsBox->Focus();

  001ce	02		 ldarg.0 	; this$
  001cf	7b 00 00 00 00	 ldfld ?anaumeAnsBox@MogiTest@Mogitter@@3P$AAVRichTextBox@Forms@Windows@System@@$AA
  001d4	28 00 00 00 00	 call ?Focus@Control@Forms@Windows@System@@$$FQ$AAM_NXZ
  001d9	26		 pop 
$LN1@qnumDoing:

; 887  : 					 }
; 888  : 				 }
; 889  : 			 }

  001da	2a		 ret 
 .end ?qnumDoing@MogiTest@Mogitter@@$$FA$AAMXXZ		; Mogitter::MogiTest::qnumDoing
;	.proc.end.void
.global	?score@MogiTest@Mogitter@@3HA			; Mogitter::MogiTest::score
.global	?collects@MogiTest@Mogitter@@3P$01AP$AAVString@System@@A ; Mogitter::MogiTest::collects
.global	?qCountField@MogiTest@Mogitter@@3HA		; Mogitter::MogiTest::qCountField
.global	?countUp@MogiTest@Mogitter@@3HA			; Mogitter::MogiTest::countUp
.global	?timer1@MogiTest@Mogitter@@3P$AAVTimer@Forms@Windows@System@@$AA ; Mogitter::MogiTest::timer1
	.bss
.local	?score@MogiTest@Mogitter@@3HA,4			; Mogitter::MogiTest::score
.local	?collects@MogiTest@Mogitter@@3P$01AP$AAVString@System@@A,4 ; Mogitter::MogiTest::collects
.local	?qCountField@MogiTest@Mogitter@@3HA,4		; Mogitter::MogiTest::qCountField
.local	?countUp@MogiTest@Mogitter@@3HA,4		; Mogitter::MogiTest::countUp
.local	$StringLiteralTok$??_C@_13HOIJIPNN@?$AA?5?$AA?$AA@,4
.local	?timer1@MogiTest@Mogitter@@3P$AAVTimer@Forms@Windows@System@@$AA,4 ; Mogitter::MogiTest::timer1
.local	$T1,0
; Function compile flags: /Ogsp
; File f:\meijin4\c++\mogitter\mogitter\mogitest.h
	.text
	.comdat	any, ?marking@MogiTest@Mogitter@@$$FA$AAMXXZ
.global	?marking@MogiTest@Mogitter@@$$FA$AAMXXZ		; Mogitter::MogiTest::marking
?marking@MogiTest@Mogitter@@$$FA$AAMXXZ:		; Mogitter::MogiTest::marking
;	.proc.def	D:V()

; Function Header:
; max stack depth = 6
; function size = 337 bytes
; local varsig tk = 0x1100002A 
; Exception Information:
; 0 handlers, each consisting of filtered handlers

;	.formal.mptr 0,"this$" SIG: Optional C Binding Modifier(token:0x3D121A5).class (token:0x3D121A8)
;	.local.i4 3,"qCount$" SIG: i4
;	.local.i4 0,"i$2" SIG: i4
;	.local.mptr 5,"ans$3" SIG: string
;	.local.mptr 7,"spliters$4" SIG: szarray (token:0x3D1C00D)
;	.local.mptr 2,"kugirin$5" SIG: szarray (token:0x3D1E3B5)
;	.local.mptr 6,"spliters2$6" SIG: szarray (token:0x3D1C00D)
;	.local.i4 1,"i$7" SIG: i4
;	.local.mptr 4,"colKwd$8" SIG: szarray (token:0x3D1E3B5)

;	.proc.beg

; 898  : 				 score = 0;

  0000b	02		 ldarg.0 	; this$
  0000c	16		 ldc.i.0 0	; i32 0x0
  0000d	7d 00 00 00 00	 stfld ?score@MogiTest@Mogitter@@3HA

; 899  : 				 int qCount = questStrings->Count;

  00012	02		 ldarg.0 	; this$
  00013	7b 00 00 00 00	 ldfld ?questStrings@MogiTest@Mogitter@@3P$AAV?$List@P$AAVString@System@@@Generic@Collections@System@@$AA
  00018	6f 00 00 00 00	 callvirt ?get@Count@?$List@P$AAVString@System@@@Generic@Collections@System@@$$FU$AAMHXZ
  0001d	0d		 stloc.3 	; qCount$

; 900  : 				 collects = gcnew array<String^>(qCount);

  0001e	02		 ldarg.0 	; this$
  0001f	09		 ldloc.3 	; qCount$
  00020	8d 00 00 00 00	 newarr $TypeTok$110E9D94$
  00025	7d 00 00 00 00	 stfld ?collects@MogiTest@Mogitter@@3P$01AP$AAVString@System@@A

; 901  : 				 for(int i=0;i<qCount;i++){

  0002a	16		 ldc.i.0 0	; i32 0x0
  0002b	0a		 stloc.0 	; i$2
  0002c	16		 ldc.i.0 0	; i32 0x0
  0002d	09		 ldloc.3 	; qCount$
  0002e	3c 87 00 00 00	 bge $LN6@marking
$LL8@marking:

; 902  : 					 String ^ans="";
; 903  : 					 array<wchar_t> ^spliters = {','};

  00034	17		 ldc.i.1 1	; i32 0x1
  00035	8d 00 00 00 00	 newarr $TypeTok$11003218$
  0003a	13 07		 stloc.s 7	; spliters$4
  0003c	11 07		 ldloc.s 7	; spliters$4
  0003e	16		 ldc.i.0 0	; i32 0x0
  0003f	8f 00 00 00 00	 ldelema $va_argTok$_W
  00044	1f 2c		 ldc.i4.s 44	; u16 0x2c
  00046	53		 stind.i2 

; 904  : 					 array<String^>^ kugirin = escapeSet(questStrings[i])->Split(spliters);

  00047	02		 ldarg.0 	; this$
  00048	7b 00 00 00 00	 ldfld ?questStrings@MogiTest@Mogitter@@3P$AAV?$List@P$AAVString@System@@@Generic@Collections@System@@$AA
  0004d	06		 ldloc.0 	; i$2
  0004e	6f 00 00 00 00	 callvirt ?get@default@?$List@P$AAVString@System@@@Generic@Collections@System@@$$FU$AAMP$AAVString@5@H@Z
  00053	28 00 00 00 00	 call ?escapeSet@MogiTest@Mogitter@@$$FSMP$AAVString@System@@P$AAV34@@Z
  00058	11 07		 ldloc.s 7	; spliters$4
  0005a	28 00 00 00 00	 call ?Split@String@System@@$$FQ$AAMP$01AP$AAV12@P$01A_W@Z
  0005f	0c		 stloc.2 	; kugirin$5

; 905  : 					 if(kugirin->Length > 2){//選択問題

  00060	08		 ldloc.2 	; kugirin$5
  00061	8e		 ldlen 
  00062	18		 ldc.i.2 2	; i32 0x2
  00063	31 36		 ble.s $LN5@marking

; 906  : 						 array<wchar_t> ^spliters2 = {':'};

  00065	17		 ldc.i.1 1	; i32 0x1
  00066	8d 00 00 00 00	 newarr $TypeTok$11003218$
  0006b	13 06		 stloc.s 6	; spliters2$6
  0006d	11 06		 ldloc.s 6	; spliters2$6
  0006f	16		 ldc.i.0 0	; i32 0x0
  00070	8f 00 00 00 00	 ldelema $va_argTok$_W
  00075	1f 3a		 ldc.i4.s 58	; u16 0x3a
  00077	53		 stind.i2 

; 907  : 						 array<String^>^ items = escapeReSet(kugirin[2])->Split(spliters2);

  00078	08		 ldloc.2 	; kugirin$5
  00079	18		 ldc.i.2 2	; i32 0x2
  0007a	9a		 ldelem.ref 
  0007b	28 00 00 00 00	 call ?escapeReSet@MogiTest@Mogitter@@$$FSMP$AAVString@System@@P$AAV34@@Z
  00080	11 06		 ldloc.s 6	; spliters2$6
  00082	28 00 00 00 00	 call ?Split@String@System@@$$FQ$AAMP$01AP$AAV12@P$01A_W@Z

; 908  : 						 ans = items[int::Parse(escapeReSet(kugirin[1]))-1];

  00087	08		 ldloc.2 	; kugirin$5
  00088	17		 ldc.i.1 1	; i32 0x1
  00089	9a		 ldelem.ref 
  0008a	28 00 00 00 00	 call ?escapeReSet@MogiTest@Mogitter@@$$FSMP$AAVString@System@@P$AAV34@@Z
  0008f	28 00 00 00 00	 call ?Parse@Int32@System@@$$FSMHP$AAVString@2@@Z
  00094	17		 ldc.i.1 1	; i32 0x1
  00095	59		 sub 
  00096	9a		 ldelem.ref 
  00097	13 05		 stloc.s 5	; ans$3

; 909  : 					 }else{

  00099	2b 0a		 br.s $LN4@marking
$LN5@marking:

; 910  : 						 ans = escapeReSet(kugirin[1]);

  0009b	08		 ldloc.2 	; kugirin$5
  0009c	17		 ldc.i.1 1	; i32 0x1
  0009d	9a		 ldelem.ref 
  0009e	28 00 00 00 00	 call ?escapeReSet@MogiTest@Mogitter@@$$FSMP$AAVString@System@@P$AAV34@@Z
  000a3	13 05		 stloc.s 5	; ans$3
$LN4@marking:

; 911  : 					 }
; 912  : 					 collects[i] = ans;

  000a5	02		 ldarg.0 	; this$
  000a6	7b 00 00 00 00	 ldfld ?collects@MogiTest@Mogitter@@3P$01AP$AAVString@System@@A
  000ab	06		 ldloc.0 	; i$2
  000ac	11 05		 ldloc.s 5	; ans$3
  000ae	a2		 stelem.ref 

; 901  : 				 for(int i=0;i<qCount;i++){

  000af	06		 ldloc.0 	; i$2
  000b0	17		 ldc.i.1 1	; i32 0x1
  000b1	58		 add 
  000b2	0a		 stloc.0 	; i$2
  000b3	06		 ldloc.0 	; i$2
  000b4	09		 ldloc.3 	; qCount$
  000b5	3f 7a ff ff ff	 blt $LL8@marking
$LN6@marking:

; 913  : 				 }
; 914  : 				 qCountField = qCount;

  000ba	02		 ldarg.0 	; this$
  000bb	09		 ldloc.3 	; qCount$
  000bc	7d 00 00 00 00	 stfld ?qCountField@MogiTest@Mogitter@@3HA

; 915  : 				 countUp = 0;

  000c1	02		 ldarg.0 	; this$
  000c2	16		 ldc.i.0 0	; i32 0x0
  000c3	7d 00 00 00 00	 stfld ?countUp@MogiTest@Mogitter@@3HA

; 916  : 				 userAnswerArea->Font = (gcnew System::Drawing::Font(userAnswerArea->Font->FontFamily, userAnswerArea->Font->Size, FontStyle::Bold, System::Drawing::GraphicsUnit::Point, 
; 917  : 				static_cast<System::Byte>(128)));

  000c8	02		 ldarg.0 	; this$
  000c9	7b 00 00 00 00	 ldfld ?userAnswerArea@MogiTest@Mogitter@@3P$AAVAzukiControl@WinForms@Azuki@Sgry@@$AA
  000ce	02		 ldarg.0 	; this$
  000cf	7b 00 00 00 00	 ldfld ?userAnswerArea@MogiTest@Mogitter@@3P$AAVAzukiControl@WinForms@Azuki@Sgry@@$AA
  000d4	6f 00 00 00 00	 callvirt ?get@Font@AzukiControl@WinForms@Azuki@Sgry@@$$FU$AAMP$AAV1Drawing@System@@XZ
  000d9	28 00 00 00 00	 call ?get@FontFamily@Font@Drawing@System@@$$FQ$AAMP$AAV134@XZ
  000de	02		 ldarg.0 	; this$
  000df	7b 00 00 00 00	 ldfld ?userAnswerArea@MogiTest@Mogitter@@3P$AAVAzukiControl@WinForms@Azuki@Sgry@@$AA
  000e4	6f 00 00 00 00	 callvirt ?get@Font@AzukiControl@WinForms@Azuki@Sgry@@$$FU$AAMP$AAV1Drawing@System@@XZ
  000e9	28 00 00 00 00	 call ?get@Size@Font@Drawing@System@@$$FQ$AAMMXZ
  000ee	17		 ldc.i.1 1	; i32 0x1
  000ef	19		 ldc.i.3 3	; i32 0x3
  000f0	20 80 00 00 00	 ldc.i4 128	; u8 0x80
  000f5	73 00 00 00 00	 newobj ??0Font@Drawing@System@@$$FQ$AAM@P$AAVFontFamily@12@MW4FontStyle@12@W4GraphicsUnit@12@E@Z
  000fa	6f 00 00 00 00	 callvirt ?set@Font@AzukiControl@WinForms@Azuki@Sgry@@$$FU$AAMXP$AAV1Drawing@System@@@Z

; 918  : 				 for(int i=0;i<collects->Length;i++){

  000ff	16		 ldc.i.0 0	; i32 0x0
  00100	0b		 stloc.1 	; i$7
  00101	16		 ldc.i.0 0	; i32 0x0
  00102	02		 ldarg.0 	; this$
  00103	7b 00 00 00 00	 ldfld ?collects@MogiTest@Mogitter@@3P$01AP$AAVString@System@@A
  00108	8e		 ldlen 
  00109	2f 3b		 bge.s $LN1@marking
$LL3@marking:

; 919  : 					 array<String^>^ colKwd = gcnew array<String^>(1);

  0010b	17		 ldc.i.1 1	; i32 0x1
  0010c	8d 00 00 00 00	 newarr $TypeTok$110E9D94$
  00111	13 04		 stloc.s 4	; colKwd$8

; 920  : 					 colKwd[0] = collects[i]+" ";

  00113	11 04		 ldloc.s 4	; colKwd$8
  00115	16		 ldc.i.0 0	; i32 0x0
  00116	02		 ldarg.0 	; this$
  00117	7b 00 00 00 00	 ldfld ?collects@MogiTest@Mogitter@@3P$01AP$AAVString@System@@A
  0011c	07		 ldloc.1 	; i$7
  0011d	9a		 ldelem.ref 
  0011e	72 00 00 00 00	 ldstr $StringLiteralTok$??_C@_13HOIJIPNN@?$AA?5?$AA?$AA@
  00123	28 00 00 00 00	 call ?Concat@String@System@@$$FSMP$AAV12@P$AAV12@0@Z
  00128	a2		 stelem.ref 

; 921  : 					 marubatsu->AddKeywordSet(colKwd,Sgry::Azuki::CharClass::Function);

  00129	02		 ldarg.0 	; this$
  0012a	7b 00 00 00 00	 ldfld ?marubatsu@MogiTest@Mogitter@@3P$AAVKeywordHighlighter@Highlighter@Azuki@Sgry@@$AA
  0012f	11 04		 ldloc.s 4	; colKwd$8
  00131	1f 21		 ldc.i4.s 33	; u8 0x21
  00133	28 00 00 00 00	 call ?AddKeywordSet@KeywordHighlighter@Highlighter@Azuki@Sgry@@$$FQ$AAMXP$01AP$AAVString@System@@W4CharClass@34@@Z

; 918  : 				 for(int i=0;i<collects->Length;i++){

  00138	07		 ldloc.1 	; i$7
  00139	17		 ldc.i.1 1	; i32 0x1
  0013a	58		 add 
  0013b	0b		 stloc.1 	; i$7
  0013c	07		 ldloc.1 	; i$7
  0013d	02		 ldarg.0 	; this$
  0013e	7b 00 00 00 00	 ldfld ?collects@MogiTest@Mogitter@@3P$01AP$AAVString@System@@A
  00143	8e		 ldlen 
  00144	32 c5		 blt.s $LL3@marking
$LN1@marking:

; 922  : 				 }
; 923  : 				 //System::Array::Sort(colKwd);
; 924  : 				 keikajikan->Stop();

  00146	02		 ldarg.0 	; this$
  00147	7b 00 00 00 00	 ldfld ?keikajikan@MogiTest@Mogitter@@3P$AAVTimer@Forms@Windows@System@@$AA
  0014c	28 00 00 00 00	 call ?Stop@Timer@Forms@Windows@System@@$$FQ$AAMXXZ

; 925  : 				 timer1->Start();

  00151	02		 ldarg.0 	; this$
  00152	7b 00 00 00 00	 ldfld ?timer1@MogiTest@Mogitter@@3P$AAVTimer@Forms@Windows@System@@$AA
  00157	28 00 00 00 00	 call ?Start@Timer@Forms@Windows@System@@$$FQ$AAMXXZ

; 926  : 				 return;
; 927  : 			 }

  0015c	2a		 ret 
 .end ?marking@MogiTest@Mogitter@@$$FA$AAMXXZ		; Mogitter::MogiTest::marking
;	.proc.end.void
; Function compile flags: /Ogsp
; File f:\meijin4\c++\mogitter\mogitter\mogitest.h
	.text
	.comdat	any, ?keikajikan_Tick@MogiTest@Mogitter@@$$FA$AAMXP$AAVObject@System@@P$AAVEventArgs@4@@Z
.global	?keikajikan_Tick@MogiTest@Mogitter@@$$FA$AAMXP$AAVObject@System@@P$AAVEventArgs@4@@Z ; Mogitter::MogiTest::keikajikan_Tick
?keikajikan_Tick@MogiTest@Mogitter@@$$FA$AAMXP$AAVObject@System@@P$AAVEventArgs@4@@Z: ; Mogitter::MogiTest::keikajikan_Tick
;	.proc.def	D:V(PP)

; Function Header:
; max stack depth = 3
; function size = 15 bytes
; local varsig tk = 0x0 
; Exception Information:
; 0 handlers, each consisting of filtered handlers

;	.formal.mptr 0,"this$" SIG: Optional C Binding Modifier(token:0x3D121A5).class (token:0x3D121A8)

;	.proc.beg

; 982  : 				 keikaSec++;

  0000b	02		 ldarg.0 	; this$
  0000c	25		 dup 
  0000d	7b 00 00 00 00	 ldfld ?keikaSec@MogiTest@Mogitter@@3HA
  00012	17		 ldc.i.1 1	; i32 0x1
  00013	58		 add 
  00014	7d 00 00 00 00	 stfld ?keikaSec@MogiTest@Mogitter@@3HA

; 983  : 			 }

  00019	2a		 ret 
 .end ?keikajikan_Tick@MogiTest@Mogitter@@$$FA$AAMXP$AAVObject@System@@P$AAVEventArgs@4@@Z ; Mogitter::MogiTest::keikajikan_Tick
;	.proc.end.void
	.bss
.local	$T1,0
; Function compile flags: /Ogsp
; File f:\meijin4\c++\mogitter\mogitter\mogitest.h
	.text
	.comdat	any, ?QuestSentence_SizeChanged@MogiTest@Mogitter@@$$FA$AAMXP$AAVObject@System@@P$AAVEventArgs@4@@Z
.global	?QuestSentence_SizeChanged@MogiTest@Mogitter@@$$FA$AAMXP$AAVObject@System@@P$AAVEventArgs@4@@Z ; Mogitter::MogiTest::QuestSentence_SizeChanged
?QuestSentence_SizeChanged@MogiTest@Mogitter@@$$FA$AAMXP$AAVObject@System@@P$AAVEventArgs@4@@Z: ; Mogitter::MogiTest::QuestSentence_SizeChanged
;	.proc.def	D:V(PP)

; Function Header:
; max stack depth = 2
; function size = 31 bytes
; local varsig tk = 0x1100002B 
; Exception Information:
; 0 handlers, each consisting of filtered handlers

;	.formal.mptr 0,"this$" SIG: Optional C Binding Modifier(token:0x3D121A5).class (token:0x3D121A8)
;	.local.mb8   0,"$T2" SIG: valueType (token:0x3D1E7AD)

;	.proc.beg

; 998  : 				 QuestSentence->ViewWidth = QuestSentence->ClientSize.Width;

  0000b	02		 ldarg.0 	; this$
  0000c	7b 00 00 00 00	 ldfld ?QuestSentence@MogiTest@Mogitter@@3P$AAVAzukiControl@WinForms@Azuki@Sgry@@$AA
  00011	28 00 00 00 00	 call ?get@ClientSize@Control@Forms@Windows@System@@$$FQ$AAM?AVSize@Drawing@5@XZ
  00016	0a		 stloc.0 	; $T2
  00017	02		 ldarg.0 	; this$
  00018	7b 00 00 00 00	 ldfld ?QuestSentence@MogiTest@Mogitter@@3P$AAVAzukiControl@WinForms@Azuki@Sgry@@$AA
  0001d	12 00		 ldloca.s 0	; $T2
  0001f	28 00 00 00 00	 call ?get@Width@Size@Drawing@System@@$$FQ$CAMHXZ
  00024	6f 00 00 00 00	 callvirt ?set@ViewWidth@AzukiControl@WinForms@Azuki@Sgry@@$$FU$AAMXH@Z

; 999  : 			 }

  00029	2a		 ret 
 .end ?QuestSentence_SizeChanged@MogiTest@Mogitter@@$$FA$AAMXP$AAVObject@System@@P$AAVEventArgs@4@@Z ; Mogitter::MogiTest::QuestSentence_SizeChanged
;	.proc.end.void
; Function compile flags: /Ogsp
; File f:\meijin4\c++\mogitter\mogitter\mogitest.h
	.text
	.comdat	any, ?endMenuItem_Click@MogiTest@Mogitter@@$$FA$AAMXP$AAVObject@System@@P$AAVEventArgs@4@@Z
.global	?endMenuItem_Click@MogiTest@Mogitter@@$$FA$AAMXP$AAVObject@System@@P$AAVEventArgs@4@@Z ; Mogitter::MogiTest::endMenuItem_Click
?endMenuItem_Click@MogiTest@Mogitter@@$$FA$AAMXP$AAVObject@System@@P$AAVEventArgs@4@@Z: ; Mogitter::MogiTest::endMenuItem_Click
;	.proc.def	D:V(PP)

; Function Header:
; max stack depth = 1
; function size = 7 bytes
; local varsig tk = 0x0 
; Exception Information:
; 0 handlers, each consisting of filtered handlers

;	.formal.mptr 0,"this$" SIG: Optional C Binding Modifier(token:0x3D121A5).class (token:0x3D121A8)

;	.proc.beg

; 1001 : 				 this->Close();

  0000b	02		 ldarg.0 	; this$
  0000c	28 00 00 00 00	 call ?Close@Form@Forms@Windows@System@@$$FQ$AAMXXZ

; 1002 : 			 }

  00011	2a		 ret 
 .end ?endMenuItem_Click@MogiTest@Mogitter@@$$FA$AAMXP$AAVObject@System@@P$AAVEventArgs@4@@Z ; Mogitter::MogiTest::endMenuItem_Click
;	.proc.end.void
; Function compile flags: /Ogsp
; File f:\meijin4\c++\mogitter\mogitter\mogitest.h
	.text
	.comdat	any, ?exportMenuItem_Click@MogiTest@Mogitter@@$$FA$AAMXP$AAVObject@System@@P$AAVEventArgs@4@@Z
.global	?exportMenuItem_Click@MogiTest@Mogitter@@$$FA$AAMXP$AAVObject@System@@P$AAVEventArgs@4@@Z ; Mogitter::MogiTest::exportMenuItem_Click
?exportMenuItem_Click@MogiTest@Mogitter@@$$FA$AAMXP$AAVObject@System@@P$AAVEventArgs@4@@Z: ; Mogitter::MogiTest::exportMenuItem_Click
;	.proc.def	D:V(PP)

; Function Header:
; max stack depth = 0
; function size = 1 bytes
; local varsig tk = 0x0 
; Exception Information:
; 0 handlers, each consisting of filtered handlers


;	.proc.beg

; 1014 : 			 }

  0000b	2a		 ret 
 .end ?exportMenuItem_Click@MogiTest@Mogitter@@$$FA$AAMXP$AAVObject@System@@P$AAVEventArgs@4@@Z ; Mogitter::MogiTest::exportMenuItem_Click
;	.proc.end.void
.global	
.global	
.global	?cancel@QBuild@Mogitter@@3P$AAVButton@Forms@Windows@System@@$AA ; Mogitter::QBuild::cancel
.global	?okButton@QBuild@Mogitter@@3P$AAVButton@Forms@Windows@System@@$AA ; Mogitter::QBuild::okButton
.global	?label1@QBuild@Mogitter@@3P$AAVLabel@Forms@Windows@System@@$AA ; Mogitter::QBuild::label1
.global	?sentakuGroup@QBuild@Mogitter@@3P$AAVGroupBox@Forms@Windows@System@@$AA ; Mogitter::QBuild::sentakuGroup
.global	?label5@QBuild@Mogitter@@3P$AAVLabel@Forms@Windows@System@@$AA ; Mogitter::QBuild::label5
.global	?label4@QBuild@Mogitter@@3P$AAVLabel@Forms@Windows@System@@$AA ; Mogitter::QBuild::label4
.global	?label3@QBuild@Mogitter@@3P$AAVLabel@Forms@Windows@System@@$AA ; Mogitter::QBuild::label3
.global	?katakana_abc@QBuild@Mogitter@@3P$AAVRadioButton@Forms@Windows@System@@$AA ; Mogitter::QBuild::katakana_abc
.global	?kana_abc@QBuild@Mogitter@@3P$AAVRadioButton@Forms@Windows@System@@$AA ; Mogitter::QBuild::kana_abc
.global	?ABC_@QBuild@Mogitter@@3P$AAVRadioButton@Forms@Windows@System@@$AA ; Mogitter::QBuild::ABC_
.global	?abc@QBuild@Mogitter@@3P$AAVRadioButton@Forms@Windows@System@@$AA ; Mogitter::QBuild::abc
.global	?label2@QBuild@Mogitter@@3P$AAVLabel@Forms@Windows@System@@$AA ; Mogitter::QBuild::label2
.global	?panel1@QBuild@Mogitter@@3P$AAVPanel@Forms@Windows@System@@$AA ; Mogitter::QBuild::panel1
	.bss
.local	,4
.local	,4
.local	?cancel@QBuild@Mogitter@@3P$AAVButton@Forms@Windows@System@@$AA,4 ; Mogitter::QBuild::cancel
.local	?okButton@QBuild@Mogitter@@3P$AAVButton@Forms@Windows@System@@$AA,4 ; Mogitter::QBuild::okButton
.local	?label1@QBuild@Mogitter@@3P$AAVLabel@Forms@Windows@System@@$AA,4 ; Mogitter::QBuild::label1
.local	?sentakuGroup@QBuild@Mogitter@@3P$AAVGroupBox@Forms@Windows@System@@$AA,4 ; Mogitter::QBuild::sentakuGroup
.local	?label5@QBuild@Mogitter@@3P$AAVLabel@Forms@Windows@System@@$AA,4 ; Mogitter::QBuild::label5
.local	?label4@QBuild@Mogitter@@3P$AAVLabel@Forms@Windows@System@@$AA,4 ; Mogitter::QBuild::label4
.local	?label3@QBuild@Mogitter@@3P$AAVLabel@Forms@Windows@System@@$AA,4 ; Mogitter::QBuild::label3
.local	?katakana_abc@QBuild@Mogitter@@3P$AAVRadioButton@Forms@Windows@System@@$AA,4 ; Mogitter::QBuild::katakana_abc
.local	?kana_abc@QBuild@Mogitter@@3P$AAVRadioButton@Forms@Windows@System@@$AA,4 ; Mogitter::QBuild::kana_abc
.local	?ABC_@QBuild@Mogitter@@3P$AAVRadioButton@Forms@Windows@System@@$AA,4 ; Mogitter::QBuild::ABC_
.local	?abc@QBuild@Mogitter@@3P$AAVRadioButton@Forms@Windows@System@@$AA,4 ; Mogitter::QBuild::abc
.local	?label2@QBuild@Mogitter@@3P$AAVLabel@Forms@Windows@System@@$AA,4 ; Mogitter::QBuild::label2
.local	?panel1@QBuild@Mogitter@@3P$AAVPanel@Forms@Windows@System@@$AA,4 ; Mogitter::QBuild::panel1
.local	$StringLiteralTok$??_C@_19HMEDOBKD@0?a0?$KE0?j0?$KK?$AA?$AA@,4
.local	$StringLiteralTok$??_C@_1O@NFIMEJGE@?$AAc?$AAa?$AAn?$AAc?$AAe?$AAl?$AA?$AA@,4
.local	$StringLiteralTok$??_C@_1M@JFEDHPLI@0?$KN0?c0?s0?$LL0?k?$AA?$AA@,4
.local	$StringLiteralTok$??_C@_1BC@DBHLIDP@?$AAo?$AAk?$AAB?$AAu?$AAt?$AAt?$AAo?$AAn?$AA?$AA@,4
.local	$StringLiteralTok$??_C@_15PMCGDJNJ@?$AAO?$AAK?$AA?$AA@,4
.local	$StringLiteralTok$??_C@_1BE@EDHPNFEP@?$AAa?$AAn?$AAs?$AAw?$AAe?$AAr?$AAB?$AAo?$AAx?$AA?$AA@,4
.local	$StringLiteralTok$??_C@_1O@EBCDJCCM@?$AAl?$AAa?$AAb?$AAe?$AAl?$AA1?$AA?$AA@,4
.local	$StringLiteralTok$??_C@_17BCCNLFBM@?$IJ?c?$HLT?$PP?$BK?$AA?$AA@,4
.local	$StringLiteralTok$??_C@_1BK@PBOPCCAN@?$AAs?$AAe?$AAn?$AAt?$AAa?$AAk?$AAu?$AAG?$AAr?$AAo?$AAu?$AAp?$AA?$AA@,4
.local	$StringLiteralTok$??_C@_1DK@LEKCMHN@?$JAxb?$JOUO?$JIL0?$KK0?W0?$LH0?g0?s?$AA?$CIztW?K0?$IBUO?$JIL0?$JCO?2b?$BA0Y0?$IL0h0M0o?$IK?$BIQeN?$AN?$IJ?$IB?$AA?$CJ?$AA?$AA@,4
.local	$StringLiteralTok$??_C@_1BG@KMJDFGBH@?$AAs?$AAe?$AAn?$AAt?$AAa?$AAk?$AAu?$AAs?$AAh?$AAi?$AA?$AA@,4
.local	$TypeTok$110E9E58$,4
.local	$StringLiteralTok$??_C@_1BK@HHEMDAEM@?$AAs?$AAe?$AAi?$AAk?$AAa?$AAi?$AAN?$AAu?$AAm?$AAb?$AAe?$AAr?$AA?$AA@,4
.local	$StringLiteralTok$??_C@_1O@MOEBAFHL@?$AAl?$AAa?$AAb?$AAe?$AAl?$AA5?$AA?$AA@,4
.local	$StringLiteralTok$??_C@_1CA@NAKEPKNH@kc?$IJ?cN?eY?$BG0n?$JAxb?$JO?$IA?$KC?$AA?$CIT?$AE?$IIL0k?$PP?$BB0d?$AA?$CJ?$AA?$AA@,4
.local	$StringLiteralTok$??_C@_1O@HGPNGCBO@?$AAl?$AAa?$AAb?$AAe?$AAl?$AA4?$AA?$AA@,4
.local	$StringLiteralTok$??_C@_1M@NCNJOIHJ@ujv?n0k0Y0?$IL?$AA?$AA@,4
.local	$StringLiteralTok$??_C@_1O@OLCKFKKH@?$AAl?$AAa?$AAb?$AAe?$AAl?$AA3?$AA?$AA@,4
.local	$StringLiteralTok$??_C@_17FCAMOIKB@kc?$IJ?c0?$JC?$AA?$AA@,4
.local	$StringLiteralTok$??_C@_1BK@FJNMECFH@?$AAk?$AAa?$AAt?$AAa?$AAk?$AAa?$AAn?$AAa?$AA_?$AAa?$AAb?$AAc?$AA?$AA@,4
.local	$StringLiteralTok$??_C@_1BE@ELJFCLDL@0?$KC?$AA?00?$KE?$AA?00?$KG?$AA?0?$PPe?$PPe?$PPe?$AA?$AA@,4
.local	$StringLiteralTok$??_C@_1BC@NJJBOGAI@?$AAk?$AAa?$AAn?$AAa?$AA_?$AAa?$AAb?$AAc?$AA?$AA@,4
.local	$StringLiteralTok$??_C@_1BE@CCEJPIJB@0B?$AA?00D?$AA?00F?$AA?0?$PPe?$PPe?$PPe?$AA?$AA@,4
.local	$StringLiteralTok$??_C@_19BMBHFJLB@?$AAA?$AAB?$AAC?$AA_?$AA?$AA@,4
.local	$StringLiteralTok$??_C@_1BE@JHNJAMHM@?$AAA?$AA?0?$AAB?$AA?0?$AAC?$AA?0?$PPe?$PPe?$PPe?$AA?$AA@,4
.local	$StringLiteralTok$??_C@_17OKDDHGAP@?$AAa?$AAb?$AAc?$AA?$AA@,4
.local	$StringLiteralTok$??_C@_1BE@ICCLPMPC@?$AAa?$AA?0?$AAb?$AA?0?$AAc?$AA?0?$PPe?$PPe?$PPe?$AA?$AA@,4
.local	$StringLiteralTok$??_C@_1O@FDJGDNMC@?$AAl?$AAa?$AAb?$AAe?$AAl?$AA2?$AA?$AA@,4
.local	$StringLiteralTok$??_C@_17OPPNKABI@?$IK?$BIS?w?$PP?$BK?$AA?$AA@,4
.local	$StringLiteralTok$??_C@_1O@BHFINPOD@?$AAp?$AAa?$AAn?$AAe?$AAl?$AA1?$AA?$AA@,4
.local	$StringLiteralTok$??_C@_1O@FMKONPIF@?$AAQ?$AAB?$AAu?$AAi?$AAl?$AAd?$AA?$AA@,4
.local	$StringLiteralTok$??_C@_19FDLBGPKB@UO?$JILO?2b?$BA?$AA?$AA@,4
.local	$T1,0
; Function compile flags: /Ogsp
; File f:\meijin4\c++\mogitter\mogitter\qbuild.h
	.text
	.comdat	any, ?InitializeComponent@QBuild@Mogitter@@$$FA$AAMXXZ
.global	?InitializeComponent@QBuild@Mogitter@@$$FA$AAMXXZ ; Mogitter::QBuild::InitializeComponent
?InitializeComponent@QBuild@Mogitter@@$$FA$AAMXXZ:	; Mogitter::QBuild::InitializeComponent
;	.proc.def	D:V()

; Function Header:
; max stack depth = 6
; function size = 3451 bytes
; local varsig tk = 0x1100002E 
; Exception Information:
; 0 handlers, each consisting of filtered handlers

;	.formal.mptr 0,"this$" SIG: Optional C Binding Modifier(token:0x3D19CDD).class (token:0x3D19CE0)
;	.local.mptr 3,"fontInfo2$" SIG: class (token:0x3D1E795)
;	.local.mb8   47,"$S1$" SIG: valueType (token:0x3D1E7B5)
;	.local.mb8   46,"$S2$" SIG: valueType (token:0x3D1E7AD)
;	.local.mb20  45,"$T2" SIG: valueType (token:0x3D28D25)
;	.local.mb8   44,"$S3$" SIG: valueType (token:0x3D1E7B5)
;	.local.mb8   43,"$S4$" SIG: valueType (token:0x3D1E7AD)
;	.local.mb8   42,"$S5$" SIG: valueType (token:0x3D1E7B5)
;	.local.mb8   41,"$S6$" SIG: valueType (token:0x3D1E7AD)
;	.local.mb8   40,"$S7$" SIG: valueType (token:0x3D1E7B5)
;	.local.mb8   39,"$S8$" SIG: valueType (token:0x3D1E7AD)
;	.local.mb8   38,"$S9$" SIG: valueType (token:0x3D1E7B5)
;	.local.mb8   37,"$S10$" SIG: valueType (token:0x3D1E7AD)
;	.local.mb20  36,"$T3" SIG: valueType (token:0x3D28D25)
;	.local.mb20  35,"$T4" SIG: valueType (token:0x3D28D25)
;	.local.mb8   34,"$S11$" SIG: valueType (token:0x3D1E7B5)
;	.local.mb8   33,"$S12$" SIG: valueType (token:0x3D1E7B5)
;	.local.mb8   32,"$S13$" SIG: valueType (token:0x3D1E7AD)
;	.local.mb20  31,"$T5" SIG: valueType (token:0x3D28D25)
;	.local.mb20  30,"$T6" SIG: valueType (token:0x3D28D25)
;	.local.mb8   29,"$S14$" SIG: valueType (token:0x3D1E7B5)
;	.local.mptr 2,"$S15$" SIG: szarray (token:0x3D1EB2D)
;	.local.mb16  28,"$T7" SIG: valueType (token:0x3D226AD)
;	.local.mptr 1,"$S16$" SIG: szarray (token:0x3D1EB2D)
;	.local.mb16  27,"$T8" SIG: valueType (token:0x3D226AD)
;	.local.mb8   26,"$S17$" SIG: valueType (token:0x3D1E7AD)
;	.local.mptr 0,"$S18$" SIG: szarray (token:0x3D1EB2D)
;	.local.mb16  25,"$T9" SIG: valueType (token:0x3D226AD)
;	.local.mb8   24,"$S19$" SIG: valueType (token:0x3D1E7B5)
;	.local.mb8   23,"$S20$" SIG: valueType (token:0x3D1E7AD)
;	.local.mb8   22,"$S21$" SIG: valueType (token:0x3D1E7B5)
;	.local.mb8   21,"$S22$" SIG: valueType (token:0x3D1E7AD)
;	.local.mb8   20,"$S23$" SIG: valueType (token:0x3D1E7B5)
;	.local.mb8   19,"$S24$" SIG: valueType (token:0x3D1E7AD)
;	.local.mb8   18,"$S25$" SIG: valueType (token:0x3D1E7B5)
;	.local.mb8   17,"$S26$" SIG: valueType (token:0x3D1E7AD)
;	.local.mb8   16,"$S27$" SIG: valueType (token:0x3D1E7B5)
;	.local.mb8   15,"$S28$" SIG: valueType (token:0x3D1E7AD)
;	.local.mb8   14,"$S29$" SIG: valueType (token:0x3D1E7B5)
;	.local.mb8   13,"$S30$" SIG: valueType (token:0x3D1E7AD)
;	.local.mb8   12,"$S31$" SIG: valueType (token:0x3D1E7B5)
;	.local.mb8   11,"$S32$" SIG: valueType (token:0x3D1E7AD)
;	.local.mb8   10,"$S33$" SIG: valueType (token:0x3D1E7B5)
;	.local.mb8   9,"$S34$" SIG: valueType (token:0x3D1E7AD)
;	.local.mb20  8,"$T10" SIG: valueType (token:0x3D28D25)
;	.local.mb8   7,"$S35$" SIG: valueType (token:0x3D1E7B5)
;	.local.mb8   6,"$S36$" SIG: valueType (token:0x3D1E7AD)
;	.local.mb8   5,"$S37$" SIG: valueType (token:0x3D1EBAD)
;	.local.mb8   4,"$S38$" SIG: valueType (token:0x3D1E7AD)

;	.proc.beg

; 107  : 			Sgry::Azuki::FontInfo^  fontInfo2 = (gcnew Sgry::Azuki::FontInfo());

  0000b	73 00 00 00 00	 newobj ??0FontInfo@Azuki@Sgry@@$$FQ$AAM@XZ
  00010	0d		 stloc.3 	; fontInfo2$

; 108  : 			this->cancel = (gcnew System::Windows::Forms::Button());

  00011	02		 ldarg.0 	; this$
  00012	73 00 00 00 00	 newobj ??0Button@Forms@Windows@System@@$$FQ$AAM@XZ
  00017	7d 00 00 00 00	 stfld ?cancel@QBuild@Mogitter@@3P$AAVButton@Forms@Windows@System@@$AA

; 109  : 			this->okButton = (gcnew System::Windows::Forms::Button());

  0001c	02		 ldarg.0 	; this$
  0001d	73 00 00 00 00	 newobj ??0Button@Forms@Windows@System@@$$FQ$AAM@XZ
  00022	7d 00 00 00 00	 stfld ?okButton@QBuild@Mogitter@@3P$AAVButton@Forms@Windows@System@@$AA

; 110  : 			this->answerBox = (gcnew System::Windows::Forms::TextBox());

  00027	02		 ldarg.0 	; this$
  00028	73 00 00 00 00	 newobj ??0TextBox@Forms@Windows@System@@$$FQ$AAM@XZ
  0002d	7d 00 00 00 00	 stfld ?answerBox@QBuild@Mogitter@@3P$AAVTextBox@Forms@Windows@System@@$AA

; 111  : 			this->label1 = (gcnew System::Windows::Forms::Label());

  00032	02		 ldarg.0 	; this$
  00033	73 00 00 00 00	 newobj ??0Label@Forms@Windows@System@@$$FQ$AAM@XZ
  00038	7d 00 00 00 00	 stfld ?label1@QBuild@Mogitter@@3P$AAVLabel@Forms@Windows@System@@$AA

; 112  : 			this->sentakuGroup = (gcnew System::Windows::Forms::GroupBox());

  0003d	02		 ldarg.0 	; this$
  0003e	73 00 00 00 00	 newobj ??0GroupBox@Forms@Windows@System@@$$FQ$AAM@XZ
  00043	7d 00 00 00 00	 stfld ?sentakuGroup@QBuild@Mogitter@@3P$AAVGroupBox@Forms@Windows@System@@$AA

; 113  : 			this->sentakushi = (gcnew Sgry::Azuki::WinForms::AzukiControl());

  00048	02		 ldarg.0 	; this$
  00049	73 00 00 00 00	 newobj ??0AzukiControl@WinForms@Azuki@Sgry@@$$FQ$AAM@XZ
  0004e	7d 00 00 00 00	 stfld ?sentakushi@QBuild@Mogitter@@3P$AAVAzukiControl@WinForms@Azuki@Sgry@@$AA

; 114  : 			this->seikaiNumber = (gcnew System::Windows::Forms::NumericUpDown());

  00053	02		 ldarg.0 	; this$
  00054	73 00 00 00 00	 newobj ??0NumericUpDown@Forms@Windows@System@@$$FQ$AAM@XZ
  00059	7d 00 00 00 00	 stfld ?seikaiNumber@QBuild@Mogitter@@3P$AAVNumericUpDown@Forms@Windows@System@@$AA

; 115  : 			this->label5 = (gcnew System::Windows::Forms::Label());

  0005e	02		 ldarg.0 	; this$
  0005f	73 00 00 00 00	 newobj ??0Label@Forms@Windows@System@@$$FQ$AAM@XZ
  00064	7d 00 00 00 00	 stfld ?label5@QBuild@Mogitter@@3P$AAVLabel@Forms@Windows@System@@$AA

; 116  : 			this->label4 = (gcnew System::Windows::Forms::Label());

  00069	02		 ldarg.0 	; this$
  0006a	73 00 00 00 00	 newobj ??0Label@Forms@Windows@System@@$$FQ$AAM@XZ
  0006f	7d 00 00 00 00	 stfld ?label4@QBuild@Mogitter@@3P$AAVLabel@Forms@Windows@System@@$AA

; 117  : 			this->label3 = (gcnew System::Windows::Forms::Label());

  00074	02		 ldarg.0 	; this$
  00075	73 00 00 00 00	 newobj ??0Label@Forms@Windows@System@@$$FQ$AAM@XZ
  0007a	7d 00 00 00 00	 stfld ?label3@QBuild@Mogitter@@3P$AAVLabel@Forms@Windows@System@@$AA

; 118  : 			this->katakana_abc = (gcnew System::Windows::Forms::RadioButton());

  0007f	02		 ldarg.0 	; this$
  00080	73 00 00 00 00	 newobj ??0RadioButton@Forms@Windows@System@@$$FQ$AAM@XZ
  00085	7d 00 00 00 00	 stfld ?katakana_abc@QBuild@Mogitter@@3P$AAVRadioButton@Forms@Windows@System@@$AA

; 119  : 			this->kana_abc = (gcnew System::Windows::Forms::RadioButton());

  0008a	02		 ldarg.0 	; this$
  0008b	73 00 00 00 00	 newobj ??0RadioButton@Forms@Windows@System@@$$FQ$AAM@XZ
  00090	7d 00 00 00 00	 stfld ?kana_abc@QBuild@Mogitter@@3P$AAVRadioButton@Forms@Windows@System@@$AA

; 120  : 			this->ABC_ = (gcnew System::Windows::Forms::RadioButton());

  00095	02		 ldarg.0 	; this$
  00096	73 00 00 00 00	 newobj ??0RadioButton@Forms@Windows@System@@$$FQ$AAM@XZ
  0009b	7d 00 00 00 00	 stfld ?ABC_@QBuild@Mogitter@@3P$AAVRadioButton@Forms@Windows@System@@$AA

; 121  : 			this->abc = (gcnew System::Windows::Forms::RadioButton());

  000a0	02		 ldarg.0 	; this$
  000a1	73 00 00 00 00	 newobj ??0RadioButton@Forms@Windows@System@@$$FQ$AAM@XZ
  000a6	7d 00 00 00 00	 stfld ?abc@QBuild@Mogitter@@3P$AAVRadioButton@Forms@Windows@System@@$AA

; 122  : 			this->label2 = (gcnew System::Windows::Forms::Label());

  000ab	02		 ldarg.0 	; this$
  000ac	73 00 00 00 00	 newobj ??0Label@Forms@Windows@System@@$$FQ$AAM@XZ
  000b1	7d 00 00 00 00	 stfld ?label2@QBuild@Mogitter@@3P$AAVLabel@Forms@Windows@System@@$AA

; 123  : 			this->panel1 = (gcnew System::Windows::Forms::Panel());

  000b6	02		 ldarg.0 	; this$
  000b7	73 00 00 00 00	 newobj ??0Panel@Forms@Windows@System@@$$FQ$AAM@XZ
  000bc	7d 00 00 00 00	 stfld ?panel1@QBuild@Mogitter@@3P$AAVPanel@Forms@Windows@System@@$AA

; 124  : 			this->sentakuGroup->SuspendLayout();

  000c1	02		 ldarg.0 	; this$
  000c2	7b 00 00 00 00	 ldfld ?sentakuGroup@QBuild@Mogitter@@3P$AAVGroupBox@Forms@Windows@System@@$AA
  000c7	28 00 00 00 00	 call ?SuspendLayout@Control@Forms@Windows@System@@$$FQ$AAMXXZ

; 125  : 			(cli::safe_cast<System::ComponentModel::ISupportInitialize^  >(this->seikaiNumber))->BeginInit();

  000cc	02		 ldarg.0 	; this$
  000cd	7b 00 00 00 00	 ldfld ?seikaiNumber@QBuild@Mogitter@@3P$AAVNumericUpDown@Forms@Windows@System@@$AA
  000d2	6f 00 00 00 00	 callvirt ?BeginInit@ISupportInitialize@ComponentModel@System@@$$FU$AAMXXZ

; 126  : 			this->SuspendLayout();

  000d7	02		 ldarg.0 	; this$
  000d8	28 00 00 00 00	 call ?SuspendLayout@Control@Forms@Windows@System@@$$FQ$AAMXXZ

; 127  : 			// 
; 128  : 			// cancel
; 129  : 			// 
; 130  : 			this->cancel->DialogResult = System::Windows::Forms::DialogResult::Cancel;

  000dd	02		 ldarg.0 	; this$
  000de	7b 00 00 00 00	 ldfld ?cancel@QBuild@Mogitter@@3P$AAVButton@Forms@Windows@System@@$AA
  000e3	18		 ldc.i.2 2	; i32 0x2
  000e4	6f 00 00 00 00	 callvirt ?set@DialogResult@Button@Forms@Windows@System@@$$FU$AAMXW41345@@Z

; 131  : 			this->cancel->Font = (gcnew System::Drawing::Font(L"メイリオ", 11.25F, System::Drawing::FontStyle::Regular, System::Drawing::GraphicsUnit::Point, 
; 132  : 				static_cast<System::Byte>(128)));

  000e9	02		 ldarg.0 	; this$
  000ea	7b 00 00 00 00	 ldfld ?cancel@QBuild@Mogitter@@3P$AAVButton@Forms@Windows@System@@$AA
  000ef	72 00 00 00 00	 ldstr $StringLiteralTok$??_C@_19HMEDOBKD@0?a0?$KE0?j0?$KK?$AA?$AA@
  000f4	22 00 00 34 41	 ldc.r4 11.250000
  000f9	16		 ldc.i.0 0	; i32 0x0
  000fa	19		 ldc.i.3 3	; i32 0x3
  000fb	20 80 00 00 00	 ldc.i4 128	; u8 0x80
  00100	73 00 00 00 00	 newobj ??0Font@Drawing@System@@$$FQ$AAM@P$AAVString@2@MW4FontStyle@12@W4GraphicsUnit@12@E@Z
  00105	6f 00 00 00 00	 callvirt ?set@Font@Control@Forms@Windows@System@@$$FU$AAMXP$AAV1Drawing@5@@Z

; 133  : 			this->cancel->Location = System::Drawing::Point(235, 318);

  0010a	12 2f		 ldloca.s 47	; $S1$
  0010c	20 eb 00 00 00	 ldc.i4 235	; i32 0xeb
  00111	20 3e 01 00 00	 ldc.i4 318	; i32 0x13e
  00116	28 00 00 00 00	 call ??0Point@Drawing@System@@$$FQ$CAM@HH@Z
  0011b	02		 ldarg.0 	; this$
  0011c	7b 00 00 00 00	 ldfld ?cancel@QBuild@Mogitter@@3P$AAVButton@Forms@Windows@System@@$AA
  00121	11 2f		 ldloc.s 47	; $S1$
  00123	28 00 00 00 00	 call ?set@Location@Control@Forms@Windows@System@@$$FQ$AAMXVPoint@Drawing@5@@Z

; 134  : 			this->cancel->Name = L"cancel";

  00128	02		 ldarg.0 	; this$
  00129	7b 00 00 00 00	 ldfld ?cancel@QBuild@Mogitter@@3P$AAVButton@Forms@Windows@System@@$AA
  0012e	72 00 00 00 00	 ldstr $StringLiteralTok$??_C@_1O@NFIMEJGE@?$AAc?$AAa?$AAn?$AAc?$AAe?$AAl?$AA?$AA@
  00133	28 00 00 00 00	 call ?set@Name@Control@Forms@Windows@System@@$$FQ$AAMXP$AAVString@5@@Z

; 135  : 			this->cancel->Size = System::Drawing::Size(115, 32);

  00138	12 2e		 ldloca.s 46	; $S2$
  0013a	1f 73		 ldc.i4.s 115	; i32 0x73
  0013c	1f 20		 ldc.i4.s 32	; i32 0x20
  0013e	28 00 00 00 00	 call ??0Size@Drawing@System@@$$FQ$CAM@HH@Z
  00143	02		 ldarg.0 	; this$
  00144	7b 00 00 00 00	 ldfld ?cancel@QBuild@Mogitter@@3P$AAVButton@Forms@Windows@System@@$AA
  00149	11 2e		 ldloc.s 46	; $S2$
  0014b	28 00 00 00 00	 call ?set@Size@Control@Forms@Windows@System@@$$FQ$AAMXV1Drawing@5@@Z

; 136  : 			this->cancel->TabIndex = 2;

  00150	02		 ldarg.0 	; this$
  00151	7b 00 00 00 00	 ldfld ?cancel@QBuild@Mogitter@@3P$AAVButton@Forms@Windows@System@@$AA
  00156	18		 ldc.i.2 2	; i32 0x2
  00157	28 00 00 00 00	 call ?set@TabIndex@Control@Forms@Windows@System@@$$FQ$AAMXH@Z

; 137  : 			this->cancel->Text = L"キャンセル";

  0015c	02		 ldarg.0 	; this$
  0015d	7b 00 00 00 00	 ldfld ?cancel@QBuild@Mogitter@@3P$AAVButton@Forms@Windows@System@@$AA
  00162	72 00 00 00 00	 ldstr $StringLiteralTok$??_C@_1M@JFEDHPLI@0?$KN0?c0?s0?$LL0?k?$AA?$AA@
  00167	6f 00 00 00 00	 callvirt ?set@Text@ButtonBase@Forms@Windows@System@@$$FU$AAMXP$AAVString@5@@Z

; 138  : 			this->cancel->UseVisualStyleBackColor = true;

  0016c	02		 ldarg.0 	; this$
  0016d	7b 00 00 00 00	 ldfld ?cancel@QBuild@Mogitter@@3P$AAVButton@Forms@Windows@System@@$AA
  00172	17		 ldc.i.1 1	; u8 0x1
  00173	28 00 00 00 00	 call ?set@UseVisualStyleBackColor@ButtonBase@Forms@Windows@System@@$$FQ$AAMX_N@Z

; 139  : 			this->cancel->Click += gcnew System::EventHandler(this, &QBuild::cancel_Click);

  00178	02		 ldarg.0 	; this$
  00179	7b 00 00 00 00	 ldfld ?cancel@QBuild@Mogitter@@3P$AAVButton@Forms@Windows@System@@$AA
  0017e	02		 ldarg.0 	; this$
  0017f	fe 06 00 00 00
	00		 ldftn ?cancel_Click@QBuild@Mogitter@@$$FA$AAMXP$AAVObject@System@@P$AAVEventArgs@4@@Z
  00185	73 00 00 00 00	 newobj ??0EventHandler@System@@$$FQ$AAM@P$AAVObject@1@VIntPtr@1@@Z
  0018a	28 00 00 00 00	 call ?add@Click@Control@Forms@Windows@System@@$$FQ$AAMXP$AAVEventHandler@5@@Z

; 140  : 			// 
; 141  : 			// okButton
; 142  : 			// 
; 143  : 			this->okButton->BackColor = System::Drawing::SystemColors::Control;

  0018f	28 00 00 00 00	 call ?get@Control@SystemColors@Drawing@System@@$$FSM?AVColor@34@XZ
  00194	13 2d		 stloc.s 45	; $T2
  00196	02		 ldarg.0 	; this$
  00197	7b 00 00 00 00	 ldfld ?okButton@QBuild@Mogitter@@3P$AAVButton@Forms@Windows@System@@$AA
  0019c	11 2d		 ldloc.s 45	; $T2
  0019e	6f 00 00 00 00	 callvirt ?set@BackColor@ButtonBase@Forms@Windows@System@@$$FU$AAMXVColor@Drawing@5@@Z

; 144  : 			this->okButton->DialogResult = System::Windows::Forms::DialogResult::OK;

  001a3	02		 ldarg.0 	; this$
  001a4	7b 00 00 00 00	 ldfld ?okButton@QBuild@Mogitter@@3P$AAVButton@Forms@Windows@System@@$AA
  001a9	17		 ldc.i.1 1	; i32 0x1
  001aa	6f 00 00 00 00	 callvirt ?set@DialogResult@Button@Forms@Windows@System@@$$FU$AAMXW41345@@Z

; 145  : 			this->okButton->Font = (gcnew System::Drawing::Font(L"メイリオ", 12, System::Drawing::FontStyle::Regular, System::Drawing::GraphicsUnit::Point, 
; 146  : 				static_cast<System::Byte>(128)));

  001af	02		 ldarg.0 	; this$
  001b0	7b 00 00 00 00	 ldfld ?okButton@QBuild@Mogitter@@3P$AAVButton@Forms@Windows@System@@$AA
  001b5	72 00 00 00 00	 ldstr $StringLiteralTok$??_C@_19HMEDOBKD@0?a0?$KE0?j0?$KK?$AA?$AA@
  001ba	22 00 00 40 41	 ldc.r4 12.000000
  001bf	16		 ldc.i.0 0	; i32 0x0
  001c0	19		 ldc.i.3 3	; i32 0x3
  001c1	20 80 00 00 00	 ldc.i4 128	; u8 0x80
  001c6	73 00 00 00 00	 newobj ??0Font@Drawing@System@@$$FQ$AAM@P$AAVString@2@MW4FontStyle@12@W4GraphicsUnit@12@E@Z
  001cb	6f 00 00 00 00	 callvirt ?set@Font@Control@Forms@Windows@System@@$$FU$AAMXP$AAV1Drawing@5@@Z

; 147  : 			this->okButton->Location = System::Drawing::Point(123, 318);

  001d0	12 2c		 ldloca.s 44	; $S3$
  001d2	1f 7b		 ldc.i4.s 123	; i32 0x7b
  001d4	20 3e 01 00 00	 ldc.i4 318	; i32 0x13e
  001d9	28 00 00 00 00	 call ??0Point@Drawing@System@@$$FQ$CAM@HH@Z
  001de	02		 ldarg.0 	; this$
  001df	7b 00 00 00 00	 ldfld ?okButton@QBuild@Mogitter@@3P$AAVButton@Forms@Windows@System@@$AA
  001e4	11 2c		 ldloc.s 44	; $S3$
  001e6	28 00 00 00 00	 call ?set@Location@Control@Forms@Windows@System@@$$FQ$AAMXVPoint@Drawing@5@@Z

; 148  : 			this->okButton->Name = L"okButton";

  001eb	02		 ldarg.0 	; this$
  001ec	7b 00 00 00 00	 ldfld ?okButton@QBuild@Mogitter@@3P$AAVButton@Forms@Windows@System@@$AA
  001f1	72 00 00 00 00	 ldstr $StringLiteralTok$??_C@_1BC@DBHLIDP@?$AAo?$AAk?$AAB?$AAu?$AAt?$AAt?$AAo?$AAn?$AA?$AA@
  001f6	28 00 00 00 00	 call ?set@Name@Control@Forms@Windows@System@@$$FQ$AAMXP$AAVString@5@@Z

; 149  : 			this->okButton->Size = System::Drawing::Size(75, 32);

  001fb	12 2b		 ldloca.s 43	; $S4$
  001fd	1f 4b		 ldc.i4.s 75	; i32 0x4b
  001ff	1f 20		 ldc.i4.s 32	; i32 0x20
  00201	28 00 00 00 00	 call ??0Size@Drawing@System@@$$FQ$CAM@HH@Z
  00206	02		 ldarg.0 	; this$
  00207	7b 00 00 00 00	 ldfld ?okButton@QBuild@Mogitter@@3P$AAVButton@Forms@Windows@System@@$AA
  0020c	11 2b		 ldloc.s 43	; $S4$
  0020e	28 00 00 00 00	 call ?set@Size@Control@Forms@Windows@System@@$$FQ$AAMXV1Drawing@5@@Z

; 150  : 			this->okButton->TabIndex = 1;

  00213	02		 ldarg.0 	; this$
  00214	7b 00 00 00 00	 ldfld ?okButton@QBuild@Mogitter@@3P$AAVButton@Forms@Windows@System@@$AA
  00219	17		 ldc.i.1 1	; i32 0x1
  0021a	28 00 00 00 00	 call ?set@TabIndex@Control@Forms@Windows@System@@$$FQ$AAMXH@Z

; 151  : 			this->okButton->Text = L"OK";

  0021f	02		 ldarg.0 	; this$
  00220	7b 00 00 00 00	 ldfld ?okButton@QBuild@Mogitter@@3P$AAVButton@Forms@Windows@System@@$AA
  00225	72 00 00 00 00	 ldstr $StringLiteralTok$??_C@_15PMCGDJNJ@?$AAO?$AAK?$AA?$AA@
  0022a	6f 00 00 00 00	 callvirt ?set@Text@ButtonBase@Forms@Windows@System@@$$FU$AAMXP$AAVString@5@@Z

; 152  : 			this->okButton->UseVisualStyleBackColor = true;

  0022f	02		 ldarg.0 	; this$
  00230	7b 00 00 00 00	 ldfld ?okButton@QBuild@Mogitter@@3P$AAVButton@Forms@Windows@System@@$AA
  00235	17		 ldc.i.1 1	; u8 0x1
  00236	28 00 00 00 00	 call ?set@UseVisualStyleBackColor@ButtonBase@Forms@Windows@System@@$$FQ$AAMX_N@Z

; 153  : 			// 
; 154  : 			// answerBox
; 155  : 			// 
; 156  : 			this->answerBox->Font = (gcnew System::Drawing::Font(L"メイリオ", 11.25F, System::Drawing::FontStyle::Regular, System::Drawing::GraphicsUnit::Point, 
; 157  : 				static_cast<System::Byte>(128)));

  0023b	02		 ldarg.0 	; this$
  0023c	7b 00 00 00 00	 ldfld ?answerBox@QBuild@Mogitter@@3P$AAVTextBox@Forms@Windows@System@@$AA
  00241	72 00 00 00 00	 ldstr $StringLiteralTok$??_C@_19HMEDOBKD@0?a0?$KE0?j0?$KK?$AA?$AA@
  00246	22 00 00 34 41	 ldc.r4 11.250000
  0024b	16		 ldc.i.0 0	; i32 0x0
  0024c	19		 ldc.i.3 3	; i32 0x3
  0024d	20 80 00 00 00	 ldc.i4 128	; u8 0x80
  00252	73 00 00 00 00	 newobj ??0Font@Drawing@System@@$$FQ$AAM@P$AAVString@2@MW4FontStyle@12@W4GraphicsUnit@12@E@Z
  00257	6f 00 00 00 00	 callvirt ?set@Font@Control@Forms@Windows@System@@$$FU$AAMXP$AAV1Drawing@5@@Z

; 158  : 			this->answerBox->Location = System::Drawing::Point(73, 13);

  0025c	12 2a		 ldloca.s 42	; $S5$
  0025e	1f 49		 ldc.i4.s 73	; i32 0x49
  00260	1f 0d		 ldc.i4.s 13	; i32 0xd
  00262	28 00 00 00 00	 call ??0Point@Drawing@System@@$$FQ$CAM@HH@Z
  00267	02		 ldarg.0 	; this$
  00268	7b 00 00 00 00	 ldfld ?answerBox@QBuild@Mogitter@@3P$AAVTextBox@Forms@Windows@System@@$AA
  0026d	11 2a		 ldloc.s 42	; $S5$
  0026f	28 00 00 00 00	 call ?set@Location@Control@Forms@Windows@System@@$$FQ$AAMXVPoint@Drawing@5@@Z

; 159  : 			this->answerBox->Name = L"answerBox";

  00274	02		 ldarg.0 	; this$
  00275	7b 00 00 00 00	 ldfld ?answerBox@QBuild@Mogitter@@3P$AAVTextBox@Forms@Windows@System@@$AA
  0027a	72 00 00 00 00	 ldstr $StringLiteralTok$??_C@_1BE@EDHPNFEP@?$AAa?$AAn?$AAs?$AAw?$AAe?$AAr?$AAB?$AAo?$AAx?$AA?$AA@
  0027f	28 00 00 00 00	 call ?set@Name@Control@Forms@Windows@System@@$$FQ$AAMXP$AAVString@5@@Z

; 160  : 			this->answerBox->Size = System::Drawing::Size(389, 30);

  00284	12 29		 ldloca.s 41	; $S6$
  00286	20 85 01 00 00	 ldc.i4 389	; i32 0x185
  0028b	1f 1e		 ldc.i4.s 30	; i32 0x1e
  0028d	28 00 00 00 00	 call ??0Size@Drawing@System@@$$FQ$CAM@HH@Z
  00292	02		 ldarg.0 	; this$
  00293	7b 00 00 00 00	 ldfld ?answerBox@QBuild@Mogitter@@3P$AAVTextBox@Forms@Windows@System@@$AA
  00298	11 29		 ldloc.s 41	; $S6$
  0029a	28 00 00 00 00	 call ?set@Size@Control@Forms@Windows@System@@$$FQ$AAMXV1Drawing@5@@Z

; 161  : 			this->answerBox->TabIndex = 3;

  0029f	02		 ldarg.0 	; this$
  002a0	7b 00 00 00 00	 ldfld ?answerBox@QBuild@Mogitter@@3P$AAVTextBox@Forms@Windows@System@@$AA
  002a5	19		 ldc.i.3 3	; i32 0x3
  002a6	28 00 00 00 00	 call ?set@TabIndex@Control@Forms@Windows@System@@$$FQ$AAMXH@Z

; 162  : 			// 
; 163  : 			// label1
; 164  : 			// 
; 165  : 			this->label1->AutoSize = true;

  002ab	02		 ldarg.0 	; this$
  002ac	7b 00 00 00 00	 ldfld ?label1@QBuild@Mogitter@@3P$AAVLabel@Forms@Windows@System@@$AA
  002b1	17		 ldc.i.1 1	; u8 0x1
  002b2	6f 00 00 00 00	 callvirt ?set@AutoSize@Label@Forms@Windows@System@@$$FU$AAMX_N@Z

; 166  : 			this->label1->Font = (gcnew System::Drawing::Font(L"メイリオ", 11.25F, System::Drawing::FontStyle::Regular, System::Drawing::GraphicsUnit::Point, 
; 167  : 				static_cast<System::Byte>(128)));

  002b7	02		 ldarg.0 	; this$
  002b8	7b 00 00 00 00	 ldfld ?label1@QBuild@Mogitter@@3P$AAVLabel@Forms@Windows@System@@$AA
  002bd	72 00 00 00 00	 ldstr $StringLiteralTok$??_C@_19HMEDOBKD@0?a0?$KE0?j0?$KK?$AA?$AA@
  002c2	22 00 00 34 41	 ldc.r4 11.250000
  002c7	16		 ldc.i.0 0	; i32 0x0
  002c8	19		 ldc.i.3 3	; i32 0x3
  002c9	20 80 00 00 00	 ldc.i4 128	; u8 0x80
  002ce	73 00 00 00 00	 newobj ??0Font@Drawing@System@@$$FQ$AAM@P$AAVString@2@MW4FontStyle@12@W4GraphicsUnit@12@E@Z
  002d3	6f 00 00 00 00	 callvirt ?set@Font@Control@Forms@Windows@System@@$$FU$AAMXP$AAV1Drawing@5@@Z

; 168  : 			this->label1->Location = System::Drawing::Point(12, 16);

  002d8	12 28		 ldloca.s 40	; $S7$
  002da	1f 0c		 ldc.i4.s 12	; i32 0xc
  002dc	1f 10		 ldc.i4.s 16	; i32 0x10
  002de	28 00 00 00 00	 call ??0Point@Drawing@System@@$$FQ$CAM@HH@Z
  002e3	02		 ldarg.0 	; this$
  002e4	7b 00 00 00 00	 ldfld ?label1@QBuild@Mogitter@@3P$AAVLabel@Forms@Windows@System@@$AA
  002e9	11 28		 ldloc.s 40	; $S7$
  002eb	28 00 00 00 00	 call ?set@Location@Control@Forms@Windows@System@@$$FQ$AAMXVPoint@Drawing@5@@Z

; 169  : 			this->label1->Name = L"label1";

  002f0	02		 ldarg.0 	; this$
  002f1	7b 00 00 00 00	 ldfld ?label1@QBuild@Mogitter@@3P$AAVLabel@Forms@Windows@System@@$AA
  002f6	72 00 00 00 00	 ldstr $StringLiteralTok$??_C@_1O@EBCDJCCM@?$AAl?$AAa?$AAb?$AAe?$AAl?$AA1?$AA?$AA@
  002fb	28 00 00 00 00	 call ?set@Name@Control@Forms@Windows@System@@$$FQ$AAMXP$AAVString@5@@Z

; 170  : 			this->label1->Size = System::Drawing::Size(55, 23);

  00300	12 27		 ldloca.s 39	; $S8$
  00302	1f 37		 ldc.i4.s 55	; i32 0x37
  00304	1f 17		 ldc.i4.s 23	; i32 0x17
  00306	28 00 00 00 00	 call ??0Size@Drawing@System@@$$FQ$CAM@HH@Z
  0030b	02		 ldarg.0 	; this$
  0030c	7b 00 00 00 00	 ldfld ?label1@QBuild@Mogitter@@3P$AAVLabel@Forms@Windows@System@@$AA
  00311	11 27		 ldloc.s 39	; $S8$
  00313	28 00 00 00 00	 call ?set@Size@Control@Forms@Windows@System@@$$FQ$AAMXV1Drawing@5@@Z

; 171  : 			this->label1->TabIndex = 4;

  00318	02		 ldarg.0 	; this$
  00319	7b 00 00 00 00	 ldfld ?label1@QBuild@Mogitter@@3P$AAVLabel@Forms@Windows@System@@$AA
  0031e	1a		 ldc.i.4 4	; i32 0x4
  0031f	28 00 00 00 00	 call ?set@TabIndex@Control@Forms@Windows@System@@$$FQ$AAMXH@Z

; 172  : 			this->label1->Text = L"解答：";

  00324	02		 ldarg.0 	; this$
  00325	7b 00 00 00 00	 ldfld ?label1@QBuild@Mogitter@@3P$AAVLabel@Forms@Windows@System@@$AA
  0032a	72 00 00 00 00	 ldstr $StringLiteralTok$??_C@_17BCCNLFBM@?$IJ?c?$HLT?$PP?$BK?$AA?$AA@
  0032f	6f 00 00 00 00	 callvirt ?set@Text@Label@Forms@Windows@System@@$$FU$AAMXP$AAVString@5@@Z

; 173  : 			// 
; 174  : 			// sentakuGroup
; 175  : 			// 
; 176  : 			this->sentakuGroup->Controls->Add(this->sentakushi);

  00334	02		 ldarg.0 	; this$
  00335	7b 00 00 00 00	 ldfld ?sentakuGroup@QBuild@Mogitter@@3P$AAVGroupBox@Forms@Windows@System@@$AA
  0033a	28 00 00 00 00	 call ?get@Controls@Control@Forms@Windows@System@@$$FQ$AAMP$AAVControlCollection@2345@XZ
  0033f	02		 ldarg.0 	; this$
  00340	7b 00 00 00 00	 ldfld ?sentakushi@QBuild@Mogitter@@3P$AAVAzukiControl@WinForms@Azuki@Sgry@@$AA
  00345	6f 00 00 00 00	 callvirt ?Add@ControlCollection@Control@Forms@Windows@System@@$$FU$AAMXP$AAV2345@@Z

; 177  : 			this->sentakuGroup->Controls->Add(this->seikaiNumber);

  0034a	02		 ldarg.0 	; this$
  0034b	7b 00 00 00 00	 ldfld ?sentakuGroup@QBuild@Mogitter@@3P$AAVGroupBox@Forms@Windows@System@@$AA
  00350	28 00 00 00 00	 call ?get@Controls@Control@Forms@Windows@System@@$$FQ$AAMP$AAVControlCollection@2345@XZ
  00355	02		 ldarg.0 	; this$
  00356	7b 00 00 00 00	 ldfld ?seikaiNumber@QBuild@Mogitter@@3P$AAVNumericUpDown@Forms@Windows@System@@$AA
  0035b	6f 00 00 00 00	 callvirt ?Add@ControlCollection@Control@Forms@Windows@System@@$$FU$AAMXP$AAV2345@@Z

; 178  : 			this->sentakuGroup->Controls->Add(this->label5);

  00360	02		 ldarg.0 	; this$
  00361	7b 00 00 00 00	 ldfld ?sentakuGroup@QBuild@Mogitter@@3P$AAVGroupBox@Forms@Windows@System@@$AA
  00366	28 00 00 00 00	 call ?get@Controls@Control@Forms@Windows@System@@$$FQ$AAMP$AAVControlCollection@2345@XZ
  0036b	02		 ldarg.0 	; this$
  0036c	7b 00 00 00 00	 ldfld ?label5@QBuild@Mogitter@@3P$AAVLabel@Forms@Windows@System@@$AA
  00371	6f 00 00 00 00	 callvirt ?Add@ControlCollection@Control@Forms@Windows@System@@$$FU$AAMXP$AAV2345@@Z

; 179  : 			this->sentakuGroup->Controls->Add(this->label4);

  00376	02		 ldarg.0 	; this$
  00377	7b 00 00 00 00	 ldfld ?sentakuGroup@QBuild@Mogitter@@3P$AAVGroupBox@Forms@Windows@System@@$AA
  0037c	28 00 00 00 00	 call ?get@Controls@Control@Forms@Windows@System@@$$FQ$AAMP$AAVControlCollection@2345@XZ
  00381	02		 ldarg.0 	; this$
  00382	7b 00 00 00 00	 ldfld ?label4@QBuild@Mogitter@@3P$AAVLabel@Forms@Windows@System@@$AA
  00387	6f 00 00 00 00	 callvirt ?Add@ControlCollection@Control@Forms@Windows@System@@$$FU$AAMXP$AAV2345@@Z

; 180  : 			this->sentakuGroup->Controls->Add(this->label3);

  0038c	02		 ldarg.0 	; this$
  0038d	7b 00 00 00 00	 ldfld ?sentakuGroup@QBuild@Mogitter@@3P$AAVGroupBox@Forms@Windows@System@@$AA
  00392	28 00 00 00 00	 call ?get@Controls@Control@Forms@Windows@System@@$$FQ$AAMP$AAVControlCollection@2345@XZ
  00397	02		 ldarg.0 	; this$
  00398	7b 00 00 00 00	 ldfld ?label3@QBuild@Mogitter@@3P$AAVLabel@Forms@Windows@System@@$AA
  0039d	6f 00 00 00 00	 callvirt ?Add@ControlCollection@Control@Forms@Windows@System@@$$FU$AAMXP$AAV2345@@Z

; 181  : 			this->sentakuGroup->Controls->Add(this->katakana_abc);

  003a2	02		 ldarg.0 	; this$
  003a3	7b 00 00 00 00	 ldfld ?sentakuGroup@QBuild@Mogitter@@3P$AAVGroupBox@Forms@Windows@System@@$AA
  003a8	28 00 00 00 00	 call ?get@Controls@Control@Forms@Windows@System@@$$FQ$AAMP$AAVControlCollection@2345@XZ
  003ad	02		 ldarg.0 	; this$
  003ae	7b 00 00 00 00	 ldfld ?katakana_abc@QBuild@Mogitter@@3P$AAVRadioButton@Forms@Windows@System@@$AA
  003b3	6f 00 00 00 00	 callvirt ?Add@ControlCollection@Control@Forms@Windows@System@@$$FU$AAMXP$AAV2345@@Z

; 182  : 			this->sentakuGroup->Controls->Add(this->kana_abc);

  003b8	02		 ldarg.0 	; this$
  003b9	7b 00 00 00 00	 ldfld ?sentakuGroup@QBuild@Mogitter@@3P$AAVGroupBox@Forms@Windows@System@@$AA
  003be	28 00 00 00 00	 call ?get@Controls@Control@Forms@Windows@System@@$$FQ$AAMP$AAVControlCollection@2345@XZ
  003c3	02		 ldarg.0 	; this$
  003c4	7b 00 00 00 00	 ldfld ?kana_abc@QBuild@Mogitter@@3P$AAVRadioButton@Forms@Windows@System@@$AA
  003c9	6f 00 00 00 00	 callvirt ?Add@ControlCollection@Control@Forms@Windows@System@@$$FU$AAMXP$AAV2345@@Z

; 183  : 			this->sentakuGroup->Controls->Add(this->ABC_);

  003ce	02		 ldarg.0 	; this$
  003cf	7b 00 00 00 00	 ldfld ?sentakuGroup@QBuild@Mogitter@@3P$AAVGroupBox@Forms@Windows@System@@$AA
  003d4	28 00 00 00 00	 call ?get@Controls@Control@Forms@Windows@System@@$$FQ$AAMP$AAVControlCollection@2345@XZ
  003d9	02		 ldarg.0 	; this$
  003da	7b 00 00 00 00	 ldfld ?ABC_@QBuild@Mogitter@@3P$AAVRadioButton@Forms@Windows@System@@$AA
  003df	6f 00 00 00 00	 callvirt ?Add@ControlCollection@Control@Forms@Windows@System@@$$FU$AAMXP$AAV2345@@Z

; 184  : 			this->sentakuGroup->Controls->Add(this->abc);

  003e4	02		 ldarg.0 	; this$
  003e5	7b 00 00 00 00	 ldfld ?sentakuGroup@QBuild@Mogitter@@3P$AAVGroupBox@Forms@Windows@System@@$AA
  003ea	28 00 00 00 00	 call ?get@Controls@Control@Forms@Windows@System@@$$FQ$AAMP$AAVControlCollection@2345@XZ
  003ef	02		 ldarg.0 	; this$
  003f0	7b 00 00 00 00	 ldfld ?abc@QBuild@Mogitter@@3P$AAVRadioButton@Forms@Windows@System@@$AA
  003f5	6f 00 00 00 00	 callvirt ?Add@ControlCollection@Control@Forms@Windows@System@@$$FU$AAMXP$AAV2345@@Z

; 185  : 			this->sentakuGroup->Controls->Add(this->label2);

  003fa	02		 ldarg.0 	; this$
  003fb	7b 00 00 00 00	 ldfld ?sentakuGroup@QBuild@Mogitter@@3P$AAVGroupBox@Forms@Windows@System@@$AA
  00400	28 00 00 00 00	 call ?get@Controls@Control@Forms@Windows@System@@$$FQ$AAMP$AAVControlCollection@2345@XZ
  00405	02		 ldarg.0 	; this$
  00406	7b 00 00 00 00	 ldfld ?label2@QBuild@Mogitter@@3P$AAVLabel@Forms@Windows@System@@$AA
  0040b	6f 00 00 00 00	 callvirt ?Add@ControlCollection@Control@Forms@Windows@System@@$$FU$AAMXP$AAV2345@@Z

; 186  : 			this->sentakuGroup->Font = (gcnew System::Drawing::Font(L"メイリオ", 9.75F, System::Drawing::FontStyle::Regular, System::Drawing::GraphicsUnit::Point, 
; 187  : 				static_cast<System::Byte>(128)));

  00410	02		 ldarg.0 	; this$
  00411	7b 00 00 00 00	 ldfld ?sentakuGroup@QBuild@Mogitter@@3P$AAVGroupBox@Forms@Windows@System@@$AA
  00416	72 00 00 00 00	 ldstr $StringLiteralTok$??_C@_19HMEDOBKD@0?a0?$KE0?j0?$KK?$AA?$AA@
  0041b	22 00 00 1c 41	 ldc.r4 9.750000
  00420	16		 ldc.i.0 0	; i32 0x0
  00421	19		 ldc.i.3 3	; i32 0x3
  00422	20 80 00 00 00	 ldc.i4 128	; u8 0x80
  00427	73 00 00 00 00	 newobj ??0Font@Drawing@System@@$$FQ$AAM@P$AAVString@2@MW4FontStyle@12@W4GraphicsUnit@12@E@Z
  0042c	6f 00 00 00 00	 callvirt ?set@Font@Control@Forms@Windows@System@@$$FU$AAMXP$AAV1Drawing@5@@Z

; 188  : 			this->sentakuGroup->Location = System::Drawing::Point(12, 49);

  00431	12 26		 ldloca.s 38	; $S9$
  00433	1f 0c		 ldc.i4.s 12	; i32 0xc
  00435	1f 31		 ldc.i4.s 49	; i32 0x31
  00437	28 00 00 00 00	 call ??0Point@Drawing@System@@$$FQ$CAM@HH@Z
  0043c	02		 ldarg.0 	; this$
  0043d	7b 00 00 00 00	 ldfld ?sentakuGroup@QBuild@Mogitter@@3P$AAVGroupBox@Forms@Windows@System@@$AA
  00442	11 26		 ldloc.s 38	; $S9$
  00444	28 00 00 00 00	 call ?set@Location@Control@Forms@Windows@System@@$$FQ$AAMXVPoint@Drawing@5@@Z

; 189  : 			this->sentakuGroup->Name = L"sentakuGroup";

  00449	02		 ldarg.0 	; this$
  0044a	7b 00 00 00 00	 ldfld ?sentakuGroup@QBuild@Mogitter@@3P$AAVGroupBox@Forms@Windows@System@@$AA
  0044f	72 00 00 00 00	 ldstr $StringLiteralTok$??_C@_1BK@PBOPCCAN@?$AAs?$AAe?$AAn?$AAt?$AAa?$AAk?$AAu?$AAG?$AAr?$AAo?$AAu?$AAp?$AA?$AA@
  00454	28 00 00 00 00	 call ?set@Name@Control@Forms@Windows@System@@$$FQ$AAMXP$AAVString@5@@Z

; 190  : 			this->sentakuGroup->Size = System::Drawing::Size(449, 259);

  00459	12 25		 ldloca.s 37	; $S10$
  0045b	20 c1 01 00 00	 ldc.i4 449	; i32 0x1c1
  00460	20 03 01 00 00	 ldc.i4 259	; i32 0x103
  00465	28 00 00 00 00	 call ??0Size@Drawing@System@@$$FQ$CAM@HH@Z
  0046a	02		 ldarg.0 	; this$
  0046b	7b 00 00 00 00	 ldfld ?sentakuGroup@QBuild@Mogitter@@3P$AAVGroupBox@Forms@Windows@System@@$AA
  00470	11 25		 ldloc.s 37	; $S10$
  00472	28 00 00 00 00	 call ?set@Size@Control@Forms@Windows@System@@$$FQ$AAMXV1Drawing@5@@Z

; 191  : 			this->sentakuGroup->TabIndex = 8;

  00477	02		 ldarg.0 	; this$
  00478	7b 00 00 00 00	 ldfld ?sentakuGroup@QBuild@Mogitter@@3P$AAVGroupBox@Forms@Windows@System@@$AA
  0047d	1e		 ldc.i.8 8	; i32 0x8
  0047e	28 00 00 00 00	 call ?set@TabIndex@Control@Forms@Windows@System@@$$FQ$AAMXH@Z

; 192  : 			this->sentakuGroup->TabStop = false;

  00483	02		 ldarg.0 	; this$
  00484	7b 00 00 00 00	 ldfld ?sentakuGroup@QBuild@Mogitter@@3P$AAVGroupBox@Forms@Windows@System@@$AA
  00489	16		 ldc.i.0 0	; u8 0x0
  0048a	28 00 00 00 00	 call ?set@TabStop@GroupBox@Forms@Windows@System@@$$FQ$AAMX_N@Z

; 193  : 			this->sentakuGroup->Text = L"選択問題オプション(穴埋め問題を作成するときは記入不要)";

  0048f	02		 ldarg.0 	; this$
  00490	7b 00 00 00 00	 ldfld ?sentakuGroup@QBuild@Mogitter@@3P$AAVGroupBox@Forms@Windows@System@@$AA
  00495	72 00 00 00 00	 ldstr $StringLiteralTok$??_C@_1DK@LEKCMHN@?$JAxb?$JOUO?$JIL0?$KK0?W0?$LH0?g0?s?$AA?$CIztW?K0?$IBUO?$JIL0?$JCO?2b?$BA0Y0?$IL0h0M0o?$IK?$BIQeN?$AN?$IJ?$IB?$AA?$CJ?$AA?$AA@
  0049a	6f 00 00 00 00	 callvirt ?set@Text@GroupBox@Forms@Windows@System@@$$FU$AAMXP$AAVString@5@@Z

; 194  : 			// 
; 195  : 			// sentakushi
; 196  : 			// 
; 197  : 			this->sentakushi->BackColor = System::Drawing::Color::White;

  0049f	28 00 00 00 00	 call ?get@White@Color@Drawing@System@@$$FSM?AV234@XZ
  004a4	13 24		 stloc.s 36	; $T3
  004a6	02		 ldarg.0 	; this$
  004a7	7b 00 00 00 00	 ldfld ?sentakushi@QBuild@Mogitter@@3P$AAVAzukiControl@WinForms@Azuki@Sgry@@$AA
  004ac	11 24		 ldloc.s 36	; $T3
  004ae	6f 00 00 00 00	 callvirt ?set@BackColor@AzukiControl@WinForms@Azuki@Sgry@@$$FU$AAMXVColor@Drawing@System@@@Z

; 198  : 			this->sentakushi->Cursor = System::Windows::Forms::Cursors::IBeam;

  004b3	02		 ldarg.0 	; this$
  004b4	7b 00 00 00 00	 ldfld ?sentakushi@QBuild@Mogitter@@3P$AAVAzukiControl@WinForms@Azuki@Sgry@@$AA
  004b9	28 00 00 00 00	 call ?get@IBeam@Cursors@Forms@Windows@System@@$$FSMP$AAVCursor@345@XZ
  004be	6f 00 00 00 00	 callvirt ?set@Cursor@Control@Forms@Windows@System@@$$FU$AAMXP$AAV1345@@Z

; 199  : 			this->sentakushi->DrawingOption = static_cast<Sgry::Azuki::DrawingOption>(((((Sgry::Azuki::DrawingOption::DrawsFullWidthSpace | Sgry::Azuki::DrawingOption::DrawsTab) 
; 200  : 				| Sgry::Azuki::DrawingOption::HighlightCurrentLine) 
; 201  : 				| Sgry::Azuki::DrawingOption::ShowsLineNumber) 
; 202  : 				| Sgry::Azuki::DrawingOption::HighlightsMatchedBracket));

  004c3	02		 ldarg.0 	; this$
  004c4	7b 00 00 00 00	 ldfld ?sentakushi@QBuild@Mogitter@@3P$AAVAzukiControl@WinForms@Azuki@Sgry@@$AA
  004c9	20 36 02 00 00	 ldc.i4 566	; i32 0x236
  004ce	6f 00 00 00 00	 callvirt ?set@DrawingOption@AzukiControl@WinForms@Azuki@Sgry@@$$FU$AAMXW4145@@Z

; 203  : 			this->sentakushi->DrawsEolCode = false;

  004d3	02		 ldarg.0 	; this$
  004d4	7b 00 00 00 00	 ldfld ?sentakushi@QBuild@Mogitter@@3P$AAVAzukiControl@WinForms@Azuki@Sgry@@$AA
  004d9	16		 ldc.i.0 0	; u8 0x0
  004da	6f 00 00 00 00	 callvirt ?set@DrawsEolCode@AzukiControl@WinForms@Azuki@Sgry@@$$FU$AAMX_N@Z

; 204  : 			this->sentakushi->FirstVisibleLine = 0;

  004df	02		 ldarg.0 	; this$
  004e0	7b 00 00 00 00	 ldfld ?sentakushi@QBuild@Mogitter@@3P$AAVAzukiControl@WinForms@Azuki@Sgry@@$AA
  004e5	16		 ldc.i.0 0	; i32 0x0
  004e6	28 00 00 00 00	 call ?set@FirstVisibleLine@AzukiControl@WinForms@Azuki@Sgry@@$$FQ$AAMXH@Z

; 205  : 			this->sentakushi->Font = (gcnew System::Drawing::Font(L"メイリオ", 11));

  004eb	02		 ldarg.0 	; this$
  004ec	7b 00 00 00 00	 ldfld ?sentakushi@QBuild@Mogitter@@3P$AAVAzukiControl@WinForms@Azuki@Sgry@@$AA
  004f1	72 00 00 00 00	 ldstr $StringLiteralTok$??_C@_19HMEDOBKD@0?a0?$KE0?j0?$KK?$AA?$AA@
  004f6	22 00 00 30 41	 ldc.r4 11.000000
  004fb	73 00 00 00 00	 newobj ??0Font@Drawing@System@@$$FQ$AAM@P$AAVString@2@M@Z
  00500	6f 00 00 00 00	 callvirt ?set@Font@AzukiControl@WinForms@Azuki@Sgry@@$$FU$AAMXP$AAV1Drawing@System@@@Z

; 206  : 			fontInfo2->Name = L"メイリオ";

  00505	09		 ldloc.3 	; fontInfo2$
  00506	72 00 00 00 00	 ldstr $StringLiteralTok$??_C@_19HMEDOBKD@0?a0?$KE0?j0?$KK?$AA?$AA@
  0050b	28 00 00 00 00	 call ?set@Name@FontInfo@Azuki@Sgry@@$$FQ$AAMXP$AAVString@System@@@Z

; 207  : 			fontInfo2->Size = 11;

  00510	09		 ldloc.3 	; fontInfo2$
  00511	1f 0b		 ldc.i4.s 11	; i32 0xb
  00513	28 00 00 00 00	 call ?set@Size@FontInfo@Azuki@Sgry@@$$FQ$AAMXH@Z

; 208  : 			fontInfo2->Style = System::Drawing::FontStyle::Regular;

  00518	09		 ldloc.3 	; fontInfo2$
  00519	16		 ldc.i.0 0	; i32 0x0
  0051a	28 00 00 00 00	 call ?set@Style@FontInfo@Azuki@Sgry@@$$FQ$AAMXW4FontStyle@Drawing@System@@@Z

; 209  : 			this->sentakushi->FontInfo = fontInfo2;

  0051f	02		 ldarg.0 	; this$
  00520	7b 00 00 00 00	 ldfld ?sentakushi@QBuild@Mogitter@@3P$AAVAzukiControl@WinForms@Azuki@Sgry@@$AA
  00525	09		 ldloc.3 	; fontInfo2$
  00526	6f 00 00 00 00	 callvirt ?set@FontInfo@AzukiControl@WinForms@Azuki@Sgry@@$$FU$AAMXP$AAV145@@Z

; 210  : 			this->sentakushi->ForeColor = System::Drawing::Color::Black;

  0052b	28 00 00 00 00	 call ?get@Black@Color@Drawing@System@@$$FSM?AV234@XZ
  00530	13 23		 stloc.s 35	; $T4
  00532	02		 ldarg.0 	; this$
  00533	7b 00 00 00 00	 ldfld ?sentakushi@QBuild@Mogitter@@3P$AAVAzukiControl@WinForms@Azuki@Sgry@@$AA
  00538	11 23		 ldloc.s 35	; $T4
  0053a	6f 00 00 00 00	 callvirt ?set@ForeColor@AzukiControl@WinForms@Azuki@Sgry@@$$FU$AAMXVColor@Drawing@System@@@Z

; 211  : 			this->sentakushi->Location = System::Drawing::Point(6, 59);

  0053f	12 22		 ldloca.s 34	; $S11$
  00541	1c		 ldc.i.6 6	; i32 0x6
  00542	1f 3b		 ldc.i4.s 59	; i32 0x3b
  00544	28 00 00 00 00	 call ??0Point@Drawing@System@@$$FQ$CAM@HH@Z
  00549	02		 ldarg.0 	; this$
  0054a	7b 00 00 00 00	 ldfld ?sentakushi@QBuild@Mogitter@@3P$AAVAzukiControl@WinForms@Azuki@Sgry@@$AA
  0054f	11 22		 ldloc.s 34	; $S11$
  00551	28 00 00 00 00	 call ?set@Location@Control@Forms@Windows@System@@$$FQ$AAMXVPoint@Drawing@5@@Z

; 212  : 			this->sentakushi->Name = L"sentakushi";

  00556	02		 ldarg.0 	; this$
  00557	7b 00 00 00 00	 ldfld ?sentakushi@QBuild@Mogitter@@3P$AAVAzukiControl@WinForms@Azuki@Sgry@@$AA
  0055c	72 00 00 00 00	 ldstr $StringLiteralTok$??_C@_1BG@KMJDFGBH@?$AAs?$AAe?$AAn?$AAt?$AAa?$AAk?$AAu?$AAs?$AAh?$AAi?$AA?$AA@
  00561	28 00 00 00 00	 call ?set@Name@Control@Forms@Windows@System@@$$FQ$AAMXP$AAVString@5@@Z

; 213  : 			this->sentakushi->ScrollPos = System::Drawing::Point(0, 0);

  00566	12 21		 ldloca.s 33	; $S12$
  00568	16		 ldc.i.0 0	; i32 0x0
  00569	16		 ldc.i.0 0	; i32 0x0
  0056a	28 00 00 00 00	 call ??0Point@Drawing@System@@$$FQ$CAM@HH@Z
  0056f	02		 ldarg.0 	; this$
  00570	7b 00 00 00 00	 ldfld ?sentakushi@QBuild@Mogitter@@3P$AAVAzukiControl@WinForms@Azuki@Sgry@@$AA
  00575	11 21		 ldloc.s 33	; $S12$
  00577	6f 00 00 00 00	 callvirt ?set@ScrollPos@AzukiControl@WinForms@Azuki@Sgry@@$$FU$AAMXVPoint@Drawing@System@@@Z

; 214  : 			this->sentakushi->ScrollsBeyondLastLine = false;

  0057c	02		 ldarg.0 	; this$
  0057d	7b 00 00 00 00	 ldfld ?sentakushi@QBuild@Mogitter@@3P$AAVAzukiControl@WinForms@Azuki@Sgry@@$AA
  00582	16		 ldc.i.0 0	; u8 0x0
  00583	28 00 00 00 00	 call ?set@ScrollsBeyondLastLine@AzukiControl@WinForms@Azuki@Sgry@@$$FQ$AAMX_N@Z

; 215  : 			this->sentakushi->ShowsDirtBar = false;

  00588	02		 ldarg.0 	; this$
  00589	7b 00 00 00 00	 ldfld ?sentakushi@QBuild@Mogitter@@3P$AAVAzukiControl@WinForms@Azuki@Sgry@@$AA
  0058e	16		 ldc.i.0 0	; u8 0x0
  0058f	6f 00 00 00 00	 callvirt ?set@ShowsDirtBar@AzukiControl@WinForms@Azuki@Sgry@@$$FU$AAMX_N@Z

; 216  : 			this->sentakushi->ShowsHScrollBar = false;

  00594	02		 ldarg.0 	; this$
  00595	7b 00 00 00 00	 ldfld ?sentakushi@QBuild@Mogitter@@3P$AAVAzukiControl@WinForms@Azuki@Sgry@@$AA
  0059a	16		 ldc.i.0 0	; u8 0x0
  0059b	6f 00 00 00 00	 callvirt ?set@ShowsHScrollBar@AzukiControl@WinForms@Azuki@Sgry@@$$FU$AAMX_N@Z

; 217  : 			this->sentakushi->Size = System::Drawing::Size(229, 194);

  005a0	12 20		 ldloca.s 32	; $S13$
  005a2	20 e5 00 00 00	 ldc.i4 229	; i32 0xe5
  005a7	20 c2 00 00 00	 ldc.i4 194	; i32 0xc2
  005ac	28 00 00 00 00	 call ??0Size@Drawing@System@@$$FQ$CAM@HH@Z
  005b1	02		 ldarg.0 	; this$
  005b2	7b 00 00 00 00	 ldfld ?sentakushi@QBuild@Mogitter@@3P$AAVAzukiControl@WinForms@Azuki@Sgry@@$AA
  005b7	11 20		 ldloc.s 32	; $S13$
  005b9	28 00 00 00 00	 call ?set@Size@Control@Forms@Windows@System@@$$FQ$AAMXV1Drawing@5@@Z

; 218  : 			this->sentakushi->TabIndex = 8;

  005be	02		 ldarg.0 	; this$
  005bf	7b 00 00 00 00	 ldfld ?sentakushi@QBuild@Mogitter@@3P$AAVAzukiControl@WinForms@Azuki@Sgry@@$AA
  005c4	1e		 ldc.i.8 8	; i32 0x8
  005c5	28 00 00 00 00	 call ?set@TabIndex@Control@Forms@Windows@System@@$$FQ$AAMXH@Z

; 219  : 			this->sentakushi->ViewType = Sgry::Azuki::ViewType::WrappedProportional;

  005ca	02		 ldarg.0 	; this$
  005cb	7b 00 00 00 00	 ldfld ?sentakushi@QBuild@Mogitter@@3P$AAVAzukiControl@WinForms@Azuki@Sgry@@$AA
  005d0	17		 ldc.i.1 1	; i32 0x1
  005d1	6f 00 00 00 00	 callvirt ?set@ViewType@AzukiControl@WinForms@Azuki@Sgry@@$$FU$AAMXW4145@@Z

; 220  : 			this->sentakushi->ViewWidth = 207;

  005d6	02		 ldarg.0 	; this$
  005d7	7b 00 00 00 00	 ldfld ?sentakushi@QBuild@Mogitter@@3P$AAVAzukiControl@WinForms@Azuki@Sgry@@$AA
  005dc	20 cf 00 00 00	 ldc.i4 207	; i32 0xcf
  005e1	6f 00 00 00 00	 callvirt ?set@ViewWidth@AzukiControl@WinForms@Azuki@Sgry@@$$FU$AAMXH@Z

; 221  : 			this->sentakushi->TextChanged += gcnew System::EventHandler(this, &QBuild::sentakushi_TextChanged);

  005e6	02		 ldarg.0 	; this$
  005e7	7b 00 00 00 00	 ldfld ?sentakushi@QBuild@Mogitter@@3P$AAVAzukiControl@WinForms@Azuki@Sgry@@$AA
  005ec	02		 ldarg.0 	; this$
  005ed	fe 06 00 00 00
	00		 ldftn ?sentakushi_TextChanged@QBuild@Mogitter@@$$FA$AAMXP$AAVObject@System@@P$AAVEventArgs@4@@Z
  005f3	73 00 00 00 00	 newobj ??0EventHandler@System@@$$FQ$AAM@P$AAVObject@1@VIntPtr@1@@Z
  005f8	28 00 00 00 00	 call ?add@TextChanged@Control@Forms@Windows@System@@$$FQ$AAMXP$AAVEventHandler@5@@Z

; 222  : 			// 
; 223  : 			// seikaiNumber
; 224  : 			// 
; 225  : 			this->seikaiNumber->BackColor = System::Drawing::Color::FromArgb(static_cast<System::Int32>(static_cast<System::Byte>(255)), static_cast<System::Int32>(static_cast<System::Byte>(255)), 
; 226  : 				static_cast<System::Int32>(static_cast<System::Byte>(192)));

  005fd	20 ff 00 00 00	 ldc.i4 255	; i32 0xff
  00602	20 ff 00 00 00	 ldc.i4 255	; i32 0xff
  00607	20 c0 00 00 00	 ldc.i4 192	; i32 0xc0
  0060c	28 00 00 00 00	 call ?FromArgb@Color@Drawing@System@@$$FSM?AV123@HHH@Z
  00611	13 1f		 stloc.s 31	; $T5
  00613	02		 ldarg.0 	; this$
  00614	7b 00 00 00 00	 ldfld ?seikaiNumber@QBuild@Mogitter@@3P$AAVNumericUpDown@Forms@Windows@System@@$AA
  00619	11 1f		 ldloc.s 31	; $T5
  0061b	6f 00 00 00 00	 callvirt ?set@BackColor@UpDownBase@Forms@Windows@System@@$$FU$AAMXVColor@Drawing@5@@Z

; 227  : 			this->seikaiNumber->Font = (gcnew System::Drawing::Font(L"メイリオ", 14.25F, System::Drawing::FontStyle::Bold, System::Drawing::GraphicsUnit::Point, 
; 228  : 				static_cast<System::Byte>(128)));

  00620	02		 ldarg.0 	; this$
  00621	7b 00 00 00 00	 ldfld ?seikaiNumber@QBuild@Mogitter@@3P$AAVNumericUpDown@Forms@Windows@System@@$AA
  00626	72 00 00 00 00	 ldstr $StringLiteralTok$??_C@_19HMEDOBKD@0?a0?$KE0?j0?$KK?$AA?$AA@
  0062b	22 00 00 64 41	 ldc.r4 14.250000
  00630	17		 ldc.i.1 1	; i32 0x1
  00631	19		 ldc.i.3 3	; i32 0x3
  00632	20 80 00 00 00	 ldc.i4 128	; u8 0x80
  00637	73 00 00 00 00	 newobj ??0Font@Drawing@System@@$$FQ$AAM@P$AAVString@2@MW4FontStyle@12@W4GraphicsUnit@12@E@Z
  0063c	6f 00 00 00 00	 callvirt ?set@Font@Control@Forms@Windows@System@@$$FU$AAMXP$AAV1Drawing@5@@Z

; 229  : 			this->seikaiNumber->ForeColor = System::Drawing::Color::Red;

  00641	28 00 00 00 00	 call ?get@Red@Color@Drawing@System@@$$FSM?AV234@XZ
  00646	13 1e		 stloc.s 30	; $T6
  00648	02		 ldarg.0 	; this$
  00649	7b 00 00 00 00	 ldfld ?seikaiNumber@QBuild@Mogitter@@3P$AAVNumericUpDown@Forms@Windows@System@@$AA
  0064e	11 1e		 ldloc.s 30	; $T6
  00650	6f 00 00 00 00	 callvirt ?set@ForeColor@UpDownBase@Forms@Windows@System@@$$FU$AAMXVColor@Drawing@5@@Z

; 230  : 			this->seikaiNumber->Location = System::Drawing::Point(298, 52);

  00655	12 1d		 ldloca.s 29	; $S14$
  00657	20 2a 01 00 00	 ldc.i4 298	; i32 0x12a
  0065c	1f 34		 ldc.i4.s 52	; i32 0x34
  0065e	28 00 00 00 00	 call ??0Point@Drawing@System@@$$FQ$CAM@HH@Z
  00663	02		 ldarg.0 	; this$
  00664	7b 00 00 00 00	 ldfld ?seikaiNumber@QBuild@Mogitter@@3P$AAVNumericUpDown@Forms@Windows@System@@$AA
  00669	11 1d		 ldloc.s 29	; $S14$
  0066b	28 00 00 00 00	 call ?set@Location@Control@Forms@Windows@System@@$$FQ$AAMXVPoint@Drawing@5@@Z

; 231  : 			this->seikaiNumber->Maximum = System::Decimal(gcnew cli::array< System::Int32 >(4) {1, 0, 0, 0});

  00670	1a		 ldc.i.4 4	; i32 0x4
  00671	8d 00 00 00 00	 newarr $TypeTok$110E9E58$
  00676	0c		 stloc.2 	; $S15$
  00677	08		 ldloc.2 	; $S15$
  00678	16		 ldc.i.0 0	; i32 0x0
  00679	17		 ldc.i.1 1	; i32 0x1
  0067a	9e		 stelem.i4 
  0067b	08		 ldloc.2 	; $S15$
  0067c	17		 ldc.i.1 1	; i32 0x1
  0067d	16		 ldc.i.0 0	; i32 0x0
  0067e	9e		 stelem.i4 
  0067f	08		 ldloc.2 	; $S15$
  00680	18		 ldc.i.2 2	; i32 0x2
  00681	16		 ldc.i.0 0	; i32 0x0
  00682	9e		 stelem.i4 
  00683	08		 ldloc.2 	; $S15$
  00684	19		 ldc.i.3 3	; i32 0x3
  00685	16		 ldc.i.0 0	; i32 0x0
  00686	9e		 stelem.i4 
  00687	12 1c		 ldloca.s 28	; $T7
  00689	08		 ldloc.2 	; $S15$
  0068a	28 00 00 00 00	 call ??0Decimal@System@@$$FQ$CAM@P$01AH@Z
  0068f	02		 ldarg.0 	; this$
  00690	7b 00 00 00 00	 ldfld ?seikaiNumber@QBuild@Mogitter@@3P$AAVNumericUpDown@Forms@Windows@System@@$AA
  00695	11 1c		 ldloc.s 28	; $T7
  00697	28 00 00 00 00	 call ?set@Maximum@NumericUpDown@Forms@Windows@System@@$$FQ$AAMXVDecimal@5@@Z

; 232  : 			this->seikaiNumber->Minimum = System::Decimal(gcnew cli::array< System::Int32 >(4) {1, 0, 0, 0});

  0069c	1a		 ldc.i.4 4	; i32 0x4
  0069d	8d 00 00 00 00	 newarr $TypeTok$110E9E58$
  006a2	0b		 stloc.1 	; $S16$
  006a3	07		 ldloc.1 	; $S16$
  006a4	16		 ldc.i.0 0	; i32 0x0
  006a5	17		 ldc.i.1 1	; i32 0x1
  006a6	9e		 stelem.i4 
  006a7	07		 ldloc.1 	; $S16$
  006a8	17		 ldc.i.1 1	; i32 0x1
  006a9	16		 ldc.i.0 0	; i32 0x0
  006aa	9e		 stelem.i4 
  006ab	07		 ldloc.1 	; $S16$
  006ac	18		 ldc.i.2 2	; i32 0x2
  006ad	16		 ldc.i.0 0	; i32 0x0
  006ae	9e		 stelem.i4 
  006af	07		 ldloc.1 	; $S16$
  006b0	19		 ldc.i.3 3	; i32 0x3
  006b1	16		 ldc.i.0 0	; i32 0x0
  006b2	9e		 stelem.i4 
  006b3	12 1b		 ldloca.s 27	; $T8
  006b5	07		 ldloc.1 	; $S16$
  006b6	28 00 00 00 00	 call ??0Decimal@System@@$$FQ$CAM@P$01AH@Z
  006bb	02		 ldarg.0 	; this$
  006bc	7b 00 00 00 00	 ldfld ?seikaiNumber@QBuild@Mogitter@@3P$AAVNumericUpDown@Forms@Windows@System@@$AA
  006c1	11 1b		 ldloc.s 27	; $T8
  006c3	28 00 00 00 00	 call ?set@Minimum@NumericUpDown@Forms@Windows@System@@$$FQ$AAMXVDecimal@5@@Z

; 233  : 			this->seikaiNumber->Name = L"seikaiNumber";

  006c8	02		 ldarg.0 	; this$
  006c9	7b 00 00 00 00	 ldfld ?seikaiNumber@QBuild@Mogitter@@3P$AAVNumericUpDown@Forms@Windows@System@@$AA
  006ce	72 00 00 00 00	 ldstr $StringLiteralTok$??_C@_1BK@HHEMDAEM@?$AAs?$AAe?$AAi?$AAk?$AAa?$AAi?$AAN?$AAu?$AAm?$AAb?$AAe?$AAr?$AA?$AA@
  006d3	28 00 00 00 00	 call ?set@Name@Control@Forms@Windows@System@@$$FQ$AAMXP$AAVString@5@@Z

; 234  : 			this->seikaiNumber->Size = System::Drawing::Size(51, 36);

  006d8	12 1a		 ldloca.s 26	; $S17$
  006da	1f 33		 ldc.i4.s 51	; i32 0x33
  006dc	1f 24		 ldc.i4.s 36	; i32 0x24
  006de	28 00 00 00 00	 call ??0Size@Drawing@System@@$$FQ$CAM@HH@Z
  006e3	02		 ldarg.0 	; this$
  006e4	7b 00 00 00 00	 ldfld ?seikaiNumber@QBuild@Mogitter@@3P$AAVNumericUpDown@Forms@Windows@System@@$AA
  006e9	11 1a		 ldloc.s 26	; $S17$
  006eb	28 00 00 00 00	 call ?set@Size@Control@Forms@Windows@System@@$$FQ$AAMXV1Drawing@5@@Z

; 235  : 			this->seikaiNumber->TabIndex = 10;

  006f0	02		 ldarg.0 	; this$
  006f1	7b 00 00 00 00	 ldfld ?seikaiNumber@QBuild@Mogitter@@3P$AAVNumericUpDown@Forms@Windows@System@@$AA
  006f6	1f 0a		 ldc.i4.s 10	; i32 0xa
  006f8	28 00 00 00 00	 call ?set@TabIndex@Control@Forms@Windows@System@@$$FQ$AAMXH@Z

; 236  : 			this->seikaiNumber->TextAlign = System::Windows::Forms::HorizontalAlignment::Right;

  006fd	02		 ldarg.0 	; this$
  006fe	7b 00 00 00 00	 ldfld ?seikaiNumber@QBuild@Mogitter@@3P$AAVNumericUpDown@Forms@Windows@System@@$AA
  00703	17		 ldc.i.1 1	; i32 0x1
  00704	28 00 00 00 00	 call ?set@TextAlign@UpDownBase@Forms@Windows@System@@$$FQ$AAMXW4HorizontalAlignment@345@@Z

; 237  : 			this->seikaiNumber->Value = System::Decimal(gcnew cli::array< System::Int32 >(4) {1, 0, 0, 0});

  00709	1a		 ldc.i.4 4	; i32 0x4
  0070a	8d 00 00 00 00	 newarr $TypeTok$110E9E58$
  0070f	0a		 stloc.0 	; $S18$
  00710	06		 ldloc.0 	; $S18$
  00711	16		 ldc.i.0 0	; i32 0x0
  00712	17		 ldc.i.1 1	; i32 0x1
  00713	9e		 stelem.i4 
  00714	06		 ldloc.0 	; $S18$
  00715	17		 ldc.i.1 1	; i32 0x1
  00716	16		 ldc.i.0 0	; i32 0x0
  00717	9e		 stelem.i4 
  00718	06		 ldloc.0 	; $S18$
  00719	18		 ldc.i.2 2	; i32 0x2
  0071a	16		 ldc.i.0 0	; i32 0x0
  0071b	9e		 stelem.i4 
  0071c	06		 ldloc.0 	; $S18$
  0071d	19		 ldc.i.3 3	; i32 0x3
  0071e	16		 ldc.i.0 0	; i32 0x0
  0071f	9e		 stelem.i4 
  00720	12 19		 ldloca.s 25	; $T9
  00722	06		 ldloc.0 	; $S18$
  00723	28 00 00 00 00	 call ??0Decimal@System@@$$FQ$CAM@P$01AH@Z
  00728	02		 ldarg.0 	; this$
  00729	7b 00 00 00 00	 ldfld ?seikaiNumber@QBuild@Mogitter@@3P$AAVNumericUpDown@Forms@Windows@System@@$AA
  0072e	11 19		 ldloc.s 25	; $T9
  00730	28 00 00 00 00	 call ?set@Value@NumericUpDown@Forms@Windows@System@@$$FQ$AAMXVDecimal@5@@Z

; 238  : 			// 
; 239  : 			// label5
; 240  : 			// 
; 241  : 			this->label5->AutoSize = true;

  00735	02		 ldarg.0 	; this$
  00736	7b 00 00 00 00	 ldfld ?label5@QBuild@Mogitter@@3P$AAVLabel@Forms@Windows@System@@$AA
  0073b	17		 ldc.i.1 1	; u8 0x1
  0073c	6f 00 00 00 00	 callvirt ?set@AutoSize@Label@Forms@Windows@System@@$$FU$AAMX_N@Z

; 242  : 			this->label5->Font = (gcnew System::Drawing::Font(L"メイリオ", 12, System::Drawing::FontStyle::Regular, System::Drawing::GraphicsUnit::Point, 
; 243  : 				static_cast<System::Byte>(128)));

  00741	02		 ldarg.0 	; this$
  00742	7b 00 00 00 00	 ldfld ?label5@QBuild@Mogitter@@3P$AAVLabel@Forms@Windows@System@@$AA
  00747	72 00 00 00 00	 ldstr $StringLiteralTok$??_C@_19HMEDOBKD@0?a0?$KE0?j0?$KK?$AA?$AA@
  0074c	22 00 00 40 41	 ldc.r4 12.000000
  00751	16		 ldc.i.0 0	; i32 0x0
  00752	19		 ldc.i.3 3	; i32 0x3
  00753	20 80 00 00 00	 ldc.i4 128	; u8 0x80
  00758	73 00 00 00 00	 newobj ??0Font@Drawing@System@@$$FQ$AAM@P$AAVString@2@MW4FontStyle@12@W4GraphicsUnit@12@E@Z
  0075d	6f 00 00 00 00	 callvirt ?set@Font@Control@Forms@Windows@System@@$$FU$AAMXP$AAV1Drawing@5@@Z

; 244  : 			this->label5->Location = System::Drawing::Point(3, 32);

  00762	12 18		 ldloca.s 24	; $S19$
  00764	19		 ldc.i.3 3	; i32 0x3
  00765	1f 20		 ldc.i4.s 32	; i32 0x20
  00767	28 00 00 00 00	 call ??0Point@Drawing@System@@$$FQ$CAM@HH@Z
  0076c	02		 ldarg.0 	; this$
  0076d	7b 00 00 00 00	 ldfld ?label5@QBuild@Mogitter@@3P$AAVLabel@Forms@Windows@System@@$AA
  00772	11 18		 ldloc.s 24	; $S19$
  00774	28 00 00 00 00	 call ?set@Location@Control@Forms@Windows@System@@$$FQ$AAMXVPoint@Drawing@5@@Z

; 245  : 			this->label5->Name = L"label5";

  00779	02		 ldarg.0 	; this$
  0077a	7b 00 00 00 00	 ldfld ?label5@QBuild@Mogitter@@3P$AAVLabel@Forms@Windows@System@@$AA
  0077f	72 00 00 00 00	 ldstr $StringLiteralTok$??_C@_1O@MOEBAFHL@?$AAl?$AAa?$AAb?$AAe?$AAl?$AA5?$AA?$AA@
  00784	28 00 00 00 00	 call ?set@Name@Control@Forms@Windows@System@@$$FQ$AAMXP$AAVString@5@@Z

; 246  : 			this->label5->Size = System::Drawing::Size(232, 24);

  00789	12 17		 ldloca.s 23	; $S20$
  0078b	20 e8 00 00 00	 ldc.i4 232	; i32 0xe8
  00790	1f 18		 ldc.i4.s 24	; i32 0x18
  00792	28 00 00 00 00	 call ??0Size@Drawing@System@@$$FQ$CAM@HH@Z
  00797	02		 ldarg.0 	; this$
  00798	7b 00 00 00 00	 ldfld ?label5@QBuild@Mogitter@@3P$AAVLabel@Forms@Windows@System@@$AA
  0079d	11 17		 ldloc.s 23	; $S20$
  0079f	28 00 00 00 00	 call ?set@Size@Control@Forms@Windows@System@@$$FQ$AAMXV1Drawing@5@@Z

; 247  : 			this->label5->TabIndex = 9;

  007a4	02		 ldarg.0 	; this$
  007a5	7b 00 00 00 00	 ldfld ?label5@QBuild@Mogitter@@3P$AAVLabel@Forms@Windows@System@@$AA
  007aa	1f 09		 ldc.i4.s 9	; i32 0x9
  007ac	28 00 00 00 00	 call ?set@TabIndex@Control@Forms@Windows@System@@$$FQ$AAMXH@Z

; 248  : 			this->label5->Text = L"正解以外の選択肢(各行に１つ)";

  007b1	02		 ldarg.0 	; this$
  007b2	7b 00 00 00 00	 ldfld ?label5@QBuild@Mogitter@@3P$AAVLabel@Forms@Windows@System@@$AA
  007b7	72 00 00 00 00	 ldstr $StringLiteralTok$??_C@_1CA@NAKEPKNH@kc?$IJ?cN?eY?$BG0n?$JAxb?$JO?$IA?$KC?$AA?$CIT?$AE?$IIL0k?$PP?$BB0d?$AA?$CJ?$AA?$AA@
  007bc	6f 00 00 00 00	 callvirt ?set@Text@Label@Forms@Windows@System@@$$FU$AAMXP$AAVString@5@@Z

; 249  : 			// 
; 250  : 			// label4
; 251  : 			// 
; 252  : 			this->label4->Font = (gcnew System::Drawing::Font(L"メイリオ", 11.25F, System::Drawing::FontStyle::Regular, System::Drawing::GraphicsUnit::Point, 
; 253  : 				static_cast<System::Byte>(128)));

  007c1	02		 ldarg.0 	; this$
  007c2	7b 00 00 00 00	 ldfld ?label4@QBuild@Mogitter@@3P$AAVLabel@Forms@Windows@System@@$AA
  007c7	72 00 00 00 00	 ldstr $StringLiteralTok$??_C@_19HMEDOBKD@0?a0?$KE0?j0?$KK?$AA?$AA@
  007cc	22 00 00 34 41	 ldc.r4 11.250000
  007d1	16		 ldc.i.0 0	; i32 0x0
  007d2	19		 ldc.i.3 3	; i32 0x3
  007d3	20 80 00 00 00	 ldc.i4 128	; u8 0x80
  007d8	73 00 00 00 00	 newobj ??0Font@Drawing@System@@$$FQ$AAM@P$AAVString@2@MW4FontStyle@12@W4GraphicsUnit@12@E@Z
  007dd	6f 00 00 00 00	 callvirt ?set@Font@Control@Forms@Windows@System@@$$FU$AAMXP$AAV1Drawing@5@@Z

; 254  : 			this->label4->Location = System::Drawing::Point(355, 59);

  007e2	12 16		 ldloca.s 22	; $S21$
  007e4	20 63 01 00 00	 ldc.i4 355	; i32 0x163
  007e9	1f 3b		 ldc.i4.s 59	; i32 0x3b
  007eb	28 00 00 00 00	 call ??0Point@Drawing@System@@$$FQ$CAM@HH@Z
  007f0	02		 ldarg.0 	; this$
  007f1	7b 00 00 00 00	 ldfld ?label4@QBuild@Mogitter@@3P$AAVLabel@Forms@Windows@System@@$AA
  007f6	11 16		 ldloc.s 22	; $S21$
  007f8	28 00 00 00 00	 call ?set@Location@Control@Forms@Windows@System@@$$FQ$AAMXVPoint@Drawing@5@@Z

; 255  : 			this->label4->Name = L"label4";

  007fd	02		 ldarg.0 	; this$
  007fe	7b 00 00 00 00	 ldfld ?label4@QBuild@Mogitter@@3P$AAVLabel@Forms@Windows@System@@$AA
  00803	72 00 00 00 00	 ldstr $StringLiteralTok$??_C@_1O@HGPNGCBO@?$AAl?$AAa?$AAb?$AAe?$AAl?$AA4?$AA?$AA@
  00808	28 00 00 00 00	 call ?set@Name@Control@Forms@Windows@System@@$$FQ$AAMXP$AAVString@5@@Z

; 256  : 			this->label4->Size = System::Drawing::Size(88, 29);

  0080d	12 15		 ldloca.s 21	; $S22$
  0080f	1f 58		 ldc.i4.s 88	; i32 0x58
  00811	1f 1d		 ldc.i4.s 29	; i32 0x1d
  00813	28 00 00 00 00	 call ??0Size@Drawing@System@@$$FQ$CAM@HH@Z
  00818	02		 ldarg.0 	; this$
  00819	7b 00 00 00 00	 ldfld ?label4@QBuild@Mogitter@@3P$AAVLabel@Forms@Windows@System@@$AA
  0081e	11 15		 ldloc.s 21	; $S22$
  00820	28 00 00 00 00	 call ?set@Size@Control@Forms@Windows@System@@$$FQ$AAMXV1Drawing@5@@Z

; 257  : 			this->label4->TabIndex = 6;

  00825	02		 ldarg.0 	; this$
  00826	7b 00 00 00 00	 ldfld ?label4@QBuild@Mogitter@@3P$AAVLabel@Forms@Windows@System@@$AA
  0082b	1c		 ldc.i.6 6	; i32 0x6
  0082c	28 00 00 00 00	 call ?set@TabIndex@Control@Forms@Windows@System@@$$FQ$AAMXH@Z

; 258  : 			this->label4->Text = L"番目にする";

  00831	02		 ldarg.0 	; this$
  00832	7b 00 00 00 00	 ldfld ?label4@QBuild@Mogitter@@3P$AAVLabel@Forms@Windows@System@@$AA
  00837	72 00 00 00 00	 ldstr $StringLiteralTok$??_C@_1M@NCNJOIHJ@ujv?n0k0Y0?$IL?$AA?$AA@
  0083c	6f 00 00 00 00	 callvirt ?set@Text@Label@Forms@Windows@System@@$$FU$AAMXP$AAVString@5@@Z

; 259  : 			// 
; 260  : 			// label3
; 261  : 			// 
; 262  : 			this->label3->Font = (gcnew System::Drawing::Font(L"メイリオ", 11.25F, System::Drawing::FontStyle::Regular, System::Drawing::GraphicsUnit::Point, 
; 263  : 				static_cast<System::Byte>(128)));

  00841	02		 ldarg.0 	; this$
  00842	7b 00 00 00 00	 ldfld ?label3@QBuild@Mogitter@@3P$AAVLabel@Forms@Windows@System@@$AA
  00847	72 00 00 00 00	 ldstr $StringLiteralTok$??_C@_19HMEDOBKD@0?a0?$KE0?j0?$KK?$AA?$AA@
  0084c	22 00 00 34 41	 ldc.r4 11.250000
  00851	16		 ldc.i.0 0	; i32 0x0
  00852	19		 ldc.i.3 3	; i32 0x3
  00853	20 80 00 00 00	 ldc.i4 128	; u8 0x80
  00858	73 00 00 00 00	 newobj ??0Font@Drawing@System@@$$FQ$AAM@P$AAVString@2@MW4FontStyle@12@W4GraphicsUnit@12@E@Z
  0085d	6f 00 00 00 00	 callvirt ?set@Font@Control@Forms@Windows@System@@$$FU$AAMXP$AAV1Drawing@5@@Z

; 264  : 			this->label3->Location = System::Drawing::Point(241, 59);

  00862	12 14		 ldloca.s 20	; $S23$
  00864	20 f1 00 00 00	 ldc.i4 241	; i32 0xf1
  00869	1f 3b		 ldc.i4.s 59	; i32 0x3b
  0086b	28 00 00 00 00	 call ??0Point@Drawing@System@@$$FQ$CAM@HH@Z
  00870	02		 ldarg.0 	; this$
  00871	7b 00 00 00 00	 ldfld ?label3@QBuild@Mogitter@@3P$AAVLabel@Forms@Windows@System@@$AA
  00876	11 14		 ldloc.s 20	; $S23$
  00878	28 00 00 00 00	 call ?set@Location@Control@Forms@Windows@System@@$$FQ$AAMXVPoint@Drawing@5@@Z

; 265  : 			this->label3->Name = L"label3";

  0087d	02		 ldarg.0 	; this$
  0087e	7b 00 00 00 00	 ldfld ?label3@QBuild@Mogitter@@3P$AAVLabel@Forms@Windows@System@@$AA
  00883	72 00 00 00 00	 ldstr $StringLiteralTok$??_C@_1O@OLCKFKKH@?$AAl?$AAa?$AAb?$AAe?$AAl?$AA3?$AA?$AA@
  00888	28 00 00 00 00	 call ?set@Name@Control@Forms@Windows@System@@$$FQ$AAMXP$AAVString@5@@Z

; 266  : 			this->label3->Size = System::Drawing::Size(62, 29);

  0088d	12 13		 ldloca.s 19	; $S24$
  0088f	1f 3e		 ldc.i4.s 62	; i32 0x3e
  00891	1f 1d		 ldc.i4.s 29	; i32 0x1d
  00893	28 00 00 00 00	 call ??0Size@Drawing@System@@$$FQ$CAM@HH@Z
  00898	02		 ldarg.0 	; this$
  00899	7b 00 00 00 00	 ldfld ?label3@QBuild@Mogitter@@3P$AAVLabel@Forms@Windows@System@@$AA
  0089e	11 13		 ldloc.s 19	; $S24$
  008a0	28 00 00 00 00	 call ?set@Size@Control@Forms@Windows@System@@$$FQ$AAMXV1Drawing@5@@Z

; 267  : 			this->label3->TabIndex = 5;

  008a5	02		 ldarg.0 	; this$
  008a6	7b 00 00 00 00	 ldfld ?label3@QBuild@Mogitter@@3P$AAVLabel@Forms@Windows@System@@$AA
  008ab	1b		 ldc.i.5 5	; i32 0x5
  008ac	28 00 00 00 00	 call ?set@TabIndex@Control@Forms@Windows@System@@$$FQ$AAMXH@Z

; 268  : 			this->label3->Text = L"正解を";

  008b1	02		 ldarg.0 	; this$
  008b2	7b 00 00 00 00	 ldfld ?label3@QBuild@Mogitter@@3P$AAVLabel@Forms@Windows@System@@$AA
  008b7	72 00 00 00 00	 ldstr $StringLiteralTok$??_C@_17FCAMOIKB@kc?$IJ?c0?$JC?$AA?$AA@
  008bc	6f 00 00 00 00	 callvirt ?set@Text@Label@Forms@Windows@System@@$$FU$AAMXP$AAVString@5@@Z

; 269  : 			// 
; 270  : 			// katakana_abc
; 271  : 			// 
; 272  : 			this->katakana_abc->AutoSize = true;

  008c1	02		 ldarg.0 	; this$
  008c2	7b 00 00 00 00	 ldfld ?katakana_abc@QBuild@Mogitter@@3P$AAVRadioButton@Forms@Windows@System@@$AA
  008c7	17		 ldc.i.1 1	; u8 0x1
  008c8	6f 00 00 00 00	 callvirt ?set@AutoSize@ButtonBase@Forms@Windows@System@@$$FU$AAMX_N@Z

; 273  : 			this->katakana_abc->Font = (gcnew System::Drawing::Font(L"メイリオ", 11.25F, System::Drawing::FontStyle::Regular, System::Drawing::GraphicsUnit::Point, 
; 274  : 				static_cast<System::Byte>(128)));

  008cd	02		 ldarg.0 	; this$
  008ce	7b 00 00 00 00	 ldfld ?katakana_abc@QBuild@Mogitter@@3P$AAVRadioButton@Forms@Windows@System@@$AA
  008d3	72 00 00 00 00	 ldstr $StringLiteralTok$??_C@_19HMEDOBKD@0?a0?$KE0?j0?$KK?$AA?$AA@
  008d8	22 00 00 34 41	 ldc.r4 11.250000
  008dd	16		 ldc.i.0 0	; i32 0x0
  008de	19		 ldc.i.3 3	; i32 0x3
  008df	20 80 00 00 00	 ldc.i4 128	; u8 0x80
  008e4	73 00 00 00 00	 newobj ??0Font@Drawing@System@@$$FQ$AAM@P$AAVString@2@MW4FontStyle@12@W4GraphicsUnit@12@E@Z
  008e9	6f 00 00 00 00	 callvirt ?set@Font@Control@Forms@Windows@System@@$$FU$AAMXP$AAV1Drawing@5@@Z

; 275  : 			this->katakana_abc->Location = System::Drawing::Point(298, 203);

  008ee	12 12		 ldloca.s 18	; $S25$
  008f0	20 2a 01 00 00	 ldc.i4 298	; i32 0x12a
  008f5	20 cb 00 00 00	 ldc.i4 203	; i32 0xcb
  008fa	28 00 00 00 00	 call ??0Point@Drawing@System@@$$FQ$CAM@HH@Z
  008ff	02		 ldarg.0 	; this$
  00900	7b 00 00 00 00	 ldfld ?katakana_abc@QBuild@Mogitter@@3P$AAVRadioButton@Forms@Windows@System@@$AA
  00905	11 12		 ldloc.s 18	; $S25$
  00907	28 00 00 00 00	 call ?set@Location@Control@Forms@Windows@System@@$$FQ$AAMXVPoint@Drawing@5@@Z

; 276  : 			this->katakana_abc->Name = L"katakana_abc";

  0090c	02		 ldarg.0 	; this$
  0090d	7b 00 00 00 00	 ldfld ?katakana_abc@QBuild@Mogitter@@3P$AAVRadioButton@Forms@Windows@System@@$AA
  00912	72 00 00 00 00	 ldstr $StringLiteralTok$??_C@_1BK@FJNMECFH@?$AAk?$AAa?$AAt?$AAa?$AAk?$AAa?$AAn?$AAa?$AA_?$AAa?$AAb?$AAc?$AA?$AA@
  00917	28 00 00 00 00	 call ?set@Name@Control@Forms@Windows@System@@$$FQ$AAMXP$AAVString@5@@Z

; 277  : 			this->katakana_abc->Size = System::Drawing::Size(112, 27);

  0091c	12 11		 ldloca.s 17	; $S26$
  0091e	1f 70		 ldc.i4.s 112	; i32 0x70
  00920	1f 1b		 ldc.i4.s 27	; i32 0x1b
  00922	28 00 00 00 00	 call ??0Size@Drawing@System@@$$FQ$CAM@HH@Z
  00927	02		 ldarg.0 	; this$
  00928	7b 00 00 00 00	 ldfld ?katakana_abc@QBuild@Mogitter@@3P$AAVRadioButton@Forms@Windows@System@@$AA
  0092d	11 11		 ldloc.s 17	; $S26$
  0092f	28 00 00 00 00	 call ?set@Size@Control@Forms@Windows@System@@$$FQ$AAMXV1Drawing@5@@Z

; 278  : 			this->katakana_abc->TabIndex = 4;

  00934	02		 ldarg.0 	; this$
  00935	7b 00 00 00 00	 ldfld ?katakana_abc@QBuild@Mogitter@@3P$AAVRadioButton@Forms@Windows@System@@$AA
  0093a	1a		 ldc.i.4 4	; i32 0x4
  0093b	28 00 00 00 00	 call ?set@TabIndex@Control@Forms@Windows@System@@$$FQ$AAMXH@Z

; 279  : 			this->katakana_abc->TabStop = true;

  00940	02		 ldarg.0 	; this$
  00941	7b 00 00 00 00	 ldfld ?katakana_abc@QBuild@Mogitter@@3P$AAVRadioButton@Forms@Windows@System@@$AA
  00946	17		 ldc.i.1 1	; u8 0x1
  00947	28 00 00 00 00	 call ?set@TabStop@RadioButton@Forms@Windows@System@@$$FQ$AAMX_N@Z

; 280  : 			this->katakana_abc->Text = L"ア,イ,ウ,･･･";

  0094c	02		 ldarg.0 	; this$
  0094d	7b 00 00 00 00	 ldfld ?katakana_abc@QBuild@Mogitter@@3P$AAVRadioButton@Forms@Windows@System@@$AA
  00952	72 00 00 00 00	 ldstr $StringLiteralTok$??_C@_1BE@ELJFCLDL@0?$KC?$AA?00?$KE?$AA?00?$KG?$AA?0?$PPe?$PPe?$PPe?$AA?$AA@
  00957	6f 00 00 00 00	 callvirt ?set@Text@ButtonBase@Forms@Windows@System@@$$FU$AAMXP$AAVString@5@@Z

; 281  : 			this->katakana_abc->UseVisualStyleBackColor = true;

  0095c	02		 ldarg.0 	; this$
  0095d	7b 00 00 00 00	 ldfld ?katakana_abc@QBuild@Mogitter@@3P$AAVRadioButton@Forms@Windows@System@@$AA
  00962	17		 ldc.i.1 1	; u8 0x1
  00963	28 00 00 00 00	 call ?set@UseVisualStyleBackColor@ButtonBase@Forms@Windows@System@@$$FQ$AAMX_N@Z

; 282  : 			// 
; 283  : 			// kana_abc
; 284  : 			// 
; 285  : 			this->kana_abc->AutoSize = true;

  00968	02		 ldarg.0 	; this$
  00969	7b 00 00 00 00	 ldfld ?kana_abc@QBuild@Mogitter@@3P$AAVRadioButton@Forms@Windows@System@@$AA
  0096e	17		 ldc.i.1 1	; u8 0x1
  0096f	6f 00 00 00 00	 callvirt ?set@AutoSize@ButtonBase@Forms@Windows@System@@$$FU$AAMX_N@Z

; 286  : 			this->kana_abc->Font = (gcnew System::Drawing::Font(L"メイリオ", 11.25F, System::Drawing::FontStyle::Regular, System::Drawing::GraphicsUnit::Point, 
; 287  : 				static_cast<System::Byte>(128)));

  00974	02		 ldarg.0 	; this$
  00975	7b 00 00 00 00	 ldfld ?kana_abc@QBuild@Mogitter@@3P$AAVRadioButton@Forms@Windows@System@@$AA
  0097a	72 00 00 00 00	 ldstr $StringLiteralTok$??_C@_19HMEDOBKD@0?a0?$KE0?j0?$KK?$AA?$AA@
  0097f	22 00 00 34 41	 ldc.r4 11.250000
  00984	16		 ldc.i.0 0	; i32 0x0
  00985	19		 ldc.i.3 3	; i32 0x3
  00986	20 80 00 00 00	 ldc.i4 128	; u8 0x80
  0098b	73 00 00 00 00	 newobj ??0Font@Drawing@System@@$$FQ$AAM@P$AAVString@2@MW4FontStyle@12@W4GraphicsUnit@12@E@Z
  00990	6f 00 00 00 00	 callvirt ?set@Font@Control@Forms@Windows@System@@$$FU$AAMXP$AAV1Drawing@5@@Z

; 288  : 			this->kana_abc->Location = System::Drawing::Point(298, 170);

  00995	12 10		 ldloca.s 16	; $S27$
  00997	20 2a 01 00 00	 ldc.i4 298	; i32 0x12a
  0099c	20 aa 00 00 00	 ldc.i4 170	; i32 0xaa
  009a1	28 00 00 00 00	 call ??0Point@Drawing@System@@$$FQ$CAM@HH@Z
  009a6	02		 ldarg.0 	; this$
  009a7	7b 00 00 00 00	 ldfld ?kana_abc@QBuild@Mogitter@@3P$AAVRadioButton@Forms@Windows@System@@$AA
  009ac	11 10		 ldloc.s 16	; $S27$
  009ae	28 00 00 00 00	 call ?set@Location@Control@Forms@Windows@System@@$$FQ$AAMXVPoint@Drawing@5@@Z

; 289  : 			this->kana_abc->Name = L"kana_abc";

  009b3	02		 ldarg.0 	; this$
  009b4	7b 00 00 00 00	 ldfld ?kana_abc@QBuild@Mogitter@@3P$AAVRadioButton@Forms@Windows@System@@$AA
  009b9	72 00 00 00 00	 ldstr $StringLiteralTok$??_C@_1BC@NJJBOGAI@?$AAk?$AAa?$AAn?$AAa?$AA_?$AAa?$AAb?$AAc?$AA?$AA@
  009be	28 00 00 00 00	 call ?set@Name@Control@Forms@Windows@System@@$$FQ$AAMXP$AAVString@5@@Z

; 290  : 			this->kana_abc->Size = System::Drawing::Size(112, 27);

  009c3	12 0f		 ldloca.s 15	; $S28$
  009c5	1f 70		 ldc.i4.s 112	; i32 0x70
  009c7	1f 1b		 ldc.i4.s 27	; i32 0x1b
  009c9	28 00 00 00 00	 call ??0Size@Drawing@System@@$$FQ$CAM@HH@Z
  009ce	02		 ldarg.0 	; this$
  009cf	7b 00 00 00 00	 ldfld ?kana_abc@QBuild@Mogitter@@3P$AAVRadioButton@Forms@Windows@System@@$AA
  009d4	11 0f		 ldloc.s 15	; $S28$
  009d6	28 00 00 00 00	 call ?set@Size@Control@Forms@Windows@System@@$$FQ$AAMXV1Drawing@5@@Z

; 291  : 			this->kana_abc->TabIndex = 3;

  009db	02		 ldarg.0 	; this$
  009dc	7b 00 00 00 00	 ldfld ?kana_abc@QBuild@Mogitter@@3P$AAVRadioButton@Forms@Windows@System@@$AA
  009e1	19		 ldc.i.3 3	; i32 0x3
  009e2	28 00 00 00 00	 call ?set@TabIndex@Control@Forms@Windows@System@@$$FQ$AAMXH@Z

; 292  : 			this->kana_abc->TabStop = true;

  009e7	02		 ldarg.0 	; this$
  009e8	7b 00 00 00 00	 ldfld ?kana_abc@QBuild@Mogitter@@3P$AAVRadioButton@Forms@Windows@System@@$AA
  009ed	17		 ldc.i.1 1	; u8 0x1
  009ee	28 00 00 00 00	 call ?set@TabStop@RadioButton@Forms@Windows@System@@$$FQ$AAMX_N@Z

; 293  : 			this->kana_abc->Text = L"あ,い,う,･･･";

  009f3	02		 ldarg.0 	; this$
  009f4	7b 00 00 00 00	 ldfld ?kana_abc@QBuild@Mogitter@@3P$AAVRadioButton@Forms@Windows@System@@$AA
  009f9	72 00 00 00 00	 ldstr $StringLiteralTok$??_C@_1BE@CCEJPIJB@0B?$AA?00D?$AA?00F?$AA?0?$PPe?$PPe?$PPe?$AA?$AA@
  009fe	6f 00 00 00 00	 callvirt ?set@Text@ButtonBase@Forms@Windows@System@@$$FU$AAMXP$AAVString@5@@Z

; 294  : 			this->kana_abc->UseVisualStyleBackColor = true;

  00a03	02		 ldarg.0 	; this$
  00a04	7b 00 00 00 00	 ldfld ?kana_abc@QBuild@Mogitter@@3P$AAVRadioButton@Forms@Windows@System@@$AA
  00a09	17		 ldc.i.1 1	; u8 0x1
  00a0a	28 00 00 00 00	 call ?set@UseVisualStyleBackColor@ButtonBase@Forms@Windows@System@@$$FQ$AAMX_N@Z

; 295  : 			// 
; 296  : 			// ABC_
; 297  : 			// 
; 298  : 			this->ABC_->AutoSize = true;

  00a0f	02		 ldarg.0 	; this$
  00a10	7b 00 00 00 00	 ldfld ?ABC_@QBuild@Mogitter@@3P$AAVRadioButton@Forms@Windows@System@@$AA
  00a15	17		 ldc.i.1 1	; u8 0x1
  00a16	6f 00 00 00 00	 callvirt ?set@AutoSize@ButtonBase@Forms@Windows@System@@$$FU$AAMX_N@Z

; 299  : 			this->ABC_->Font = (gcnew System::Drawing::Font(L"メイリオ", 11.25F, System::Drawing::FontStyle::Regular, System::Drawing::GraphicsUnit::Point, 
; 300  : 				static_cast<System::Byte>(128)));

  00a1b	02		 ldarg.0 	; this$
  00a1c	7b 00 00 00 00	 ldfld ?ABC_@QBuild@Mogitter@@3P$AAVRadioButton@Forms@Windows@System@@$AA
  00a21	72 00 00 00 00	 ldstr $StringLiteralTok$??_C@_19HMEDOBKD@0?a0?$KE0?j0?$KK?$AA?$AA@
  00a26	22 00 00 34 41	 ldc.r4 11.250000
  00a2b	16		 ldc.i.0 0	; i32 0x0
  00a2c	19		 ldc.i.3 3	; i32 0x3
  00a2d	20 80 00 00 00	 ldc.i4 128	; u8 0x80
  00a32	73 00 00 00 00	 newobj ??0Font@Drawing@System@@$$FQ$AAM@P$AAVString@2@MW4FontStyle@12@W4GraphicsUnit@12@E@Z
  00a37	6f 00 00 00 00	 callvirt ?set@Font@Control@Forms@Windows@System@@$$FU$AAMXP$AAV1Drawing@5@@Z

; 301  : 			this->ABC_->Location = System::Drawing::Point(298, 137);

  00a3c	12 0e		 ldloca.s 14	; $S29$
  00a3e	20 2a 01 00 00	 ldc.i4 298	; i32 0x12a
  00a43	20 89 00 00 00	 ldc.i4 137	; i32 0x89
  00a48	28 00 00 00 00	 call ??0Point@Drawing@System@@$$FQ$CAM@HH@Z
  00a4d	02		 ldarg.0 	; this$
  00a4e	7b 00 00 00 00	 ldfld ?ABC_@QBuild@Mogitter@@3P$AAVRadioButton@Forms@Windows@System@@$AA
  00a53	11 0e		 ldloc.s 14	; $S29$
  00a55	28 00 00 00 00	 call ?set@Location@Control@Forms@Windows@System@@$$FQ$AAMXVPoint@Drawing@5@@Z

; 302  : 			this->ABC_->Name = L"ABC_";

  00a5a	02		 ldarg.0 	; this$
  00a5b	7b 00 00 00 00	 ldfld ?ABC_@QBuild@Mogitter@@3P$AAVRadioButton@Forms@Windows@System@@$AA
  00a60	72 00 00 00 00	 ldstr $StringLiteralTok$??_C@_19BMBHFJLB@?$AAA?$AAB?$AAC?$AA_?$AA?$AA@
  00a65	28 00 00 00 00	 call ?set@Name@Control@Forms@Windows@System@@$$FQ$AAMXP$AAVString@5@@Z

; 303  : 			this->ABC_->Size = System::Drawing::Size(97, 27);

  00a6a	12 0d		 ldloca.s 13	; $S30$
  00a6c	1f 61		 ldc.i4.s 97	; i32 0x61
  00a6e	1f 1b		 ldc.i4.s 27	; i32 0x1b
  00a70	28 00 00 00 00	 call ??0Size@Drawing@System@@$$FQ$CAM@HH@Z
  00a75	02		 ldarg.0 	; this$
  00a76	7b 00 00 00 00	 ldfld ?ABC_@QBuild@Mogitter@@3P$AAVRadioButton@Forms@Windows@System@@$AA
  00a7b	11 0d		 ldloc.s 13	; $S30$
  00a7d	28 00 00 00 00	 call ?set@Size@Control@Forms@Windows@System@@$$FQ$AAMXV1Drawing@5@@Z

; 304  : 			this->ABC_->TabIndex = 2;

  00a82	02		 ldarg.0 	; this$
  00a83	7b 00 00 00 00	 ldfld ?ABC_@QBuild@Mogitter@@3P$AAVRadioButton@Forms@Windows@System@@$AA
  00a88	18		 ldc.i.2 2	; i32 0x2
  00a89	28 00 00 00 00	 call ?set@TabIndex@Control@Forms@Windows@System@@$$FQ$AAMXH@Z

; 305  : 			this->ABC_->TabStop = true;

  00a8e	02		 ldarg.0 	; this$
  00a8f	7b 00 00 00 00	 ldfld ?ABC_@QBuild@Mogitter@@3P$AAVRadioButton@Forms@Windows@System@@$AA
  00a94	17		 ldc.i.1 1	; u8 0x1
  00a95	28 00 00 00 00	 call ?set@TabStop@RadioButton@Forms@Windows@System@@$$FQ$AAMX_N@Z

; 306  : 			this->ABC_->Text = L"A,B,C,･･･";

  00a9a	02		 ldarg.0 	; this$
  00a9b	7b 00 00 00 00	 ldfld ?ABC_@QBuild@Mogitter@@3P$AAVRadioButton@Forms@Windows@System@@$AA
  00aa0	72 00 00 00 00	 ldstr $StringLiteralTok$??_C@_1BE@JHNJAMHM@?$AAA?$AA?0?$AAB?$AA?0?$AAC?$AA?0?$PPe?$PPe?$PPe?$AA?$AA@
  00aa5	6f 00 00 00 00	 callvirt ?set@Text@ButtonBase@Forms@Windows@System@@$$FU$AAMXP$AAVString@5@@Z

; 307  : 			this->ABC_->UseVisualStyleBackColor = true;

  00aaa	02		 ldarg.0 	; this$
  00aab	7b 00 00 00 00	 ldfld ?ABC_@QBuild@Mogitter@@3P$AAVRadioButton@Forms@Windows@System@@$AA
  00ab0	17		 ldc.i.1 1	; u8 0x1
  00ab1	28 00 00 00 00	 call ?set@UseVisualStyleBackColor@ButtonBase@Forms@Windows@System@@$$FQ$AAMX_N@Z

; 308  : 			// 
; 309  : 			// abc
; 310  : 			// 
; 311  : 			this->abc->AutoSize = true;

  00ab6	02		 ldarg.0 	; this$
  00ab7	7b 00 00 00 00	 ldfld ?abc@QBuild@Mogitter@@3P$AAVRadioButton@Forms@Windows@System@@$AA
  00abc	17		 ldc.i.1 1	; u8 0x1
  00abd	6f 00 00 00 00	 callvirt ?set@AutoSize@ButtonBase@Forms@Windows@System@@$$FU$AAMX_N@Z

; 312  : 			this->abc->Checked = true;

  00ac2	02		 ldarg.0 	; this$
  00ac3	7b 00 00 00 00	 ldfld ?abc@QBuild@Mogitter@@3P$AAVRadioButton@Forms@Windows@System@@$AA
  00ac8	17		 ldc.i.1 1	; u8 0x1
  00ac9	28 00 00 00 00	 call ?set@Checked@RadioButton@Forms@Windows@System@@$$FQ$AAMX_N@Z

; 313  : 			this->abc->Font = (gcnew System::Drawing::Font(L"メイリオ", 11.25F, System::Drawing::FontStyle::Regular, System::Drawing::GraphicsUnit::Point, 
; 314  : 				static_cast<System::Byte>(128)));

  00ace	02		 ldarg.0 	; this$
  00acf	7b 00 00 00 00	 ldfld ?abc@QBuild@Mogitter@@3P$AAVRadioButton@Forms@Windows@System@@$AA
  00ad4	72 00 00 00 00	 ldstr $StringLiteralTok$??_C@_19HMEDOBKD@0?a0?$KE0?j0?$KK?$AA?$AA@
  00ad9	22 00 00 34 41	 ldc.r4 11.250000
  00ade	16		 ldc.i.0 0	; i32 0x0
  00adf	19		 ldc.i.3 3	; i32 0x3
  00ae0	20 80 00 00 00	 ldc.i4 128	; u8 0x80
  00ae5	73 00 00 00 00	 newobj ??0Font@Drawing@System@@$$FQ$AAM@P$AAVString@2@MW4FontStyle@12@W4GraphicsUnit@12@E@Z
  00aea	6f 00 00 00 00	 callvirt ?set@Font@Control@Forms@Windows@System@@$$FU$AAMXP$AAV1Drawing@5@@Z

; 315  : 			this->abc->Location = System::Drawing::Point(298, 104);

  00aef	12 0c		 ldloca.s 12	; $S31$
  00af1	20 2a 01 00 00	 ldc.i4 298	; i32 0x12a
  00af6	1f 68		 ldc.i4.s 104	; i32 0x68
  00af8	28 00 00 00 00	 call ??0Point@Drawing@System@@$$FQ$CAM@HH@Z
  00afd	02		 ldarg.0 	; this$
  00afe	7b 00 00 00 00	 ldfld ?abc@QBuild@Mogitter@@3P$AAVRadioButton@Forms@Windows@System@@$AA
  00b03	11 0c		 ldloc.s 12	; $S31$
  00b05	28 00 00 00 00	 call ?set@Location@Control@Forms@Windows@System@@$$FQ$AAMXVPoint@Drawing@5@@Z

; 316  : 			this->abc->Name = L"abc";

  00b0a	02		 ldarg.0 	; this$
  00b0b	7b 00 00 00 00	 ldfld ?abc@QBuild@Mogitter@@3P$AAVRadioButton@Forms@Windows@System@@$AA
  00b10	72 00 00 00 00	 ldstr $StringLiteralTok$??_C@_17OKDDHGAP@?$AAa?$AAb?$AAc?$AA?$AA@
  00b15	28 00 00 00 00	 call ?set@Name@Control@Forms@Windows@System@@$$FQ$AAMXP$AAVString@5@@Z

; 317  : 			this->abc->Size = System::Drawing::Size(93, 27);

  00b1a	12 0b		 ldloca.s 11	; $S32$
  00b1c	1f 5d		 ldc.i4.s 93	; i32 0x5d
  00b1e	1f 1b		 ldc.i4.s 27	; i32 0x1b
  00b20	28 00 00 00 00	 call ??0Size@Drawing@System@@$$FQ$CAM@HH@Z
  00b25	02		 ldarg.0 	; this$
  00b26	7b 00 00 00 00	 ldfld ?abc@QBuild@Mogitter@@3P$AAVRadioButton@Forms@Windows@System@@$AA
  00b2b	11 0b		 ldloc.s 11	; $S32$
  00b2d	28 00 00 00 00	 call ?set@Size@Control@Forms@Windows@System@@$$FQ$AAMXV1Drawing@5@@Z

; 318  : 			this->abc->TabIndex = 1;

  00b32	02		 ldarg.0 	; this$
  00b33	7b 00 00 00 00	 ldfld ?abc@QBuild@Mogitter@@3P$AAVRadioButton@Forms@Windows@System@@$AA
  00b38	17		 ldc.i.1 1	; i32 0x1
  00b39	28 00 00 00 00	 call ?set@TabIndex@Control@Forms@Windows@System@@$$FQ$AAMXH@Z

; 319  : 			this->abc->TabStop = true;

  00b3e	02		 ldarg.0 	; this$
  00b3f	7b 00 00 00 00	 ldfld ?abc@QBuild@Mogitter@@3P$AAVRadioButton@Forms@Windows@System@@$AA
  00b44	17		 ldc.i.1 1	; u8 0x1
  00b45	28 00 00 00 00	 call ?set@TabStop@RadioButton@Forms@Windows@System@@$$FQ$AAMX_N@Z

; 320  : 			this->abc->Text = L"a,b,c,･･･";

  00b4a	02		 ldarg.0 	; this$
  00b4b	7b 00 00 00 00	 ldfld ?abc@QBuild@Mogitter@@3P$AAVRadioButton@Forms@Windows@System@@$AA
  00b50	72 00 00 00 00	 ldstr $StringLiteralTok$??_C@_1BE@ICCLPMPC@?$AAa?$AA?0?$AAb?$AA?0?$AAc?$AA?0?$PPe?$PPe?$PPe?$AA?$AA@
  00b55	6f 00 00 00 00	 callvirt ?set@Text@ButtonBase@Forms@Windows@System@@$$FU$AAMXP$AAVString@5@@Z

; 321  : 			this->abc->UseVisualStyleBackColor = true;

  00b5a	02		 ldarg.0 	; this$
  00b5b	7b 00 00 00 00	 ldfld ?abc@QBuild@Mogitter@@3P$AAVRadioButton@Forms@Windows@System@@$AA
  00b60	17		 ldc.i.1 1	; u8 0x1
  00b61	28 00 00 00 00	 call ?set@UseVisualStyleBackColor@ButtonBase@Forms@Windows@System@@$$FQ$AAMX_N@Z

; 322  : 			// 
; 323  : 			// label2
; 324  : 			// 
; 325  : 			this->label2->Font = (gcnew System::Drawing::Font(L"メイリオ", 12, System::Drawing::FontStyle::Regular, System::Drawing::GraphicsUnit::Point, 
; 326  : 				static_cast<System::Byte>(128)));

  00b66	02		 ldarg.0 	; this$
  00b67	7b 00 00 00 00	 ldfld ?label2@QBuild@Mogitter@@3P$AAVLabel@Forms@Windows@System@@$AA
  00b6c	72 00 00 00 00	 ldstr $StringLiteralTok$??_C@_19HMEDOBKD@0?a0?$KE0?j0?$KK?$AA?$AA@
  00b71	22 00 00 40 41	 ldc.r4 12.000000
  00b76	16		 ldc.i.0 0	; i32 0x0
  00b77	19		 ldc.i.3 3	; i32 0x3
  00b78	20 80 00 00 00	 ldc.i4 128	; u8 0x80
  00b7d	73 00 00 00 00	 newobj ??0Font@Drawing@System@@$$FQ$AAM@P$AAVString@2@MW4FontStyle@12@W4GraphicsUnit@12@E@Z
  00b82	6f 00 00 00 00	 callvirt ?set@Font@Control@Forms@Windows@System@@$$FU$AAMXP$AAV1Drawing@5@@Z

; 327  : 			this->label2->Location = System::Drawing::Point(241, 105);

  00b87	12 0a		 ldloca.s 10	; $S33$
  00b89	20 f1 00 00 00	 ldc.i4 241	; i32 0xf1
  00b8e	1f 69		 ldc.i4.s 105	; i32 0x69
  00b90	28 00 00 00 00	 call ??0Point@Drawing@System@@$$FQ$CAM@HH@Z
  00b95	02		 ldarg.0 	; this$
  00b96	7b 00 00 00 00	 ldfld ?label2@QBuild@Mogitter@@3P$AAVLabel@Forms@Windows@System@@$AA
  00b9b	11 0a		 ldloc.s 10	; $S33$
  00b9d	28 00 00 00 00	 call ?set@Location@Control@Forms@Windows@System@@$$FQ$AAMXVPoint@Drawing@5@@Z

; 328  : 			this->label2->Name = L"label2";

  00ba2	02		 ldarg.0 	; this$
  00ba3	7b 00 00 00 00	 ldfld ?label2@QBuild@Mogitter@@3P$AAVLabel@Forms@Windows@System@@$AA
  00ba8	72 00 00 00 00	 ldstr $StringLiteralTok$??_C@_1O@FDJGDNMC@?$AAl?$AAa?$AAb?$AAe?$AAl?$AA2?$AA?$AA@
  00bad	28 00 00 00 00	 call ?set@Name@Control@Forms@Windows@System@@$$FQ$AAMXP$AAVString@5@@Z

; 329  : 			this->label2->Size = System::Drawing::Size(62, 29);

  00bb2	12 09		 ldloca.s 9	; $S34$
  00bb4	1f 3e		 ldc.i4.s 62	; i32 0x3e
  00bb6	1f 1d		 ldc.i4.s 29	; i32 0x1d
  00bb8	28 00 00 00 00	 call ??0Size@Drawing@System@@$$FQ$CAM@HH@Z
  00bbd	02		 ldarg.0 	; this$
  00bbe	7b 00 00 00 00	 ldfld ?label2@QBuild@Mogitter@@3P$AAVLabel@Forms@Windows@System@@$AA
  00bc3	11 09		 ldloc.s 9	; $S34$
  00bc5	28 00 00 00 00	 call ?set@Size@Control@Forms@Windows@System@@$$FQ$AAMXV1Drawing@5@@Z

; 330  : 			this->label2->TabIndex = 0;

  00bca	02		 ldarg.0 	; this$
  00bcb	7b 00 00 00 00	 ldfld ?label2@QBuild@Mogitter@@3P$AAVLabel@Forms@Windows@System@@$AA
  00bd0	16		 ldc.i.0 0	; i32 0x0
  00bd1	28 00 00 00 00	 call ?set@TabIndex@Control@Forms@Windows@System@@$$FQ$AAMXH@Z

; 331  : 			this->label2->Text = L"記号：";

  00bd6	02		 ldarg.0 	; this$
  00bd7	7b 00 00 00 00	 ldfld ?label2@QBuild@Mogitter@@3P$AAVLabel@Forms@Windows@System@@$AA
  00bdc	72 00 00 00 00	 ldstr $StringLiteralTok$??_C@_17OPPNKABI@?$IK?$BIS?w?$PP?$BK?$AA?$AA@
  00be1	6f 00 00 00 00	 callvirt ?set@Text@Label@Forms@Windows@System@@$$FU$AAMXP$AAVString@5@@Z

; 332  : 			// 
; 333  : 			// panel1
; 334  : 			// 
; 335  : 			this->panel1->BackColor = System::Drawing::Color::DarkOrange;

  00be6	28 00 00 00 00	 call ?get@DarkOrange@Color@Drawing@System@@$$FSM?AV234@XZ
  00beb	13 08		 stloc.s 8	; $T10
  00bed	02		 ldarg.0 	; this$
  00bee	7b 00 00 00 00	 ldfld ?panel1@QBuild@Mogitter@@3P$AAVPanel@Forms@Windows@System@@$AA
  00bf3	11 08		 ldloc.s 8	; $T10
  00bf5	6f 00 00 00 00	 callvirt ?set@BackColor@Control@Forms@Windows@System@@$$FU$AAMXVColor@Drawing@5@@Z

; 336  : 			this->panel1->Location = System::Drawing::Point(-2, 314);

  00bfa	12 07		 ldloca.s 7	; $S35$
  00bfc	1f fe		 ldc.i4.s -2	; i32 0xfffffffe
  00bfe	20 3a 01 00 00	 ldc.i4 314	; i32 0x13a
  00c03	28 00 00 00 00	 call ??0Point@Drawing@System@@$$FQ$CAM@HH@Z
  00c08	02		 ldarg.0 	; this$
  00c09	7b 00 00 00 00	 ldfld ?panel1@QBuild@Mogitter@@3P$AAVPanel@Forms@Windows@System@@$AA
  00c0e	11 07		 ldloc.s 7	; $S35$
  00c10	28 00 00 00 00	 call ?set@Location@Control@Forms@Windows@System@@$$FQ$AAMXVPoint@Drawing@5@@Z

; 337  : 			this->panel1->Name = L"panel1";

  00c15	02		 ldarg.0 	; this$
  00c16	7b 00 00 00 00	 ldfld ?panel1@QBuild@Mogitter@@3P$AAVPanel@Forms@Windows@System@@$AA
  00c1b	72 00 00 00 00	 ldstr $StringLiteralTok$??_C@_1O@BHFINPOD@?$AAp?$AAa?$AAn?$AAe?$AAl?$AA1?$AA?$AA@
  00c20	28 00 00 00 00	 call ?set@Name@Control@Forms@Windows@System@@$$FQ$AAMXP$AAVString@5@@Z

; 338  : 			this->panel1->Size = System::Drawing::Size(476, 40);

  00c25	12 06		 ldloca.s 6	; $S36$
  00c27	20 dc 01 00 00	 ldc.i4 476	; i32 0x1dc
  00c2c	1f 28		 ldc.i4.s 40	; i32 0x28
  00c2e	28 00 00 00 00	 call ??0Size@Drawing@System@@$$FQ$CAM@HH@Z
  00c33	02		 ldarg.0 	; this$
  00c34	7b 00 00 00 00	 ldfld ?panel1@QBuild@Mogitter@@3P$AAVPanel@Forms@Windows@System@@$AA
  00c39	11 06		 ldloc.s 6	; $S36$
  00c3b	28 00 00 00 00	 call ?set@Size@Control@Forms@Windows@System@@$$FQ$AAMXV1Drawing@5@@Z

; 339  : 			this->panel1->TabIndex = 9;

  00c40	02		 ldarg.0 	; this$
  00c41	7b 00 00 00 00	 ldfld ?panel1@QBuild@Mogitter@@3P$AAVPanel@Forms@Windows@System@@$AA
  00c46	1f 09		 ldc.i4.s 9	; i32 0x9
  00c48	28 00 00 00 00	 call ?set@TabIndex@Control@Forms@Windows@System@@$$FQ$AAMXH@Z

; 340  : 			// 
; 341  : 			// QBuild
; 342  : 			// 
; 343  : 			this->AcceptButton = this->okButton;

  00c4d	02		 ldarg.0 	; this$
  00c4e	25		 dup 
  00c4f	7b 00 00 00 00	 ldfld ?okButton@QBuild@Mogitter@@3P$AAVButton@Forms@Windows@System@@$AA
  00c54	28 00 00 00 00	 call ?set@AcceptButton@Form@Forms@Windows@System@@$$FQ$AAMXP$AAUIButtonControl@345@@Z

; 344  : 			this->AutoScaleDimensions = System::Drawing::SizeF(6, 12);

  00c59	12 05		 ldloca.s 5	; $S37$
  00c5b	22 00 00 c0 40	 ldc.r4 6.000000
  00c60	22 00 00 40 41	 ldc.r4 12.000000
  00c65	28 00 00 00 00	 call ??0SizeF@Drawing@System@@$$FQ$CAM@MM@Z
  00c6a	02		 ldarg.0 	; this$
  00c6b	11 05		 ldloc.s 5	; $S37$
  00c6d	28 00 00 00 00	 call ?set@AutoScaleDimensions@ContainerControl@Forms@Windows@System@@$$FQ$AAMXVSizeF@Drawing@5@@Z

; 345  : 			this->AutoScaleMode = System::Windows::Forms::AutoScaleMode::Font;

  00c72	02		 ldarg.0 	; this$
  00c73	17		 ldc.i.1 1	; i32 0x1
  00c74	28 00 00 00 00	 call ?set@AutoScaleMode@ContainerControl@Forms@Windows@System@@$$FQ$AAMXW41345@@Z

; 346  : 			this->CancelButton = this->cancel;

  00c79	02		 ldarg.0 	; this$
  00c7a	25		 dup 
  00c7b	7b 00 00 00 00	 ldfld ?cancel@QBuild@Mogitter@@3P$AAVButton@Forms@Windows@System@@$AA
  00c80	28 00 00 00 00	 call ?set@CancelButton@Form@Forms@Windows@System@@$$FQ$AAMXP$AAUIButtonControl@345@@Z

; 347  : 			this->ClientSize = System::Drawing::Size(474, 354);

  00c85	12 04		 ldloca.s 4	; $S38$
  00c87	20 da 01 00 00	 ldc.i4 474	; i32 0x1da
  00c8c	20 62 01 00 00	 ldc.i4 354	; i32 0x162
  00c91	28 00 00 00 00	 call ??0Size@Drawing@System@@$$FQ$CAM@HH@Z
  00c96	02		 ldarg.0 	; this$
  00c97	11 04		 ldloc.s 4	; $S38$
  00c99	28 00 00 00 00	 call ?set@ClientSize@Form@Forms@Windows@System@@$$FQ$AAMXVSize@Drawing@5@@Z

; 348  : 			this->Controls->Add(this->sentakuGroup);

  00c9e	02		 ldarg.0 	; this$
  00c9f	28 00 00 00 00	 call ?get@Controls@Control@Forms@Windows@System@@$$FQ$AAMP$AAVControlCollection@2345@XZ
  00ca4	02		 ldarg.0 	; this$
  00ca5	7b 00 00 00 00	 ldfld ?sentakuGroup@QBuild@Mogitter@@3P$AAVGroupBox@Forms@Windows@System@@$AA
  00caa	6f 00 00 00 00	 callvirt ?Add@ControlCollection@Control@Forms@Windows@System@@$$FU$AAMXP$AAV2345@@Z

; 349  : 			this->Controls->Add(this->label1);

  00caf	02		 ldarg.0 	; this$
  00cb0	28 00 00 00 00	 call ?get@Controls@Control@Forms@Windows@System@@$$FQ$AAMP$AAVControlCollection@2345@XZ
  00cb5	02		 ldarg.0 	; this$
  00cb6	7b 00 00 00 00	 ldfld ?label1@QBuild@Mogitter@@3P$AAVLabel@Forms@Windows@System@@$AA
  00cbb	6f 00 00 00 00	 callvirt ?Add@ControlCollection@Control@Forms@Windows@System@@$$FU$AAMXP$AAV2345@@Z

; 350  : 			this->Controls->Add(this->answerBox);

  00cc0	02		 ldarg.0 	; this$
  00cc1	28 00 00 00 00	 call ?get@Controls@Control@Forms@Windows@System@@$$FQ$AAMP$AAVControlCollection@2345@XZ
  00cc6	02		 ldarg.0 	; this$
  00cc7	7b 00 00 00 00	 ldfld ?answerBox@QBuild@Mogitter@@3P$AAVTextBox@Forms@Windows@System@@$AA
  00ccc	6f 00 00 00 00	 callvirt ?Add@ControlCollection@Control@Forms@Windows@System@@$$FU$AAMXP$AAV2345@@Z

; 351  : 			this->Controls->Add(this->okButton);

  00cd1	02		 ldarg.0 	; this$
  00cd2	28 00 00 00 00	 call ?get@Controls@Control@Forms@Windows@System@@$$FQ$AAMP$AAVControlCollection@2345@XZ
  00cd7	02		 ldarg.0 	; this$
  00cd8	7b 00 00 00 00	 ldfld ?okButton@QBuild@Mogitter@@3P$AAVButton@Forms@Windows@System@@$AA
  00cdd	6f 00 00 00 00	 callvirt ?Add@ControlCollection@Control@Forms@Windows@System@@$$FU$AAMXP$AAV2345@@Z

; 352  : 			this->Controls->Add(this->cancel);

  00ce2	02		 ldarg.0 	; this$
  00ce3	28 00 00 00 00	 call ?get@Controls@Control@Forms@Windows@System@@$$FQ$AAMP$AAVControlCollection@2345@XZ
  00ce8	02		 ldarg.0 	; this$
  00ce9	7b 00 00 00 00	 ldfld ?cancel@QBuild@Mogitter@@3P$AAVButton@Forms@Windows@System@@$AA
  00cee	6f 00 00 00 00	 callvirt ?Add@ControlCollection@Control@Forms@Windows@System@@$$FU$AAMXP$AAV2345@@Z

; 353  : 			this->Controls->Add(this->panel1);

  00cf3	02		 ldarg.0 	; this$
  00cf4	28 00 00 00 00	 call ?get@Controls@Control@Forms@Windows@System@@$$FQ$AAMP$AAVControlCollection@2345@XZ
  00cf9	02		 ldarg.0 	; this$
  00cfa	7b 00 00 00 00	 ldfld ?panel1@QBuild@Mogitter@@3P$AAVPanel@Forms@Windows@System@@$AA
  00cff	6f 00 00 00 00	 callvirt ?Add@ControlCollection@Control@Forms@Windows@System@@$$FU$AAMXP$AAV2345@@Z

; 354  : 			this->FormBorderStyle = System::Windows::Forms::FormBorderStyle::FixedDialog;

  00d04	02		 ldarg.0 	; this$
  00d05	19		 ldc.i.3 3	; i32 0x3
  00d06	28 00 00 00 00	 call ?set@FormBorderStyle@Form@Forms@Windows@System@@$$FQ$AAMXW41345@@Z

; 355  : 			this->MaximizeBox = false;

  00d0b	02		 ldarg.0 	; this$
  00d0c	16		 ldc.i.0 0	; u8 0x0
  00d0d	28 00 00 00 00	 call ?set@MaximizeBox@Form@Forms@Windows@System@@$$FQ$AAMX_N@Z

; 356  : 			this->MinimizeBox = false;

  00d12	02		 ldarg.0 	; this$
  00d13	16		 ldc.i.0 0	; u8 0x0
  00d14	28 00 00 00 00	 call ?set@MinimizeBox@Form@Forms@Windows@System@@$$FQ$AAMX_N@Z

; 357  : 			this->Name = L"QBuild";

  00d19	02		 ldarg.0 	; this$
  00d1a	72 00 00 00 00	 ldstr $StringLiteralTok$??_C@_1O@FMKONPIF@?$AAQ?$AAB?$AAu?$AAi?$AAl?$AAd?$AA?$AA@
  00d1f	28 00 00 00 00	 call ?set@Name@Control@Forms@Windows@System@@$$FQ$AAMXP$AAVString@5@@Z

; 358  : 			this->ShowInTaskbar = false;

  00d24	02		 ldarg.0 	; this$
  00d25	16		 ldc.i.0 0	; u8 0x0
  00d26	28 00 00 00 00	 call ?set@ShowInTaskbar@Form@Forms@Windows@System@@$$FQ$AAMX_N@Z

; 359  : 			this->StartPosition = System::Windows::Forms::FormStartPosition::CenterParent;

  00d2b	02		 ldarg.0 	; this$
  00d2c	1a		 ldc.i.4 4	; i32 0x4
  00d2d	28 00 00 00 00	 call ?set@StartPosition@Form@Forms@Windows@System@@$$FQ$AAMXW4FormStartPosition@345@@Z

; 360  : 			this->Text = L"問題作成";

  00d32	02		 ldarg.0 	; this$
  00d33	72 00 00 00 00	 ldstr $StringLiteralTok$??_C@_19FDLBGPKB@UO?$JILO?2b?$BA?$AA?$AA@
  00d38	6f 00 00 00 00	 callvirt ?set@Text@Form@Forms@Windows@System@@$$FU$AAMXP$AAVString@5@@Z

; 361  : 			this->TopMost = true;

  00d3d	02		 ldarg.0 	; this$
  00d3e	17		 ldc.i.1 1	; u8 0x1
  00d3f	28 00 00 00 00	 call ?set@TopMost@Form@Forms@Windows@System@@$$FQ$AAMX_N@Z

; 362  : 			this->Load += gcnew System::EventHandler(this, &QBuild::QBuild_Load);

  00d44	02		 ldarg.0 	; this$
  00d45	25		 dup 
  00d46	fe 06 00 00 00
	00		 ldftn ?QBuild_Load@QBuild@Mogitter@@$$FA$AAMXP$AAVObject@System@@P$AAVEventArgs@4@@Z
  00d4c	73 00 00 00 00	 newobj ??0EventHandler@System@@$$FQ$AAM@P$AAVObject@1@VIntPtr@1@@Z
  00d51	28 00 00 00 00	 call ?add@Load@Form@Forms@Windows@System@@$$FQ$AAMXP$AAVEventHandler@5@@Z

; 363  : 			this->sentakuGroup->ResumeLayout(false);

  00d56	02		 ldarg.0 	; this$
  00d57	7b 00 00 00 00	 ldfld ?sentakuGroup@QBuild@Mogitter@@3P$AAVGroupBox@Forms@Windows@System@@$AA
  00d5c	16		 ldc.i.0 0	; u8 0x0
  00d5d	28 00 00 00 00	 call ?ResumeLayout@Control@Forms@Windows@System@@$$FQ$AAMX_N@Z

; 364  : 			this->sentakuGroup->PerformLayout();

  00d62	02		 ldarg.0 	; this$
  00d63	7b 00 00 00 00	 ldfld ?sentakuGroup@QBuild@Mogitter@@3P$AAVGroupBox@Forms@Windows@System@@$AA
  00d68	28 00 00 00 00	 call ?PerformLayout@Control@Forms@Windows@System@@$$FQ$AAMXXZ

; 365  : 			(cli::safe_cast<System::ComponentModel::ISupportInitialize^  >(this->seikaiNumber))->EndInit();

  00d6d	02		 ldarg.0 	; this$
  00d6e	7b 00 00 00 00	 ldfld ?seikaiNumber@QBuild@Mogitter@@3P$AAVNumericUpDown@Forms@Windows@System@@$AA
  00d73	6f 00 00 00 00	 callvirt ?EndInit@ISupportInitialize@ComponentModel@System@@$$FU$AAMXXZ

; 366  : 			this->ResumeLayout(false);

  00d78	02		 ldarg.0 	; this$
  00d79	16		 ldc.i.0 0	; u8 0x0
  00d7a	28 00 00 00 00	 call ?ResumeLayout@Control@Forms@Windows@System@@$$FQ$AAMX_N@Z

; 367  : 			this->PerformLayout();

  00d7f	02		 ldarg.0 	; this$
  00d80	28 00 00 00 00	 call ?PerformLayout@Control@Forms@Windows@System@@$$FQ$AAMXXZ

; 368  : 
; 369  : 		}

  00d85	2a		 ret 
 .end ?InitializeComponent@QBuild@Mogitter@@$$FA$AAMXXZ	; Mogitter::QBuild::InitializeComponent
;	.proc.end.void
.global	
	.bss
.local	,4
.local	$TypeTok$115A38A8$,4
.local	$StringLiteralTok$??_C@_1CM@LCIPHNNF@?$AA$?$AAt?$AAh?$AAi?$AAs?$AA?4?$AAB?$AAa?$AAc?$AAk?$AAg?$AAr?$AAo?$AAu?$AAn?$AAd?$AAI?$AAm?$AAa?$AAg?$AAe?$AA?$AA@,4
.local	$TypeTok$112E73C0$,4
.local	$StringLiteralTok$??_C@_1O@MMLNLMIJ@?$AAS?$AAp?$AAr?$AAa?$AAs?$AAh?$AA?$AA@,4
.local	$T1,0
; Function compile flags: /Ogsp
; File f:\meijin4\c++\mogitter\mogitter\sprash.h
	.text
	.comdat	any, ?InitializeComponent@Sprash@Mogitter@@$$FA$AAMXXZ
.global	?InitializeComponent@Sprash@Mogitter@@$$FA$AAMXXZ ; Mogitter::Sprash::InitializeComponent
?InitializeComponent@Sprash@Mogitter@@$$FA$AAMXXZ:	; Mogitter::Sprash::InitializeComponent
;	.proc.def	D:V()

; Function Header:
; max stack depth = 3
; function size = 196 bytes
; local varsig tk = 0x11000030 
; Exception Information:
; 0 handlers, each consisting of filtered handlers

;	.formal.mptr 0,"this$" SIG: Optional C Binding Modifier(token:0x3D7841D).class (token:0x3D78420)
;	.local.mptr 2,"resources$" SIG: class (token:0x3D1E79D)
;	.local.mb8   1,"$S39$" SIG: valueType (token:0x3D1EBAD)
