; Listing generated by Microsoft (R) Optimizing Compiler Version 17.00.50727.1 

; Generated by VC++ for Common Language Runtime
.file "F:\Meijin4\C++\Mogitter\Mogitter\MogiMeijin.cpp"
.global	
.global	?components@Form1@Mogitter@@3P$AAVContainer@ComponentModel@System@@$AA ; Mogitter::Form1::components
	.bss
.local	,4
.local	?components@Form1@Mogitter@@3P$AAVContainer@ComponentModel@System@@$AA,4 ; Mogitter::Form1::components
.local	$T1,0
; Function compile flags: /Ogsp
; File f:\meijin4\c++\mogitter\mogitter\form1.h
	.text
	.comdat	any, ??1Form1@Mogitter@@$$FA$AAM@XZ
.global	??1Form1@Mogitter@@$$FA$AAM@XZ			; Mogitter::Form1::~Form1
??1Form1@Mogitter@@$$FA$AAM@XZ:				; Mogitter::Form1::~Form1
;	.proc.def	D:V()

; Function Header:
; max stack depth = 1
; function size = 17 bytes
; local varsig tk = 0x11000002 
; Exception Information:
; 0 handlers, each consisting of filtered handlers

;	.formal.mptr 0,"this$" SIG: Optional C Binding Modifier(token:0x38BA05).class (token:0x38BA08)
;	.local.u4 0,"$T2" SIG: class (token:0x38B94D)

;	.proc.beg

; 46   : 			if (components)

  0000b	02		 ldarg.0 	; this$
  0000c	7b 00 00 00 00	 ldfld ?components@Form1@Mogitter@@3P$AAVContainer@ComponentModel@System@@$AA
  00011	0a		 stloc.0 	; $T2
  00012	06		 ldloc.0 	; $T2
  00013	2c 07		 brfalse.s $LN4@Form1

; 47   : 			{
; 48   : 				delete components;

  00015	06		 ldloc.0 	; $T2
  00016	6f 00 00 00 00	 callvirt ?<Dispose>@IDisposable@System@@$$FU$AAMXXZ
$LN4@Form1:

; 49   : 			}
; 50   : 		}

  0001c	2a		 ret 
 .end ??1Form1@Mogitter@@$$FA$AAM@XZ			; Mogitter::Form1::~Form1
;	.proc.end.void
.global	
.global	
.global	?answerBox@QBuild@Mogitter@@3P$AAVTextBox@Forms@Windows@System@@$AA ; Mogitter::QBuild::answerBox
	.bss
.local	,4
.local	,4
.local	?answerBox@QBuild@Mogitter@@3P$AAVTextBox@Forms@Windows@System@@$AA,4 ; Mogitter::QBuild::answerBox
; Function compile flags: /Ogsp
; File f:\meijin4\c++\mogitter\mogitter\qbuild.h
	.text
	.comdat	any, ?beginSet@QBuild@Mogitter@@$$FQ$AAMXP$AAVString@System@@@Z
.global	?beginSet@QBuild@Mogitter@@$$FQ$AAMXP$AAVString@System@@@Z ; Mogitter::QBuild::beginSet
?beginSet@QBuild@Mogitter@@$$FQ$AAMXP$AAVString@System@@@Z: ; Mogitter::QBuild::beginSet
;	.proc.def	D:V(P)

; Function Header:
; max stack depth = 2
; function size = 13 bytes
; local varsig tk = 0x0 
; Exception Information:
; 0 handlers, each consisting of filtered handlers

;	.formal.mptr 0,"this$" SIG: Optional C Binding Modifier(token:0x3D19CDD).class (token:0x3D19CE0)
;	.formal.mptr 1,"sele$" SIG: string

;	.proc.beg

; 371  : 				answerBox->Text = sele;

  0000b	02		 ldarg.0 	; this$
  0000c	7b 00 00 00 00	 ldfld ?answerBox@QBuild@Mogitter@@3P$AAVTextBox@Forms@Windows@System@@$AA
  00011	03		 ldarg.1 	; sele$
  00012	6f 00 00 00 00	 callvirt ?set@Text@TextBox@Forms@Windows@System@@$$FU$AAMXP$AAVString@5@@Z

; 372  : 				//sentakuGroup->Enabled = false;
; 373  : 			}

  00017	2a		 ret 
 .end ?beginSet@QBuild@Mogitter@@$$FQ$AAMXP$AAVString@System@@@Z ; Mogitter::QBuild::beginSet
;	.proc.end.void
.global	
.global	
.global	?sentakushi@QBuild@Mogitter@@3P$AAVAzukiControl@WinForms@Azuki@Sgry@@$AA ; Mogitter::QBuild::sentakushi
.global	?LineNumberBack@ColorScheme@Azuki@Sgry@@3VColor@Drawing@System@@A ; Sgry::Azuki::ColorScheme::LineNumberBack
.global	?LineNumberFore@ColorScheme@Azuki@Sgry@@3VColor@Drawing@System@@A ; Sgry::Azuki::ColorScheme::LineNumberFore
	.bss
.local	,4
.local	,4
.local	?sentakushi@QBuild@Mogitter@@3P$AAVAzukiControl@WinForms@Azuki@Sgry@@$AA,4 ; Mogitter::QBuild::sentakushi
.local	?LineNumberBack@ColorScheme@Azuki@Sgry@@3VColor@Drawing@System@@A,20 ; Sgry::Azuki::ColorScheme::LineNumberBack
.local	?LineNumberFore@ColorScheme@Azuki@Sgry@@3VColor@Drawing@System@@A,20 ; Sgry::Azuki::ColorScheme::LineNumberFore
.local	$T1,0
; Function compile flags: /Ogsp
; File f:\meijin4\c++\mogitter\mogitter\qbuild.h
	.text
	.comdat	any, ?QBuild_Load@QBuild@Mogitter@@$$FA$AAMXP$AAVObject@System@@P$AAVEventArgs@4@@Z
.global	?QBuild_Load@QBuild@Mogitter@@$$FA$AAMXP$AAVObject@System@@P$AAVEventArgs@4@@Z ; Mogitter::QBuild::QBuild_Load
?QBuild_Load@QBuild@Mogitter@@$$FA$AAMXP$AAVObject@System@@P$AAVEventArgs@4@@Z: ; Mogitter::QBuild::QBuild_Load
;	.proc.def	D:V(PP)

; Function Header:
; max stack depth = 4
; function size = 177 bytes
; local varsig tk = 0x11000007 
; Exception Information:
; 0 handlers, each consisting of filtered handlers

;	.formal.mptr 0,"this$" SIG: Optional C Binding Modifier(token:0x3D19CDD).class (token:0x3D19CE0)
;	.local.mb20  2,"$T2" SIG: valueType (token:0x3D28D25)
;	.local.mb20  1,"$T3" SIG: valueType (token:0x3D28D25)
;	.local.mb20  0,"$T4" SIG: valueType (token:0x3D28D25)

;	.proc.beg

; 376  : 				 this->sentakushi->BackColor = System::Drawing::Color::White;

  0000b	28 00 00 00 00	 call ?get@White@Color@Drawing@System@@$$FSM?AV234@XZ
  00010	0c		 stloc.2 	; $T2
  00011	02		 ldarg.0 	; this$
  00012	7b 00 00 00 00	 ldfld ?sentakushi@QBuild@Mogitter@@3P$AAVAzukiControl@WinForms@Azuki@Sgry@@$AA
  00017	08		 ldloc.2 	; $T2
  00018	6f 00 00 00 00	 callvirt ?set@BackColor@AzukiControl@WinForms@Azuki@Sgry@@$$FU$AAMXVColor@Drawing@System@@@Z

; 377  : 				 sentakushi->SetKeyBind(static_cast<System::Windows::Forms::Keys>((System::Windows::Forms::Keys::Control | System::Windows::Forms::Keys::C)),gcnew Sgry::Azuki::ActionProc(&Sgry::Azuki::Actions::Copy));

  0001d	02		 ldarg.0 	; this$
  0001e	7b 00 00 00 00	 ldfld ?sentakushi@QBuild@Mogitter@@3P$AAVAzukiControl@WinForms@Azuki@Sgry@@$AA
  00023	20 43 00 02 00	 ldc.i4 131139	; i32 0x20043
  00028	14		 ldnull 0	; i32 0x0
  00029	fe 06 00 00 00
	00		 ldftn ?Copy@Actions@Azuki@Sgry@@$$FSMXP$AAUIUserInterface@23@@Z
  0002f	73 00 00 00 00	 newobj ??0ActionProc@Azuki@Sgry@@$$FQ$AAM@P$AAVObject@System@@VIntPtr@4@@Z
  00034	28 00 00 00 00	 call ?SetKeyBind@AzukiControl@WinForms@Azuki@Sgry@@$$FQ$AAMXW4Keys@Forms@Windows@System@@P$AAVActionProc@34@@Z

; 378  : 				 sentakushi->SetKeyBind(static_cast<System::Windows::Forms::Keys>((System::Windows::Forms::Keys::Control | System::Windows::Forms::Keys::V)),gcnew Sgry::Azuki::ActionProc(&Sgry::Azuki::Actions::Paste));

  00039	02		 ldarg.0 	; this$
  0003a	7b 00 00 00 00	 ldfld ?sentakushi@QBuild@Mogitter@@3P$AAVAzukiControl@WinForms@Azuki@Sgry@@$AA
  0003f	20 56 00 02 00	 ldc.i4 131158	; i32 0x20056
  00044	14		 ldnull 0	; i32 0x0
  00045	fe 06 00 00 00
	00		 ldftn ?Paste@Actions@Azuki@Sgry@@$$FSMXP$AAUIUserInterface@23@@Z
  0004b	73 00 00 00 00	 newobj ??0ActionProc@Azuki@Sgry@@$$FQ$AAM@P$AAVObject@System@@VIntPtr@4@@Z
  00050	28 00 00 00 00	 call ?SetKeyBind@AzukiControl@WinForms@Azuki@Sgry@@$$FQ$AAMXW4Keys@Forms@Windows@System@@P$AAVActionProc@34@@Z

; 379  : 				 sentakushi->SetKeyBind(static_cast<System::Windows::Forms::Keys>((System::Windows::Forms::Keys::Control | System::Windows::Forms::Keys::Z)),gcnew Sgry::Azuki::ActionProc(&Sgry::Azuki::Actions::Undo));

  00055	02		 ldarg.0 	; this$
  00056	7b 00 00 00 00	 ldfld ?sentakushi@QBuild@Mogitter@@3P$AAVAzukiControl@WinForms@Azuki@Sgry@@$AA
  0005b	20 5a 00 02 00	 ldc.i4 131162	; i32 0x2005a
  00060	14		 ldnull 0	; i32 0x0
  00061	fe 06 00 00 00
	00		 ldftn ?Undo@Actions@Azuki@Sgry@@$$FSMXP$AAUIUserInterface@23@@Z
  00067	73 00 00 00 00	 newobj ??0ActionProc@Azuki@Sgry@@$$FQ$AAM@P$AAVObject@System@@VIntPtr@4@@Z
  0006c	28 00 00 00 00	 call ?SetKeyBind@AzukiControl@WinForms@Azuki@Sgry@@$$FQ$AAMXW4Keys@Forms@Windows@System@@P$AAVActionProc@34@@Z

; 380  : 				 sentakushi->SetKeyBind(static_cast<System::Windows::Forms::Keys>((System::Windows::Forms::Keys::Control | System::Windows::Forms::Keys::Y)),gcnew Sgry::Azuki::ActionProc(&Sgry::Azuki::Actions::Redo));

  00071	02		 ldarg.0 	; this$
  00072	7b 00 00 00 00	 ldfld ?sentakushi@QBuild@Mogitter@@3P$AAVAzukiControl@WinForms@Azuki@Sgry@@$AA
  00077	20 59 00 02 00	 ldc.i4 131161	; i32 0x20059
  0007c	14		 ldnull 0	; i32 0x0
  0007d	fe 06 00 00 00
	00		 ldftn ?Redo@Actions@Azuki@Sgry@@$$FSMXP$AAUIUserInterface@23@@Z
  00083	73 00 00 00 00	 newobj ??0ActionProc@Azuki@Sgry@@$$FQ$AAM@P$AAVObject@System@@VIntPtr@4@@Z
  00088	28 00 00 00 00	 call ?SetKeyBind@AzukiControl@WinForms@Azuki@Sgry@@$$FQ$AAMXW4Keys@Forms@Windows@System@@P$AAVActionProc@34@@Z

; 381  : 				 sentakushi->ColorScheme->LineNumberBack = Color::SeaShell;// SeaShell;

  0008d	28 00 00 00 00	 call ?get@SeaShell@Color@Drawing@System@@$$FSM?AV234@XZ
  00092	0b		 stloc.1 	; $T3
  00093	02		 ldarg.0 	; this$
  00094	7b 00 00 00 00	 ldfld ?sentakushi@QBuild@Mogitter@@3P$AAVAzukiControl@WinForms@Azuki@Sgry@@$AA
  00099	6f 00 00 00 00	 callvirt ?get@ColorScheme@AzukiControl@WinForms@Azuki@Sgry@@$$FU$AAMP$AAV145@XZ
  0009e	07		 ldloc.1 	; $T3
  0009f	7d 00 00 00 00	 stfld ?LineNumberBack@ColorScheme@Azuki@Sgry@@3VColor@Drawing@System@@A

; 382  : 				 sentakushi->ColorScheme->LineNumberFore = Color::Sienna;

  000a4	28 00 00 00 00	 call ?get@Sienna@Color@Drawing@System@@$$FSM?AV234@XZ
  000a9	0a		 stloc.0 	; $T4
  000aa	02		 ldarg.0 	; this$
  000ab	7b 00 00 00 00	 ldfld ?sentakushi@QBuild@Mogitter@@3P$AAVAzukiControl@WinForms@Azuki@Sgry@@$AA
  000b0	6f 00 00 00 00	 callvirt ?get@ColorScheme@AzukiControl@WinForms@Azuki@Sgry@@$$FU$AAMP$AAV145@XZ
  000b5	06		 ldloc.0 	; $T4
  000b6	7d 00 00 00 00	 stfld ?LineNumberFore@ColorScheme@Azuki@Sgry@@3VColor@Drawing@System@@A

; 383  : 			 }

  000bb	2a		 ret 
 .end ?QBuild_Load@QBuild@Mogitter@@$$FA$AAMXP$AAVObject@System@@P$AAVEventArgs@4@@Z ; Mogitter::QBuild::QBuild_Load
;	.proc.end.void
; Function compile flags: /Ogsp
; File f:\meijin4\c++\mogitter\mogitter\qbuild.h
	.text
	.comdat	any, ?cancel_Click@QBuild@Mogitter@@$$FA$AAMXP$AAVObject@System@@P$AAVEventArgs@4@@Z
.global	?cancel_Click@QBuild@Mogitter@@$$FA$AAMXP$AAVObject@System@@P$AAVEventArgs@4@@Z ; Mogitter::QBuild::cancel_Click
?cancel_Click@QBuild@Mogitter@@$$FA$AAMXP$AAVObject@System@@P$AAVEventArgs@4@@Z: ; Mogitter::QBuild::cancel_Click
;	.proc.def	D:V(PP)

; Function Header:
; max stack depth = 1
; function size = 7 bytes
; local varsig tk = 0x0 
; Exception Information:
; 0 handlers, each consisting of filtered handlers

;	.formal.mptr 0,"this$" SIG: Optional C Binding Modifier(token:0x3D19CDD).class (token:0x3D19CE0)

;	.proc.beg

; 385  : 				 this->Close();

  0000b	02		 ldarg.0 	; this$
  0000c	28 00 00 00 00	 call ?Close@Form@Forms@Windows@System@@$$FQ$AAMXXZ

; 386  : 			 }

  00011	2a		 ret 
 .end ?cancel_Click@QBuild@Mogitter@@$$FA$AAMXP$AAVObject@System@@P$AAVEventArgs@4@@Z ; Mogitter::QBuild::cancel_Click
;	.proc.end.void
.global	
.global	
.global	
.global	?seikaiNumber@QBuild@Mogitter@@3P$AAVNumericUpDown@Forms@Windows@System@@$AA ; Mogitter::QBuild::seikaiNumber
	.bss
.local	,4
.local	,4
.local	,4
.local	$TypeTok$11003218$,4
.local	$va_argTok$_W,4
.local	$StringLiteralTok$??_C@_13LBAGMAIH@?$AA?6?$AA?$AA@,4
.local	$StringLiteralTok$??_C@_11LOCGONAA@?$AA?$AA@,4
.local	$StringLiteralTok$??_C@_13CMNBPIDO@?$AA?$AN?$AA?$AA@,4
.local	?seikaiNumber@QBuild@Mogitter@@3P$AAVNumericUpDown@Forms@Windows@System@@$AA,4 ; Mogitter::QBuild::seikaiNumber
.local	$T1,0
; Function compile flags: /Ogsp
; File f:\meijin4\c++\mogitter\mogitter\qbuild.h
	.text
	.comdat	any, ?sentakushi_TextChanged@QBuild@Mogitter@@$$FA$AAMXP$AAVObject@System@@P$AAVEventArgs@4@@Z
.global	?sentakushi_TextChanged@QBuild@Mogitter@@$$FA$AAMXP$AAVObject@System@@P$AAVEventArgs@4@@Z ; Mogitter::QBuild::sentakushi_TextChanged
?sentakushi_TextChanged@QBuild@Mogitter@@$$FA$AAMXP$AAVObject@System@@P$AAVEventArgs@4@@Z: ; Mogitter::QBuild::sentakushi_TextChanged
;	.proc.def	D:V(PP)

; Function Header:
; max stack depth = 5
; function size = 164 bytes
; local varsig tk = 0x1100000B 
; Exception Information:
; 0 handlers, each consisting of filtered handlers

;	.formal.mptr 0,"this$" SIG: Optional C Binding Modifier(token:0x3D19CDD).class (token:0x3D19CE0)
;	.local.mptr 3,"sep$" SIG: szarray (token:0x3D1C00D)
;	.local.mptr 1,"kinds$" SIG: szarray (token:0x3D1E3B5)
;	.local.i4 2,"len$" SIG: i4
;	.local.i4 0,"i$2" SIG: i4
;	.local.mb16  5,"$T3" SIG: valueType (token:0x3D226AD)
;	.local.mb16  4,"$T4" SIG: valueType (token:0x3D226AD)

;	.proc.beg

; 388  : 				 array<wchar_t>^ sep = {'\n'};

  0000b	17		 ldc.i.1 1	; i32 0x1
  0000c	8d 00 00 00 00	 newarr $TypeTok$11003218$
  00011	0d		 stloc.3 	; sep$
  00012	09		 ldloc.3 	; sep$
  00013	16		 ldc.i.0 0	; i32 0x0
  00014	8f 00 00 00 00	 ldelema $va_argTok$_W
  00019	1f 0a		 ldc.i4.s 10	; u16 0xa
  0001b	53		 stind.i2 

; 389  : 				 array<System::String ^> ^kinds=sentakushi->Text->Split(sep);

  0001c	02		 ldarg.0 	; this$
  0001d	7b 00 00 00 00	 ldfld ?sentakushi@QBuild@Mogitter@@3P$AAVAzukiControl@WinForms@Azuki@Sgry@@$AA
  00022	6f 00 00 00 00	 callvirt ?get@Text@AzukiControl@WinForms@Azuki@Sgry@@$$FU$AAMP$AAVString@System@@XZ
  00027	09		 ldloc.3 	; sep$
  00028	28 00 00 00 00	 call ?Split@String@System@@$$FQ$AAMP$01AP$AAV12@P$01A_W@Z
  0002d	0b		 stloc.1 	; kinds$

; 390  : 				 int len = 1;

  0002e	17		 ldc.i.1 1	; i32 0x1
  0002f	0c		 stloc.2 	; len$

; 391  : 				 for(int i=0;i<kinds->Length;i++){

  00030	16		 ldc.i.0 0	; i32 0x0
  00031	0a		 stloc.0 	; i$2
  00032	16		 ldc.i.0 0	; i32 0x0
  00033	07		 ldloc.1 	; kinds$
  00034	8e		 ldlen 
  00035	2f 42		 bge.s $LN2@sentakushi
$LL4@sentakushi:

; 392  : 						kinds[i] = kinds[i]->Replace("\n","");

  00038	07		 ldloc.1 	; kinds$
  00039	06		 ldloc.0 	; i$2
  0003a	07		 ldloc.1 	; kinds$
  0003b	06		 ldloc.0 	; i$2
  0003c	9a		 ldelem.ref 
  0003d	72 00 00 00 00	 ldstr $StringLiteralTok$??_C@_13LBAGMAIH@?$AA?6?$AA?$AA@
  00042	72 00 00 00 00	 ldstr $StringLiteralTok$??_C@_11LOCGONAA@?$AA?$AA@
  00047	28 00 00 00 00	 call ?Replace@String@System@@$$FQ$AAMP$AAV12@P$AAV12@0@Z
  0004c	a2		 stelem.ref 

; 393  : 						kinds[i] = kinds[i]->Replace("\r","");

  0004d	07		 ldloc.1 	; kinds$
  0004e	06		 ldloc.0 	; i$2
  0004f	07		 ldloc.1 	; kinds$
  00050	06		 ldloc.0 	; i$2
  00051	9a		 ldelem.ref 
  00052	72 00 00 00 00	 ldstr $StringLiteralTok$??_C@_13CMNBPIDO@?$AA?$AN?$AA?$AA@
  00057	72 00 00 00 00	 ldstr $StringLiteralTok$??_C@_11LOCGONAA@?$AA?$AA@
  0005c	28 00 00 00 00	 call ?Replace@String@System@@$$FQ$AAMP$AAV12@P$AAV12@0@Z
  00061	a2		 stelem.ref 

; 394  : 						if(kinds[i]->Length==0)

  00062	07		 ldloc.1 	; kinds$
  00063	06		 ldloc.0 	; i$2
  00064	9a		 ldelem.ref 
  00065	28 00 00 00 00	 call ?get@Length@String@System@@$$FQ$AAMHXZ
  0006a	2c 04		 brfalse.s $LN3@sentakushi

; 395  : 							continue;
; 396  : 						len++;

  0006c	08		 ldloc.2 	; len$
  0006d	17		 ldc.i.1 1	; i32 0x1
  0006e	58		 add 
  0006f	0c		 stloc.2 	; len$
$LN3@sentakushi:

; 391  : 				 for(int i=0;i<kinds->Length;i++){

  00070	06		 ldloc.0 	; i$2
  00071	17		 ldc.i.1 1	; i32 0x1
  00072	58		 add 
  00073	0a		 stloc.0 	; i$2
  00074	06		 ldloc.0 	; i$2
  00075	07		 ldloc.1 	; kinds$
  00076	8e		 ldlen 
  00077	32 bf		 blt.s $LL4@sentakushi
$LN2@sentakushi:

; 397  : 				 }
; 398  : 				 seikaiNumber->Maximum = len;

  00079	08		 ldloc.2 	; len$
  0007a	28 00 00 00 00	 call ??BDecimal@System@@$$FSM?AV01@H@Z
  0007f	13 05		 stloc.s 5	; $T3
  00081	02		 ldarg.0 	; this$
  00082	7b 00 00 00 00	 ldfld ?seikaiNumber@QBuild@Mogitter@@3P$AAVNumericUpDown@Forms@Windows@System@@$AA
  00087	11 05		 ldloc.s 5	; $T3
  00089	28 00 00 00 00	 call ?set@Maximum@NumericUpDown@Forms@Windows@System@@$$FQ$AAMXVDecimal@5@@Z

; 399  : 				 Random^ rand = gcnew Random();

  0008e	73 00 00 00 00	 newobj ??0Random@System@@$$FQ$AAM@XZ

; 400  : 				 seikaiNumber->Value = rand->Next(len)+1;

  00093	08		 ldloc.2 	; len$
  00094	6f 00 00 00 00	 callvirt ?Next@Random@System@@$$FU$AAMHH@Z
  00099	17		 ldc.i.1 1	; i32 0x1
  0009a	58		 add 
  0009b	28 00 00 00 00	 call ??BDecimal@System@@$$FSM?AV01@H@Z
  000a0	13 04		 stloc.s 4	; $T4
  000a2	02		 ldarg.0 	; this$
  000a3	7b 00 00 00 00	 ldfld ?seikaiNumber@QBuild@Mogitter@@3P$AAVNumericUpDown@Forms@Windows@System@@$AA
  000a8	11 04		 ldloc.s 4	; $T4
  000aa	28 00 00 00 00	 call ?set@Value@NumericUpDown@Forms@Windows@System@@$$FQ$AAMXVDecimal@5@@Z

; 401  : 		 }

  000af	2a		 ret 
 .end ?sentakushi_TextChanged@QBuild@Mogitter@@$$FA$AAMXP$AAVObject@System@@P$AAVEventArgs@4@@Z ; Mogitter::QBuild::sentakushi_TextChanged
;	.proc.end.void
.global	
	.bss
.local	,4
; Function compile flags: /Ogsp
; File f:\meijin4\c++\mogitter\mogitter\sprash.h
	.text
	.comdat	any, ?Sprash_Load@Sprash@Mogitter@@$$FA$AAMXP$AAVObject@System@@P$AAVEventArgs@4@@Z
.global	?Sprash_Load@Sprash@Mogitter@@$$FA$AAMXP$AAVObject@System@@P$AAVEventArgs@4@@Z ; Mogitter::Sprash::Sprash_Load
?Sprash_Load@Sprash@Mogitter@@$$FA$AAMXP$AAVObject@System@@P$AAVEventArgs@4@@Z: ; Mogitter::Sprash::Sprash_Load
;	.proc.def	D:V(PP)

; Function Header:
; max stack depth = 0
; function size = 1 bytes
; local varsig tk = 0x0 
; Exception Information:
; 0 handlers, each consisting of filtered handlers


;	.proc.beg

; 98   : 			 }

  0000b	2a		 ret 
 .end ?Sprash_Load@Sprash@Mogitter@@$$FA$AAMXP$AAVObject@System@@P$AAVEventArgs@4@@Z ; Mogitter::Sprash::Sprash_Load
;	.proc.end.void
; Function compile flags: /Ogsp
; File f:\meijin4\c++\mogitter\mogitter\sprash.h
	.text
	.comdat	any, ?closingNow@Sprash@Mogitter@@$$FA$AAMXP$AAVObject@System@@P$AAVEventArgs@4@@Z
.global	?closingNow@Sprash@Mogitter@@$$FA$AAMXP$AAVObject@System@@P$AAVEventArgs@4@@Z ; Mogitter::Sprash::closingNow
?closingNow@Sprash@Mogitter@@$$FA$AAMXP$AAVObject@System@@P$AAVEventArgs@4@@Z: ; Mogitter::Sprash::closingNow
;	.proc.def	D:V(PP)

; Function Header:
; max stack depth = 1
; function size = 7 bytes
; local varsig tk = 0x0 
; Exception Information:
; 0 handlers, each consisting of filtered handlers

;	.formal.mptr 0,"this$" SIG: Optional C Binding Modifier(token:0x3D7841D).class (token:0x3D78420)

;	.proc.beg

; 100  : 				 this->Close();

  0000b	02		 ldarg.0 	; this$
  0000c	28 00 00 00 00	 call ?Close@Form@Forms@Windows@System@@$$FQ$AAMXXZ

; 101  : 			 }

  00011	2a		 ret 
 .end ?closingNow@Sprash@Mogitter@@$$FA$AAMXP$AAVObject@System@@P$AAVEventArgs@4@@Z ; Mogitter::Sprash::closingNow
;	.proc.end.void
.global	
.global	?mogiMake@Form1@Mogitter@@3P$AAVButton@Forms@Windows@System@@$AA ; Mogitter::Form1::mogiMake
.global	?makeOrDeleteBox@Form1@Mogitter@@3P$AAVGroupBox@Forms@Windows@System@@$AA ; Mogitter::Form1::makeOrDeleteBox
.global	?kindSetBox@Form1@Mogitter@@3P$AAVGroupBox@Forms@Windows@System@@$AA ; Mogitter::Form1::kindSetBox
.global	?keishikiBox@Form1@Mogitter@@3P$AAVGroupBox@Forms@Windows@System@@$AA ; Mogitter::Form1::keishikiBox
	.bss
.local	,4
.local	?mogiMake@Form1@Mogitter@@3P$AAVButton@Forms@Windows@System@@$AA,4 ; Mogitter::Form1::mogiMake
.local	?makeOrDeleteBox@Form1@Mogitter@@3P$AAVGroupBox@Forms@Windows@System@@$AA,4 ; Mogitter::Form1::makeOrDeleteBox
.local	?kindSetBox@Form1@Mogitter@@3P$AAVGroupBox@Forms@Windows@System@@$AA,4 ; Mogitter::Form1::kindSetBox
.local	?keishikiBox@Form1@Mogitter@@3P$AAVGroupBox@Forms@Windows@System@@$AA,4 ; Mogitter::Form1::keishikiBox
; Function compile flags: /Ogsp
; File f:\meijin4\c++\mogitter\mogitter\form1.h
	.text
	.comdat	any, ?setButtonsEnabled@Form1@Mogitter@@$$FA$AAMX_N@Z
.global	?setButtonsEnabled@Form1@Mogitter@@$$FA$AAMX_N@Z ; Mogitter::Form1::setButtonsEnabled
?setButtonsEnabled@Form1@Mogitter@@$$FA$AAMX_N@Z:	; Mogitter::Form1::setButtonsEnabled
;	.proc.def	D:V(I)

; Function Header:
; max stack depth = 2
; function size = 49 bytes
; local varsig tk = 0x0 
; Exception Information:
; 0 handlers, each consisting of filtered handlers

;	.formal.mptr 0,"this$" SIG: Optional C Binding Modifier(token:0x38BA05).class (token:0x38BA08)
;	.formal.u1 1,"setBool$" SIG: bool

;	.proc.beg

; 748  : 				mogiMake->Enabled = setBool;

  0000b	02		 ldarg.0 	; this$
  0000c	7b 00 00 00 00	 ldfld ?mogiMake@Form1@Mogitter@@3P$AAVButton@Forms@Windows@System@@$AA
  00011	03		 ldarg.1 	; setBool$
  00012	28 00 00 00 00	 call ?set@Enabled@Control@Forms@Windows@System@@$$FQ$AAMX_N@Z

; 749  : 				makeOrDeleteBox->Enabled = setBool;

  00017	02		 ldarg.0 	; this$
  00018	7b 00 00 00 00	 ldfld ?makeOrDeleteBox@Form1@Mogitter@@3P$AAVGroupBox@Forms@Windows@System@@$AA
  0001d	03		 ldarg.1 	; setBool$
  0001e	28 00 00 00 00	 call ?set@Enabled@Control@Forms@Windows@System@@$$FQ$AAMX_N@Z

; 750  : 				kindSetBox->Enabled = setBool;

  00023	02		 ldarg.0 	; this$
  00024	7b 00 00 00 00	 ldfld ?kindSetBox@Form1@Mogitter@@3P$AAVGroupBox@Forms@Windows@System@@$AA
  00029	03		 ldarg.1 	; setBool$
  0002a	28 00 00 00 00	 call ?set@Enabled@Control@Forms@Windows@System@@$$FQ$AAMX_N@Z

; 751  : 				keishikiBox->Enabled = setBool;

  0002f	02		 ldarg.0 	; this$
  00030	7b 00 00 00 00	 ldfld ?keishikiBox@Form1@Mogitter@@3P$AAVGroupBox@Forms@Windows@System@@$AA
  00035	03		 ldarg.1 	; setBool$
  00036	28 00 00 00 00	 call ?set@Enabled@Control@Forms@Windows@System@@$$FQ$AAMX_N@Z

; 752  : 			 }

  0003b	2a		 ret 
 .end ?setButtonsEnabled@Form1@Mogitter@@$$FA$AAMX_N@Z	; Mogitter::Form1::setButtonsEnabled
;	.proc.end.void
.global	?whatToDoForUser@Form1@Mogitter@@3P$AAVToolStripStatusLabel@Forms@Windows@System@@$AA ; Mogitter::Form1::whatToDoForUser
	.bss
.local	$TypeTok$110E9D94$,4
.local	$StringLiteralTok$??_C@_1DG@EJLKPDCP@j?$CBd?l0?F0?$LJ0?H0nS?$JPe?$IH0?$JC0?F0?$KN0?$LJ0?H0?$KI0?j0?$KC0k?$IK?$KN0?$HP?$IP?$LM0?$JD0g0O0?$GA0U0D?$AA?$AA@,4
.local	$StringLiteralTok$??_C@_1EG@LAJOMJP@ztW?K0?$IB?$AA?5?$AA?1?$AA?5?$JAxb?$JOUO?$JIL0k0W0_0D?$HL?$IHb?$EA0?$JC0?$NO0?$KG0?$LJ0g?$JAxb?$JO0Y0?$IL0S0h0gO?2b?$BA0g0M@,4
.local	$StringLiteralTok$??_C@_1EM@FDADDLPJ@UO?$JILO?2b?$BA0L?$FL?$IMN?$IG0W0_0?$IJ0?$ABu?$BPb?$BA0?$NM0?$LP0?s0?$JCb?$LM0W0f?$IKf?$JK?$BD0?$JCY?K0?$IB0fN?$AL0U0D0?$ACO?$NN?$FLX@,4
.local	?whatToDoForUser@Form1@Mogitter@@3P$AAVToolStripStatusLabel@Forms@Windows@System@@$AA,4 ; Mogitter::Form1::whatToDoForUser
.local	$T1,0
; Function compile flags: /Ogsp
; File f:\meijin4\c++\mogitter\mogitter\form1.h
	.text
	.comdat	any, ?setExplainText@Form1@Mogitter@@$$FA$AAMXH@Z
.global	?setExplainText@Form1@Mogitter@@$$FA$AAMXH@Z	; Mogitter::Form1::setExplainText
?setExplainText@Form1@Mogitter@@$$FA$AAMXH@Z:		; Mogitter::Form1::setExplainText
;	.proc.def	D:V(I)

; Function Header:
; max stack depth = 3
; function size = 57 bytes
; local varsig tk = 0x1100000E 
; Exception Information:
; 0 handlers, each consisting of filtered handlers

;	.formal.mptr 0,"this$" SIG: Optional C Binding Modifier(token:0x38BA05).class (token:0x38BA08)
;	.formal.i4 1,"index$" SIG: i4
;	.local.mptr 0,"text$" SIG: szarray (token:0x3D1E3B5)

;	.proc.beg

; 754  : 				array<System::String ^> ^text = {"模擬テストの原文をテキストエリアに読み込んでください",
; 755  : 					 "穴埋め / 選択問題にしたい箇所をマウスで選択することで作成できます",
; 756  : 					 "問題作成が完了したら、生成ボタンを押して試験を始めて下さい。保存もできます",};

  0000b	19		 ldc.i.3 3	; i32 0x3
  0000c	8d 00 00 00 00	 newarr $TypeTok$110E9D94$
  00011	0a		 stloc.0 	; text$
  00012	06		 ldloc.0 	; text$
  00013	16		 ldc.i.0 0	; i32 0x0
  00014	72 00 00 00 00	 ldstr $StringLiteralTok$??_C@_1DG@EJLKPDCP@j?$CBd?l0?F0?$LJ0?H0nS?$JPe?$IH0?$JC0?F0?$KN0?$LJ0?H0?$KI0?j0?$KC0k?$IK?$KN0?$HP?$IP?$LM0?$JD0g0O0?$GA0U0D?$AA?$AA@
  00019	a2		 stelem.ref 
  0001a	06		 ldloc.0 	; text$
  0001b	17		 ldc.i.1 1	; i32 0x1
  0001c	72 00 00 00 00	 ldstr $StringLiteralTok$??_C@_1EG@LAJOMJP@ztW?K0?$IB?$AA?5?$AA?1?$AA?5?$JAxb?$JOUO?$JIL0k0W0_0D?$HL?$IHb?$EA0?$JC0?$NO0?$KG0?$LJ0g?$JAxb?$JO0Y0?$IL0S0h0gO?2b?$BA0g0M@
  00021	a2		 stelem.ref 
  00022	06		 ldloc.0 	; text$
  00023	18		 ldc.i.2 2	; i32 0x2
  00024	72 00 00 00 00	 ldstr $StringLiteralTok$??_C@_1EM@FDADDLPJ@UO?$JILO?2b?$BA0L?$FL?$IMN?$IG0W0_0?$IJ0?$ABu?$BPb?$BA0?$NM0?$LP0?s0?$JCb?$LM0W0f?$IKf?$JK?$BD0?$JCY?K0?$IB0fN?$AL0U0D0?$ACO?$NN?$FLX@
  00029	a2		 stelem.ref 

; 757  : 				if(index>=0 && index<=text->Length-1)

  0002a	03		 ldarg.1 	; index$
  0002b	16		 ldc.i.0 0	; i32 0x0
  0002c	32 16		 blt.s $LN1@setExplain
  0002e	03		 ldarg.1 	; index$
  0002f	06		 ldloc.0 	; text$
  00030	8e		 ldlen 
  00031	17		 ldc.i.1 1	; i32 0x1
  00032	59		 sub 
  00033	30 0f		 bgt.s $LN1@setExplain

; 758  : 					 whatToDoForUser->Text = text[index];

  00035	02		 ldarg.0 	; this$
  00036	7b 00 00 00 00	 ldfld ?whatToDoForUser@Form1@Mogitter@@3P$AAVToolStripStatusLabel@Forms@Windows@System@@$AA
  0003b	06		 ldloc.0 	; text$
  0003c	03		 ldarg.1 	; index$
  0003d	9a		 ldelem.ref 
  0003e	6f 00 00 00 00	 callvirt ?set@Text@ToolStripItem@Forms@Windows@System@@$$FU$AAMXP$AAVString@5@@Z
$LN1@setExplain:

; 759  : 			 }

  00044	2a		 ret 
 .end ?setExplainText@Form1@Mogitter@@$$FA$AAMXH@Z	; Mogitter::Form1::setExplainText
;	.proc.end.void
.global	
.global	
.global	?panel1@QMarking@Mogitter@@3P$AAVPanel@Forms@Windows@System@@$AA ; Mogitter::QMarking::panel1
	.bss
.local	,4
.local	,4
.local	?panel1@QMarking@Mogitter@@3P$AAVPanel@Forms@Windows@System@@$AA,4 ; Mogitter::QMarking::panel1
.local	$T1,0
; Function compile flags: /Ogsp
; File f:\meijin4\c++\mogitter\mogitter\qmarking.h
	.text
	.comdat	any, ?QMarking_Load@QMarking@Mogitter@@$$FA$AAMXP$AAVObject@System@@P$AAVEventArgs@4@@Z
.global	?QMarking_Load@QMarking@Mogitter@@$$FA$AAMXP$AAVObject@System@@P$AAVEventArgs@4@@Z ; Mogitter::QMarking::QMarking_Load
?QMarking_Load@QMarking@Mogitter@@$$FA$AAMXP$AAVObject@System@@P$AAVEventArgs@4@@Z: ; Mogitter::QMarking::QMarking_Load
;	.proc.def	D:V(PP)

; Function Header:
; max stack depth = 6
; function size = 114 bytes
; local varsig tk = 0x11000011 
; Exception Information:
; 0 handlers, each consisting of filtered handlers

;	.formal.mptr 0,"this$" SIG: Optional C Binding Modifier(token:0x3D0DB75).class (token:0x3D0DB78)
;	.local.i4 3,"w$" SIG: i4
;	.local.mb8   5,"$T2" SIG: valueType (token:0x3D1E7AD)
;	.local.i4 2,"h$" SIG: i4
;	.local.mb8   4,"$T3" SIG: valueType (token:0x3D1E7AD)
;	.local.mptr 1,"pn$" SIG: class (token:0x3D0D5FD)
;	.local.i4 0,"$T4" SIG: i4

;	.proc.beg

; 310  : 				 
; 311  : 				 int w = panel1->Size.Width;

  0000b	02		 ldarg.0 	; this$
  0000c	7b 00 00 00 00	 ldfld ?panel1@QMarking@Mogitter@@3P$AAVPanel@Forms@Windows@System@@$AA
  00011	28 00 00 00 00	 call ?get@Size@Control@Forms@Windows@System@@$$FQ$AAM?AV1Drawing@5@XZ
  00016	13 05		 stloc.s 5	; $T2
  00018	12 05		 ldloca.s 5	; $T2
  0001a	28 00 00 00 00	 call ?get@Width@Size@Drawing@System@@$$FQ$CAMHXZ
  0001f	0d		 stloc.3 	; w$

; 312  : 				 int h = panel1->Size.Height;

  00020	02		 ldarg.0 	; this$
  00021	7b 00 00 00 00	 ldfld ?panel1@QMarking@Mogitter@@3P$AAVPanel@Forms@Windows@System@@$AA
  00026	28 00 00 00 00	 call ?get@Size@Control@Forms@Windows@System@@$$FQ$AAM?AV1Drawing@5@XZ
  0002b	13 04		 stloc.s 4	; $T3
  0002d	12 04		 ldloca.s 4	; $T3
  0002f	28 00 00 00 00	 call ?get@Height@Size@Drawing@System@@$$FQ$CAMHXZ
  00034	0c		 stloc.2 	; h$

; 313  : 				 panel1->BackgroundImage = gcnew Bitmap(w,h);

  00035	02		 ldarg.0 	; this$
  00036	7b 00 00 00 00	 ldfld ?panel1@QMarking@Mogitter@@3P$AAVPanel@Forms@Windows@System@@$AA
  0003b	09		 ldloc.3 	; w$
  0003c	08		 ldloc.2 	; h$
  0003d	73 00 00 00 00	 newobj ??0Bitmap@Drawing@System@@$$FQ$AAM@HH@Z
  00042	6f 00 00 00 00	 callvirt ?set@BackgroundImage@Control@Forms@Windows@System@@$$FU$AAMXP$AAVImage@Drawing@5@@Z

; 314  : 				 Graphics^ g = Graphics::FromImage(panel1->BackgroundImage);

  00047	02		 ldarg.0 	; this$
  00048	7b 00 00 00 00	 ldfld ?panel1@QMarking@Mogitter@@3P$AAVPanel@Forms@Windows@System@@$AA
  0004d	6f 00 00 00 00	 callvirt ?get@BackgroundImage@Control@Forms@Windows@System@@$$FU$AAMP$AAVImage@Drawing@5@XZ
  00052	28 00 00 00 00	 call ?FromImage@Graphics@Drawing@System@@$$FSMP$AAV123@P$AAVImage@23@@Z

; 315  : 				 Pen^ pn = gcnew Pen(Color::Black,2);

  00057	28 00 00 00 00	 call ?get@Black@Color@Drawing@System@@$$FSM?AV234@XZ
  0005c	22 00 00 00 40	 ldc.r4 2.000000
  00061	73 00 00 00 00	 newobj ??0Pen@Drawing@System@@$$FQ$AAM@VColor@12@M@Z
  00066	0b		 stloc.1 	; pn$

; 316  : 				 pn->DashStyle = System::Drawing::Drawing2D::DashStyle::Dot;

  00067	07		 ldloc.1 	; pn$
  00068	18		 ldc.i.2 2	; i32 0x2
  00069	28 00 00 00 00	 call ?set@DashStyle@Pen@Drawing@System@@$$FQ$AAMXW41Drawing2D@34@@Z

; 317  : 				 g->DrawLine(pn,0,h-2,w,h-2);

  0006e	08		 ldloc.2 	; h$
  0006f	18		 ldc.i.2 2	; i32 0x2
  00070	59		 sub 
  00071	0a		 stloc.0 	; $T4
  00072	07		 ldloc.1 	; pn$
  00073	16		 ldc.i.0 0	; i32 0x0
  00074	06		 ldloc.0 	; $T4
  00075	09		 ldloc.3 	; w$
  00076	06		 ldloc.0 	; $T4
  00077	28 00 00 00 00	 call ?DrawLine@Graphics@Drawing@System@@$$FQ$AAMXP$AAVPen@23@HHHH@Z

; 318  : 				 
; 319  : 			 }

  0007c	2a		 ret 
 .end ?QMarking_Load@QMarking@Mogitter@@$$FA$AAMXP$AAVObject@System@@P$AAVEventArgs@4@@Z ; Mogitter::QMarking::QMarking_Load
;	.proc.end.void
.global	
.global	?azukiArea@Form1@Mogitter@@3P$AAVAzukiControl@WinForms@Azuki@Sgry@@$AA ; Mogitter::Form1::azukiArea
	.bss
.local	,4
.local	?azukiArea@Form1@Mogitter@@3P$AAVAzukiControl@WinForms@Azuki@Sgry@@$AA,4 ; Mogitter::Form1::azukiArea
.local	$StringLiteralTok$??_C@_17EKFANPAK@?$AA?$CC?$AA?$HL?$AA?$CC?$AA?$AA@,4
.local	$StringLiteralTok$??_C@_17JMAJDMBH@?$AA?$CC?$AA?$HN?$AA?$CC?$AA?$AA@,4
.local	$StringLiteralTok$??_C@_13GCIFAHHO@?$AA?$HL?$AA?$AA@,4
.local	$StringLiteralTok$??_C@_13EHOOFIKC@?$AA?$HN?$AA?$AA@,4
.local	$T1,0
; Function compile flags: /Ogsp
; File f:\meijin4\c++\mogitter\mogitter\form1.h
	.text
	.comdat	any, ?Form1_Load@Form1@Mogitter@@$$FA$AAMXP$AAVObject@System@@P$AAVEventArgs@4@@Z
.global	?Form1_Load@Form1@Mogitter@@$$FA$AAMXP$AAVObject@System@@P$AAVEventArgs@4@@Z ; Mogitter::Form1::Form1_Load
?Form1_Load@Form1@Mogitter@@$$FA$AAMXP$AAVObject@System@@P$AAVEventArgs@4@@Z: ; Mogitter::Form1::Form1_Load
;	.proc.def	D:V(PP)

; Function Header:
; max stack depth = 5
; function size = 288 bytes
; local varsig tk = 0x11000013 
; Exception Information:
; 0 handlers, each consisting of filtered handlers

;	.formal.mptr 0,"this$" SIG: Optional C Binding Modifier(token:0x38BA05).class (token:0x38BA08)
;	.local.mptr 0,"high$" SIG: class (token:0x3D1D0B5)
;	.local.mb20  5,"$T2" SIG: valueType (token:0x3D28D25)
;	.local.mb20  4,"$T3" SIG: valueType (token:0x3D28D25)
;	.local.mb20  3,"$T4" SIG: valueType (token:0x3D28D25)
;	.local.mb20  2,"$T5" SIG: valueType (token:0x3D28D25)
;	.local.mb20  1,"$T6" SIG: valueType (token:0x3D28D25)

;	.proc.beg

; 763  : 
; 764  : 				 azukiArea->SetKeyBind(static_cast<System::Windows::Forms::Keys>((System::Windows::Forms::Keys::Control | System::Windows::Forms::Keys::C)),gcnew Sgry::Azuki::ActionProc(&Sgry::Azuki::Actions::Copy));

  0000b	02		 ldarg.0 	; this$
  0000c	7b 00 00 00 00	 ldfld ?azukiArea@Form1@Mogitter@@3P$AAVAzukiControl@WinForms@Azuki@Sgry@@$AA
  00011	20 43 00 02 00	 ldc.i4 131139	; i32 0x20043
  00016	14		 ldnull 0	; i32 0x0
  00017	fe 06 00 00 00
	00		 ldftn ?Copy@Actions@Azuki@Sgry@@$$FSMXP$AAUIUserInterface@23@@Z
  0001d	73 00 00 00 00	 newobj ??0ActionProc@Azuki@Sgry@@$$FQ$AAM@P$AAVObject@System@@VIntPtr@4@@Z
  00022	28 00 00 00 00	 call ?SetKeyBind@AzukiControl@WinForms@Azuki@Sgry@@$$FQ$AAMXW4Keys@Forms@Windows@System@@P$AAVActionProc@34@@Z

; 765  : 				 azukiArea->SetKeyBind(static_cast<System::Windows::Forms::Keys>((System::Windows::Forms::Keys::Control | System::Windows::Forms::Keys::V)),gcnew Sgry::Azuki::ActionProc(&Sgry::Azuki::Actions::Paste));

  00027	02		 ldarg.0 	; this$
  00028	7b 00 00 00 00	 ldfld ?azukiArea@Form1@Mogitter@@3P$AAVAzukiControl@WinForms@Azuki@Sgry@@$AA
  0002d	20 56 00 02 00	 ldc.i4 131158	; i32 0x20056
  00032	14		 ldnull 0	; i32 0x0
  00033	fe 06 00 00 00
	00		 ldftn ?Paste@Actions@Azuki@Sgry@@$$FSMXP$AAUIUserInterface@23@@Z
  00039	73 00 00 00 00	 newobj ??0ActionProc@Azuki@Sgry@@$$FQ$AAM@P$AAVObject@System@@VIntPtr@4@@Z
  0003e	28 00 00 00 00	 call ?SetKeyBind@AzukiControl@WinForms@Azuki@Sgry@@$$FQ$AAMXW4Keys@Forms@Windows@System@@P$AAVActionProc@34@@Z

; 766  : 				 azukiArea->SetKeyBind(static_cast<System::Windows::Forms::Keys>((System::Windows::Forms::Keys::Control | System::Windows::Forms::Keys::Z)),gcnew Sgry::Azuki::ActionProc(&Sgry::Azuki::Actions::Undo));

  00043	02		 ldarg.0 	; this$
  00044	7b 00 00 00 00	 ldfld ?azukiArea@Form1@Mogitter@@3P$AAVAzukiControl@WinForms@Azuki@Sgry@@$AA
  00049	20 5a 00 02 00	 ldc.i4 131162	; i32 0x2005a
  0004e	14		 ldnull 0	; i32 0x0
  0004f	fe 06 00 00 00
	00		 ldftn ?Undo@Actions@Azuki@Sgry@@$$FSMXP$AAUIUserInterface@23@@Z
  00055	73 00 00 00 00	 newobj ??0ActionProc@Azuki@Sgry@@$$FQ$AAM@P$AAVObject@System@@VIntPtr@4@@Z
  0005a	28 00 00 00 00	 call ?SetKeyBind@AzukiControl@WinForms@Azuki@Sgry@@$$FQ$AAMXW4Keys@Forms@Windows@System@@P$AAVActionProc@34@@Z

; 767  : 				 azukiArea->SetKeyBind(static_cast<System::Windows::Forms::Keys>((System::Windows::Forms::Keys::Control | System::Windows::Forms::Keys::Y)),gcnew Sgry::Azuki::ActionProc(&Sgry::Azuki::Actions::Redo));

  0005f	02		 ldarg.0 	; this$
  00060	7b 00 00 00 00	 ldfld ?azukiArea@Form1@Mogitter@@3P$AAVAzukiControl@WinForms@Azuki@Sgry@@$AA
  00065	20 59 00 02 00	 ldc.i4 131161	; i32 0x20059
  0006a	14		 ldnull 0	; i32 0x0
  0006b	fe 06 00 00 00
	00		 ldftn ?Redo@Actions@Azuki@Sgry@@$$FSMXP$AAUIUserInterface@23@@Z
  00071	73 00 00 00 00	 newobj ??0ActionProc@Azuki@Sgry@@$$FQ$AAM@P$AAVObject@System@@VIntPtr@4@@Z
  00076	28 00 00 00 00	 call ?SetKeyBind@AzukiControl@WinForms@Azuki@Sgry@@$$FQ$AAMXW4Keys@Forms@Windows@System@@P$AAVActionProc@34@@Z

; 768  : 				 Sgry::Azuki::Highlighter::KeywordHighlighter^ high = 
; 769  : 						 gcnew Sgry::Azuki::Highlighter::KeywordHighlighter();

  0007b	73 00 00 00 00	 newobj ??0KeywordHighlighter@Highlighter@Azuki@Sgry@@$$FQ$AAM@XZ
  00080	0a		 stloc.0 	; high$

; 770  : 				 high->AddEnclosure("\"{\"","\"}\"",Sgry::Azuki::CharClass::Normal,false);

  00081	06		 ldloc.0 	; high$
  00082	72 00 00 00 00	 ldstr $StringLiteralTok$??_C@_17EKFANPAK@?$AA?$CC?$AA?$HL?$AA?$CC?$AA?$AA@
  00087	72 00 00 00 00	 ldstr $StringLiteralTok$??_C@_17JMAJDMBH@?$AA?$CC?$AA?$HN?$AA?$CC?$AA?$AA@
  0008c	16		 ldc.i.0 0	; u8 0x0
  0008d	16		 ldc.i.0 0	; u8 0x0
  0008e	28 00 00 00 00	 call ?AddEnclosure@KeywordHighlighter@Highlighter@Azuki@Sgry@@$$FQ$AAMXP$AAVString@System@@0W4CharClass@34@_N@Z

; 771  : 				 high->AddEnclosure("{","}",Sgry::Azuki::CharClass::Function,false);

  00093	06		 ldloc.0 	; high$
  00094	72 00 00 00 00	 ldstr $StringLiteralTok$??_C@_13GCIFAHHO@?$AA?$HL?$AA?$AA@
  00099	72 00 00 00 00	 ldstr $StringLiteralTok$??_C@_13EHOOFIKC@?$AA?$HN?$AA?$AA@
  0009e	1f 21		 ldc.i4.s 33	; u8 0x21
  000a0	16		 ldc.i.0 0	; u8 0x0
  000a1	28 00 00 00 00	 call ?AddEnclosure@KeywordHighlighter@Highlighter@Azuki@Sgry@@$$FQ$AAMXP$AAVString@System@@0W4CharClass@34@_N@Z

; 772  : 				 azukiArea->Highlighter = high;

  000a6	02		 ldarg.0 	; this$
  000a7	7b 00 00 00 00	 ldfld ?azukiArea@Form1@Mogitter@@3P$AAVAzukiControl@WinForms@Azuki@Sgry@@$AA
  000ac	06		 ldloc.0 	; high$
  000ad	6f 00 00 00 00	 callvirt ?set@Highlighter@AzukiControl@WinForms@Azuki@Sgry@@$$FU$AAMXP$AAUIHighlighter@145@@Z

; 773  : 				 azukiArea->ColorScheme->SetColor(Sgry::Azuki::CharClass::Function,Color::Blue,Color::White);

  000b2	28 00 00 00 00	 call ?get@White@Color@Drawing@System@@$$FSM?AV234@XZ
  000b7	13 05		 stloc.s 5	; $T2
  000b9	28 00 00 00 00	 call ?get@Blue@Color@Drawing@System@@$$FSM?AV234@XZ
  000be	13 04		 stloc.s 4	; $T3
  000c0	02		 ldarg.0 	; this$
  000c1	7b 00 00 00 00	 ldfld ?azukiArea@Form1@Mogitter@@3P$AAVAzukiControl@WinForms@Azuki@Sgry@@$AA
  000c6	6f 00 00 00 00	 callvirt ?get@ColorScheme@AzukiControl@WinForms@Azuki@Sgry@@$$FU$AAMP$AAV145@XZ
  000cb	1f 21		 ldc.i4.s 33	; u8 0x21
  000cd	11 04		 ldloc.s 4	; $T3
  000cf	11 05		 ldloc.s 5	; $T2
  000d1	28 00 00 00 00	 call ?SetColor@ColorScheme@Azuki@Sgry@@$$FQ$AAMXW4CharClass@23@VColor@Drawing@System@@1@Z

; 774  : 				 azukiArea->ColorScheme->LineNumberFore = Color::DarkBlue;

  000d6	28 00 00 00 00	 call ?get@DarkBlue@Color@Drawing@System@@$$FSM?AV234@XZ
  000db	0d		 stloc.3 	; $T4
  000dc	02		 ldarg.0 	; this$
  000dd	7b 00 00 00 00	 ldfld ?azukiArea@Form1@Mogitter@@3P$AAVAzukiControl@WinForms@Azuki@Sgry@@$AA
  000e2	6f 00 00 00 00	 callvirt ?get@ColorScheme@AzukiControl@WinForms@Azuki@Sgry@@$$FU$AAMP$AAV145@XZ
  000e7	09		 ldloc.3 	; $T4
  000e8	7d 00 00 00 00	 stfld ?LineNumberFore@ColorScheme@Azuki@Sgry@@3VColor@Drawing@System@@A

; 775  : 				 azukiArea->ColorScheme->LineNumberBack = Color::AliceBlue;

  000ed	28 00 00 00 00	 call ?get@AliceBlue@Color@Drawing@System@@$$FSM?AV234@XZ
  000f2	0c		 stloc.2 	; $T5
  000f3	02		 ldarg.0 	; this$
  000f4	7b 00 00 00 00	 ldfld ?azukiArea@Form1@Mogitter@@3P$AAVAzukiControl@WinForms@Azuki@Sgry@@$AA
  000f9	6f 00 00 00 00	 callvirt ?get@ColorScheme@AzukiControl@WinForms@Azuki@Sgry@@$$FU$AAMP$AAV145@XZ
  000fe	08		 ldloc.2 	; $T5
  000ff	7d 00 00 00 00	 stfld ?LineNumberBack@ColorScheme@Azuki@Sgry@@3VColor@Drawing@System@@A

; 776  : 				 azukiArea->BackColor = Color::White;

  00104	28 00 00 00 00	 call ?get@White@Color@Drawing@System@@$$FSM?AV234@XZ
  00109	0b		 stloc.1 	; $T6
  0010a	02		 ldarg.0 	; this$
  0010b	7b 00 00 00 00	 ldfld ?azukiArea@Form1@Mogitter@@3P$AAVAzukiControl@WinForms@Azuki@Sgry@@$AA
  00110	07		 ldloc.1 	; $T6
  00111	6f 00 00 00 00	 callvirt ?set@BackColor@AzukiControl@WinForms@Azuki@Sgry@@$$FU$AAMXVColor@Drawing@System@@@Z

; 777  : 
; 778  : 				 
; 779  : 
; 780  : 				 this->Activate();

  00116	02		 ldarg.0 	; this$
  00117	28 00 00 00 00	 call ?Activate@Form@Forms@Windows@System@@$$FQ$AAMXXZ

; 781  : 
; 782  : 				 setButtonsEnabled(false);

  0011c	02		 ldarg.0 	; this$
  0011d	16		 ldc.i.0 0	; u8 0x0
  0011e	28 00 00 00 00	 call ?setButtonsEnabled@Form1@Mogitter@@$$FA$AAMX_N@Z

; 783  : 				 setExplainText(0);

  00123	02		 ldarg.0 	; this$
  00124	16		 ldc.i.0 0	; i32 0x0
  00125	28 00 00 00 00	 call ?setExplainText@Form1@Mogitter@@$$FA$AAMXH@Z

; 784  : 			 }

  0012a	2a		 ret 
 .end ?Form1_Load@Form1@Mogitter@@$$FA$AAMXP$AAVObject@System@@P$AAVEventArgs@4@@Z ; Mogitter::Form1::Form1_Load
;	.proc.end.void
.global	
.global	?byButtonClose@QMarking@Mogitter@@3_NA		; Mogitter::QMarking::byButtonClose
	.bss
.local	,4
.local	?byButtonClose@QMarking@Mogitter@@3_NA,1	; Mogitter::QMarking::byButtonClose
; Function compile flags: /Ogsp
; File f:\meijin4\c++\mogitter\mogitter\qmarking.h
	.text
	.comdat	any, ?QMarking_FormClosed@QMarking@Mogitter@@$$FA$AAMXP$AAVObject@System@@P$AAVFormClosedEventArgs@Forms@Windows@4@@Z
.global	?QMarking_FormClosed@QMarking@Mogitter@@$$FA$AAMXP$AAVObject@System@@P$AAVFormClosedEventArgs@Forms@Windows@4@@Z ; Mogitter::QMarking::QMarking_FormClosed
?QMarking_FormClosed@QMarking@Mogitter@@$$FA$AAMXP$AAVObject@System@@P$AAVFormClosedEventArgs@Forms@Windows@4@@Z: ; Mogitter::QMarking::QMarking_FormClosed
;	.proc.def	D:V(PP)

; Function Header:
; max stack depth = 3
; function size = 17 bytes
; local varsig tk = 0x0 
; Exception Information:
; 0 handlers, each consisting of filtered handlers

;	.formal.mptr 0,"this$" SIG: Optional C Binding Modifier(token:0x3D0DB75).class (token:0x3D0DB78)
;	.formal.mptr 2,"e$" SIG: class (token:0x3D0C79D)
;	.formal.mptr 1,"sender$" SIG: Unknown COM+ Object Signature

;	.proc.beg

; 324  : 			 if (!byButtonClose)

  0000b	02		 ldarg.0 	; this$
  0000c	7b 00 00 00 00	 ldfld ?byButtonClose@QMarking@Mogitter@@3_NA
  00011	2d 09		 brtrue.s $LN1@QMarking_F

; 325  : 			 {
; 326  : 				 button1_Click(sender,e);

  00013	02		 ldarg.0 	; this$
  00014	03		 ldarg.1 	; sender$
  00015	04		 ldarg.2 	; e$
  00016	28 00 00 00 00	 call ?button1_Click@QMarking@Mogitter@@$$FQ$AAMXP$AAVObject@System@@P$AAVEventArgs@4@@Z
$LN1@QMarking_F:

; 327  : 			 }
; 328  : 		 }

  0001c	2a		 ret 
 .end ?QMarking_FormClosed@QMarking@Mogitter@@$$FA$AAMXP$AAVObject@System@@P$AAVFormClosedEventArgs@Forms@Windows@4@@Z ; Mogitter::QMarking::QMarking_FormClosed
;	.proc.end.void
.global	
.global	
.global	?randomCheckBox@Form1@Mogitter@@3P$AAVCheckBox@Forms@Windows@System@@$AA ; Mogitter::Form1::randomCheckBox
.global	?mojiCode@Form1@Mogitter@@3P$AAVToolStripDropDownButton@Forms@Windows@System@@$AA ; Mogitter::Form1::mojiCode
.global	?randomQNum@Form1@Mogitter@@3P$AAVNumericUpDown@Forms@Windows@System@@$AA ; Mogitter::Form1::randomQNum
.global	?fileName@Form1@Mogitter@@3P$AAVString@System@@$AA ; Mogitter::Form1::fileName
	.bss
	.align	2
.local	,4
.local	,4
.local	?randomCheckBox@Form1@Mogitter@@3P$AAVCheckBox@Forms@Windows@System@@$AA,4 ; Mogitter::Form1::randomCheckBox
.local	$StringLiteralTok$??_C@_1IA@PDHNHFCH@0?F0?$KN0?$LJ0?H0?U0?$KB0?$KE0?k?$AA?$CI?$AA?$CK?$AA?4?$AAt?$AAx?$AAt?$AA?$CJ?$AA?$HM?$AA?$CK?$AA?4?$AAt?$AAx?$AAt?$AA?$HM?$AAM?$AAo?$AAg?$AAi0?U0?$KB0?$KE0?k?$AA?$CI?$AA?$CK@,4
.local	?mojiCode@Form1@Mogitter@@3P$AAVToolStripDropDownButton@Forms@Windows@System@@$AA,4 ; Mogitter::Form1::mojiCode
.local	$StringLiteralTok$??_C@_1M@LCHILMK@?$AA?4?$AAm?$AAo?$AAg?$AAi?$AA?$AA@,4
.local	$StringLiteralTok$??_C@_1BE@EPLDMCPJ@?$AA?$HL?$AA?$EA?$AAR?$AAa?$AAn?$AAd?$AAo?$AAm?$AA?$DN?$AA?$AA@,4
.local	?randomQNum@Form1@Mogitter@@3P$AAVNumericUpDown@Forms@Windows@System@@$AA,4 ; Mogitter::Form1::randomQNum
.local	$StringLiteralTok$??_C@_13PJJBFPED@?$AA?$DL?$AA?$AA@,4
.local	?fileName@Form1@Mogitter@@3P$AAVString@System@@$AA,4 ; Mogitter::Form1::fileName
.local	$T1,0
; Function compile flags: /Ogsp
; File f:\meijin4\c++\mogitter\mogitter\form1.h
	.text
	.comdat	any, ?openFile_Click@Form1@Mogitter@@$$FA$AAMXP$AAVObject@System@@P$AAVEventArgs@4@@Z
.global	?openFile_Click@Form1@Mogitter@@$$FA$AAMXP$AAVObject@System@@P$AAVEventArgs@4@@Z ; Mogitter::Form1::openFile_Click
?openFile_Click@Form1@Mogitter@@$$FA$AAMXP$AAVObject@System@@P$AAVEventArgs@4@@Z: ; Mogitter::Form1::openFile_Click
;	.proc.def	D:V(PP)

; Function Header:
; max stack depth = 4
; function size = 340 bytes
; local varsig tk = 0x11000017 
; Exception Information:
; 0 handlers, each consisting of filtered handlers

;	.formal.mptr 0,"this$" SIG: Optional C Binding Modifier(token:0x38BA05).class (token:0x38BA08)
;	.local.mptr 1,"ofd$" SIG: class (token:0x3D1BA1D)
;	.local.mptr 5,"reader$" SIG: class (token:0x3D1B985)
;	.local.mptr 0,"str$" SIG: string
;	.local.mptr 4,"$T2" SIG: szarray (token:0x3D1C00D)
;	.local.mptr 2,"aft$3" SIG: string
;	.local.mptr 3,"$T4" SIG: szarray (token:0x3D1C00D)
;	.local.mb16  6,"$T5" SIG: valueType (token:0x3D226AD)

;	.proc.beg

; 786  : 				 randomCheckBox->Checked = false;

  0000b	02		 ldarg.0 	; this$
  0000c	7b 00 00 00 00	 ldfld ?randomCheckBox@Form1@Mogitter@@3P$AAVCheckBox@Forms@Windows@System@@$AA
  00011	16		 ldc.i.0 0	; u8 0x0
  00012	28 00 00 00 00	 call ?set@Checked@CheckBox@Forms@Windows@System@@$$FQ$AAMX_N@Z

; 787  : 
; 788  : 				 OpenFileDialog^ ofd = gcnew OpenFileDialog();

  00017	73 00 00 00 00	 newobj ??0OpenFileDialog@Forms@Windows@System@@$$FQ$AAM@XZ
  0001c	0b		 stloc.1 	; ofd$

; 789  : 				 ofd->Filter = "テキストファイル(*.txt)|*.txt|Mogiファイル(*.mogi)|*.mogi|すべてのファイル(*.*)|*.*";

  0001d	07		 ldloc.1 	; ofd$
  0001e	72 00 00 00 00	 ldstr $StringLiteralTok$??_C@_1IA@PDHNHFCH@0?F0?$KN0?$LJ0?H0?U0?$KB0?$KE0?k?$AA?$CI?$AA?$CK?$AA?4?$AAt?$AAx?$AAt?$AA?$CJ?$AA?$HM?$AA?$CK?$AA?4?$AAt?$AAx?$AAt?$AA?$HM?$AAM?$AAo?$AAg?$AAi0?U0?$KB0?$KE0?k?$AA?$CI?$AA?$CK@
  00023	28 00 00 00 00	 call ?set@Filter@FileDialog@Forms@Windows@System@@$$FQ$AAMXP$AAVString@5@@Z

; 790  : 				 if(ofd->ShowDialog() != System::Windows::Forms::DialogResult::OK){

  00028	07		 ldloc.1 	; ofd$
  00029	28 00 00 00 00	 call ?ShowDialog@CommonDialog@Forms@Windows@System@@$$FQ$AAM?AW4DialogResult@234@XZ
  0002e	17		 ldc.i.1 1	; i32 0x1
  0002f	40 2b 01 00 00	 bne.un $LN5@openFile_C

; 791  : 					 return;
; 792  : 				 }
; 793  : 				 azukiArea->IsReadOnly = false;

  00034	02		 ldarg.0 	; this$
  00035	7b 00 00 00 00	 ldfld ?azukiArea@Form1@Mogitter@@3P$AAVAzukiControl@WinForms@Azuki@Sgry@@$AA
  0003a	16		 ldc.i.0 0	; u8 0x0
  0003b	6f 00 00 00 00	 callvirt ?set@IsReadOnly@AzukiControl@WinForms@Azuki@Sgry@@$$FU$AAMX_N@Z

; 794  : 				 StreamReader^ reader = gcnew StreamReader(ofd->FileName,System::Text::Encoding::GetEncoding(mojiCode->Text));

  00040	07		 ldloc.1 	; ofd$
  00041	28 00 00 00 00	 call ?get@FileName@FileDialog@Forms@Windows@System@@$$FQ$AAMP$AAVString@5@XZ
  00046	02		 ldarg.0 	; this$
  00047	7b 00 00 00 00	 ldfld ?mojiCode@Form1@Mogitter@@3P$AAVToolStripDropDownButton@Forms@Windows@System@@$AA
  0004c	6f 00 00 00 00	 callvirt ?get@Text@ToolStripItem@Forms@Windows@System@@$$FU$AAMP$AAVString@5@XZ
  00051	28 00 00 00 00	 call ?GetEncoding@Encoding@Text@System@@$$FSMP$AAV123@P$AAVString@3@@Z
  00056	73 00 00 00 00	 newobj ??0StreamReader@IO@System@@$$FQ$AAM@P$AAVString@2@P$AAVEncoding@Text@2@@Z
  0005b	13 05		 stloc.s 5	; reader$

; 795  : 				 String^ str = reader->ReadToEnd();

  0005d	11 05		 ldloc.s 5	; reader$
  0005f	6f 00 00 00 00	 callvirt ?ReadToEnd@StreamReader@IO@System@@$$FU$AAMP$AAVString@3@XZ
  00064	0a		 stloc.0 	; str$

; 796  : 				 if(!ofd->FileName->EndsWith(".mogi")){

  00065	07		 ldloc.1 	; ofd$
  00066	28 00 00 00 00	 call ?get@FileName@FileDialog@Forms@Windows@System@@$$FQ$AAMP$AAVString@5@XZ
  0006b	72 00 00 00 00	 ldstr $StringLiteralTok$??_C@_1M@LCHILMK@?$AA?4?$AAm?$AAo?$AAg?$AAi?$AA?$AA@
  00070	28 00 00 00 00	 call ?EndsWith@String@System@@$$FQ$AAM_NP$AAV12@@Z
  00075	2d 2c		 brtrue.s $LN3@openFile_C

; 797  : 					 str = str->Replace("{","\"{\"");

  00077	06		 ldloc.0 	; str$
  00078	72 00 00 00 00	 ldstr $StringLiteralTok$??_C@_13GCIFAHHO@?$AA?$HL?$AA?$AA@
  0007d	72 00 00 00 00	 ldstr $StringLiteralTok$??_C@_17EKFANPAK@?$AA?$CC?$AA?$HL?$AA?$CC?$AA?$AA@
  00082	28 00 00 00 00	 call ?Replace@String@System@@$$FQ$AAMP$AAV12@P$AAV12@0@Z
  00087	0a		 stloc.0 	; str$

; 798  : 					 str = str->Replace("}","\"}\"");

  00088	06		 ldloc.0 	; str$
  00089	72 00 00 00 00	 ldstr $StringLiteralTok$??_C@_13EHOOFIKC@?$AA?$HN?$AA?$AA@
  0008e	72 00 00 00 00	 ldstr $StringLiteralTok$??_C@_17JMAJDMBH@?$AA?$CC?$AA?$HN?$AA?$CC?$AA?$AA@
  00093	28 00 00 00 00	 call ?Replace@String@System@@$$FQ$AAMP$AAV12@P$AAV12@0@Z
  00098	0a		 stloc.0 	; str$

; 799  : 					 setExplainText(2);

  00099	02		 ldarg.0 	; this$
  0009a	18		 ldc.i.2 2	; i32 0x2
  0009b	28 00 00 00 00	 call ?setExplainText@Form1@Mogitter@@$$FA$AAMXH@Z

; 800  : 				 }else

  000a0	2b 08		 br.s $LN2@openFile_C
$LN3@openFile_C:

; 801  : 				 {
; 802  : 					 setExplainText(1);

  000a3	02		 ldarg.0 	; this$
  000a4	17		 ldc.i.1 1	; i32 0x1
  000a5	28 00 00 00 00	 call ?setExplainText@Form1@Mogitter@@$$FA$AAMXH@Z
$LN2@openFile_C:

; 803  : 				 }
; 804  : 				 azukiArea->Text = str;

  000aa	02		 ldarg.0 	; this$
  000ab	7b 00 00 00 00	 ldfld ?azukiArea@Form1@Mogitter@@3P$AAVAzukiControl@WinForms@Azuki@Sgry@@$AA
  000b0	06		 ldloc.0 	; str$
  000b1	6f 00 00 00 00	 callvirt ?set@Text@AzukiControl@WinForms@Azuki@Sgry@@$$FU$AAMXP$AAVString@System@@@Z

; 805  : 				 if (str->StartsWith("{@Random="))

  000b6	06		 ldloc.0 	; str$
  000b7	72 00 00 00 00	 ldstr $StringLiteralTok$??_C@_1BE@EPLDMCPJ@?$AA?$HL?$AA?$EA?$AAR?$AAa?$AAn?$AAd?$AAo?$AAm?$AA?$DN?$AA?$AA@
  000bc	28 00 00 00 00	 call ?StartsWith@String@System@@$$FQ$AAM_NP$AAV12@@Z
  000c1	39 7a 00 00 00	 brfalse $LN1@openFile_C

; 806  : 				 {
; 807  : 					 randomCheckBox->Checked = true;

  000c6	02		 ldarg.0 	; this$
  000c7	7b 00 00 00 00	 ldfld ?randomCheckBox@Form1@Mogitter@@3P$AAVCheckBox@Forms@Windows@System@@$AA
  000cc	17		 ldc.i.1 1	; u8 0x1
  000cd	28 00 00 00 00	 call ?set@Checked@CheckBox@Forms@Windows@System@@$$FQ$AAMX_N@Z

; 808  : 					 randomQNum->Enabled = true;

  000d2	02		 ldarg.0 	; this$
  000d3	7b 00 00 00 00	 ldfld ?randomQNum@Form1@Mogitter@@3P$AAVNumericUpDown@Forms@Windows@System@@$AA
  000d8	17		 ldc.i.1 1	; u8 0x1
  000d9	28 00 00 00 00	 call ?set@Enabled@Control@Forms@Windows@System@@$$FQ$AAMX_N@Z

; 809  : 					 array<String^> ^bufbef = str->Split('\n');

  000de	17		 ldc.i.1 1	; i32 0x1
  000df	8d 00 00 00 00	 newarr $TypeTok$11003218$
  000e4	13 04		 stloc.s 4	; $T2
  000e6	11 04		 ldloc.s 4	; $T2
  000e8	16		 ldc.i.0 0	; i32 0x0
  000e9	8f 00 00 00 00	 ldelema $va_argTok$_W
  000ee	1f 0a		 ldc.i4.s 10	; u16 0xa
  000f0	53		 stind.i2 
  000f1	06		 ldloc.0 	; str$
  000f2	11 04		 ldloc.s 4	; $T2
  000f4	28 00 00 00 00	 call ?Split@String@System@@$$FQ$AAMP$01AP$AAV12@P$01A_W@Z

; 810  : 					 String^ aft = bufbef[0]->Split('=')[1];

  000f9	17		 ldc.i.1 1	; i32 0x1
  000fa	8d 00 00 00 00	 newarr $TypeTok$11003218$
  000ff	0d		 stloc.3 	; $T4
  00100	09		 ldloc.3 	; $T4
  00101	16		 ldc.i.0 0	; i32 0x0
  00102	8f 00 00 00 00	 ldelema $va_argTok$_W
  00107	1f 3d		 ldc.i4.s 61	; u16 0x3d
  00109	53		 stind.i2 
  0010a	16		 ldc.i.0 0	; i32 0x0
  0010b	9a		 ldelem.ref 
  0010c	09		 ldloc.3 	; $T4
  0010d	28 00 00 00 00	 call ?Split@String@System@@$$FQ$AAMP$01AP$AAV12@P$01A_W@Z
  00112	17		 ldc.i.1 1	; i32 0x1
  00113	9a		 ldelem.ref 
  00114	0c		 stloc.2 	; aft$3

; 811  : 					 int qnum = int::Parse(aft->Substring(0,aft->IndexOf(";")));

  00115	08		 ldloc.2 	; aft$3
  00116	16		 ldc.i.0 0	; i32 0x0
  00117	08		 ldloc.2 	; aft$3
  00118	72 00 00 00 00	 ldstr $StringLiteralTok$??_C@_13PJJBFPED@?$AA?$DL?$AA?$AA@
  0011d	28 00 00 00 00	 call ?IndexOf@String@System@@$$FQ$AAMHP$AAV12@@Z
  00122	28 00 00 00 00	 call ?Substring@String@System@@$$FQ$AAMP$AAV12@HH@Z
  00127	28 00 00 00 00	 call ?Parse@Int32@System@@$$FSMHP$AAVString@2@@Z

; 812  : 					 randomQNum->Value = qnum;

  0012c	28 00 00 00 00	 call ??BDecimal@System@@$$FSM?AV01@H@Z
  00131	13 06		 stloc.s 6	; $T5
  00133	02		 ldarg.0 	; this$
  00134	7b 00 00 00 00	 ldfld ?randomQNum@Form1@Mogitter@@3P$AAVNumericUpDown@Forms@Windows@System@@$AA
  00139	11 06		 ldloc.s 6	; $T5
  0013b	28 00 00 00 00	 call ?set@Value@NumericUpDown@Forms@Windows@System@@$$FQ$AAMXVDecimal@5@@Z
$LN1@openFile_C:

; 813  : 				 }
; 814  : 				 reader->Close();

  00140	11 05		 ldloc.s 5	; reader$
  00142	6f 00 00 00 00	 callvirt ?Close@StreamReader@IO@System@@$$FU$AAMXXZ

; 815  : 
; 816  : 				 fileName = ofd->FileName;

  00147	02		 ldarg.0 	; this$
  00148	07		 ldloc.1 	; ofd$
  00149	28 00 00 00 00	 call ?get@FileName@FileDialog@Forms@Windows@System@@$$FQ$AAMP$AAVString@5@XZ
  0014e	7d 00 00 00 00	 stfld ?fileName@Form1@Mogitter@@3P$AAVString@System@@$AA

; 817  : 
; 818  : 				 azukiArea->IsReadOnly = true;

  00153	02		 ldarg.0 	; this$
  00154	7b 00 00 00 00	 ldfld ?azukiArea@Form1@Mogitter@@3P$AAVAzukiControl@WinForms@Azuki@Sgry@@$AA
  00159	17		 ldc.i.1 1	; u8 0x1
  0015a	6f 00 00 00 00	 callvirt ?set@IsReadOnly@AzukiControl@WinForms@Azuki@Sgry@@$$FU$AAMX_N@Z
$LN5@openFile_C:

; 819  : 				 
; 820  : 	    	 }

  0015f	2a		 ret 
 .end ?openFile_Click@Form1@Mogitter@@$$FA$AAMXP$AAVObject@System@@P$AAVEventArgs@4@@Z ; Mogitter::Form1::openFile_Click
;	.proc.end.void
; Function compile flags: /Ogsp
; File f:\meijin4\c++\mogitter\mogitter\form1.h
	.text
	.comdat	any, ?helpMenuItem_Click@Form1@Mogitter@@$$FA$AAMXP$AAVObject@System@@P$AAVEventArgs@4@@Z
.global	?helpMenuItem_Click@Form1@Mogitter@@$$FA$AAMXP$AAVObject@System@@P$AAVEventArgs@4@@Z ; Mogitter::Form1::helpMenuItem_Click
?helpMenuItem_Click@Form1@Mogitter@@$$FA$AAMXP$AAVObject@System@@P$AAVEventArgs@4@@Z: ; Mogitter::Form1::helpMenuItem_Click
;	.proc.def	D:V(PP)

; Function Header:
; max stack depth = 0
; function size = 1 bytes
; local varsig tk = 0x0 
; Exception Information:
; 0 handlers, each consisting of filtered handlers


;	.proc.beg

; 896  : 		     }

  0000b	2a		 ret 
 .end ?helpMenuItem_Click@Form1@Mogitter@@$$FA$AAMXP$AAVObject@System@@P$AAVEventArgs@4@@Z ; Mogitter::Form1::helpMenuItem_Click
;	.proc.end.void
; Function compile flags: /Ogsp
; File f:\meijin4\c++\mogitter\mogitter\form1.h
	.text
	.comdat	any, ?setting_Click@Form1@Mogitter@@$$FA$AAMXP$AAVObject@System@@P$AAVEventArgs@4@@Z
.global	?setting_Click@Form1@Mogitter@@$$FA$AAMXP$AAVObject@System@@P$AAVEventArgs@4@@Z ; Mogitter::Form1::setting_Click
?setting_Click@Form1@Mogitter@@$$FA$AAMXP$AAVObject@System@@P$AAVEventArgs@4@@Z: ; Mogitter::Form1::setting_Click
;	.proc.def	D:V(PP)

; Function Header:
; max stack depth = 0
; function size = 1 bytes
; local varsig tk = 0x0 
; Exception Information:
; 0 handlers, each consisting of filtered handlers


;	.proc.beg

; 898  : 	    	 }

  0000b	2a		 ret 
 .end ?setting_Click@Form1@Mogitter@@$$FA$AAMXP$AAVObject@System@@P$AAVEventArgs@4@@Z ; Mogitter::Form1::setting_Click
;	.proc.end.void
; Function compile flags: /Ogsp
; File f:\meijin4\c++\mogitter\mogitter\form1.h
	.text
	.comdat	any, ?helping_Click@Form1@Mogitter@@$$FA$AAMXP$AAVObject@System@@P$AAVEventArgs@4@@Z
.global	?helping_Click@Form1@Mogitter@@$$FA$AAMXP$AAVObject@System@@P$AAVEventArgs@4@@Z ; Mogitter::Form1::helping_Click
?helping_Click@Form1@Mogitter@@$$FA$AAMXP$AAVObject@System@@P$AAVEventArgs@4@@Z: ; Mogitter::Form1::helping_Click
;	.proc.def	D:V(PP)

; Function Header:
; max stack depth = 0
; function size = 1 bytes
; local varsig tk = 0x0 
; Exception Information:
; 0 handlers, each consisting of filtered handlers


;	.proc.beg

; 900  : 			 }

  0000b	2a		 ret 
 .end ?helping_Click@Form1@Mogitter@@$$FA$AAMXP$AAVObject@System@@P$AAVEventArgs@4@@Z ; Mogitter::Form1::helping_Click
;	.proc.end.void
	.bss
.local	$StringLiteralTok$??_C@_1BC@PAOKIFNK@?$AA?$HL?$AAA?$AAn?$AAs?$AAw?$AAe?$AAr?$AA?$DN?$AA?$AA@,4
.local	$T1,0
; Function compile flags: /Ogsp
; File f:\meijin4\c++\mogitter\mogitter\form1.h
	.text
	.comdat	any, ?azukiArea_TextChanged@Form1@Mogitter@@$$FA$AAMXP$AAVObject@System@@P$AAVEventArgs@4@@Z
.global	?azukiArea_TextChanged@Form1@Mogitter@@$$FA$AAMXP$AAVObject@System@@P$AAVEventArgs@4@@Z ; Mogitter::Form1::azukiArea_TextChanged
?azukiArea_TextChanged@Form1@Mogitter@@$$FA$AAMXP$AAVObject@System@@P$AAVEventArgs@4@@Z: ; Mogitter::Form1::azukiArea_TextChanged
;	.proc.def	D:V(PP)

; Function Header:
; max stack depth = 2
; function size = 148 bytes
; local varsig tk = 0x11000018 
; Exception Information:
; 0 handlers, each consisting of filtered handlers

;	.formal.mptr 0,"this$" SIG: Optional C Binding Modifier(token:0x38BA05).class (token:0x38BA08)
;	.local.mb16  1,"$T2" SIG: valueType (token:0x3D226AD)
;	.local.mptr 0,"$T3" SIG: szarray (token:0x3D1C00D)

;	.proc.beg

; 902  : 				 setButtonsEnabled(azukiArea->Text->Length>0);

  0000b	02		 ldarg.0 	; this$
  0000c	7b 00 00 00 00	 ldfld ?azukiArea@Form1@Mogitter@@3P$AAVAzukiControl@WinForms@Azuki@Sgry@@$AA
  00011	6f 00 00 00 00	 callvirt ?get@Text@AzukiControl@WinForms@Azuki@Sgry@@$$FU$AAMP$AAVString@System@@XZ
  00016	28 00 00 00 00	 call ?get@Length@String@System@@$$FQ$AAMHXZ
  0001b	16		 ldc.i.0 0	; i32 0x0
  0001c	fe 02		 cgt 
  0001e	0c		 stloc.2 	
  0001f	02		 ldarg.0 	; this$
  00020	08		 ldloc.2 	
  00021	28 00 00 00 00	 call ?setButtonsEnabled@Form1@Mogitter@@$$FA$AAMX_N@Z

; 903  : 				 azukiArea->Highlighter->Highlight(azukiArea->Document);

  00026	02		 ldarg.0 	; this$
  00027	7b 00 00 00 00	 ldfld ?azukiArea@Form1@Mogitter@@3P$AAVAzukiControl@WinForms@Azuki@Sgry@@$AA
  0002c	6f 00 00 00 00	 callvirt ?get@Highlighter@AzukiControl@WinForms@Azuki@Sgry@@$$FU$AAMP$AAUIHighlighter@145@XZ
  00031	02		 ldarg.0 	; this$
  00032	7b 00 00 00 00	 ldfld ?azukiArea@Form1@Mogitter@@3P$AAVAzukiControl@WinForms@Azuki@Sgry@@$AA
  00037	6f 00 00 00 00	 callvirt ?get@Document@AzukiControl@WinForms@Azuki@Sgry@@$$FU$AAMP$AAV145@XZ
  0003c	6f 00 00 00 00	 callvirt ?Highlight@IHighlighter@Highlighter@Azuki@Sgry@@$$FU$AAMXP$AAVDocument@34@@Z

; 904  : 				 randomQNum->Maximum = azukiArea->Text->Split('\n')->Length;

  00041	17		 ldc.i.1 1	; i32 0x1
  00042	8d 00 00 00 00	 newarr $TypeTok$11003218$
  00047	0a		 stloc.0 	; $T3
  00048	06		 ldloc.0 	; $T3
  00049	16		 ldc.i.0 0	; i32 0x0
  0004a	8f 00 00 00 00	 ldelema $va_argTok$_W
  0004f	1f 0a		 ldc.i4.s 10	; u16 0xa
  00051	53		 stind.i2 
  00052	02		 ldarg.0 	; this$
  00053	7b 00 00 00 00	 ldfld ?azukiArea@Form1@Mogitter@@3P$AAVAzukiControl@WinForms@Azuki@Sgry@@$AA
  00058	6f 00 00 00 00	 callvirt ?get@Text@AzukiControl@WinForms@Azuki@Sgry@@$$FU$AAMP$AAVString@System@@XZ
  0005d	06		 ldloc.0 	; $T3
  0005e	28 00 00 00 00	 call ?Split@String@System@@$$FQ$AAMP$01AP$AAV12@P$01A_W@Z
  00063	8e		 ldlen 
  00064	28 00 00 00 00	 call ??BDecimal@System@@$$FSM?AV01@H@Z
  00069	0b		 stloc.1 	; $T2
  0006a	02		 ldarg.0 	; this$
  0006b	7b 00 00 00 00	 ldfld ?randomQNum@Form1@Mogitter@@3P$AAVNumericUpDown@Forms@Windows@System@@$AA
  00070	07		 ldloc.1 	; $T2
  00071	28 00 00 00 00	 call ?set@Maximum@NumericUpDown@Forms@Windows@System@@$$FQ$AAMXVDecimal@5@@Z

; 905  : 				 if (azukiArea->Text->IndexOf("{Answer=") > 0)

  00076	02		 ldarg.0 	; this$
  00077	7b 00 00 00 00	 ldfld ?azukiArea@Form1@Mogitter@@3P$AAVAzukiControl@WinForms@Azuki@Sgry@@$AA
  0007c	6f 00 00 00 00	 callvirt ?get@Text@AzukiControl@WinForms@Azuki@Sgry@@$$FU$AAMP$AAVString@System@@XZ
  00081	72 00 00 00 00	 ldstr $StringLiteralTok$??_C@_1BC@PAOKIFNK@?$AA?$HL?$AAA?$AAn?$AAs?$AAw?$AAe?$AAr?$AA?$DN?$AA?$AA@
  00086	28 00 00 00 00	 call ?IndexOf@String@System@@$$FQ$AAMHP$AAV12@@Z
  0008b	16		 ldc.i.0 0	; i32 0x0
  0008c	31 0a		 ble.s $LN2@azukiArea_

; 906  : 				 {
; 907  : 					 setExplainText(2);

  0008e	02		 ldarg.0 	; this$
  0008f	18		 ldc.i.2 2	; i32 0x2
  00090	28 00 00 00 00	 call ?setExplainText@Form1@Mogitter@@$$FA$AAMXH@Z

; 908  : 				 }else

  00095	2b 08		 br.s $LN1@azukiArea_
$LN2@azukiArea_:

; 909  : 				 {
; 910  : 					 setExplainText(1);

  00098	02		 ldarg.0 	; this$
  00099	17		 ldc.i.1 1	; i32 0x1
  0009a	28 00 00 00 00	 call ?setExplainText@Form1@Mogitter@@$$FA$AAMXH@Z
$LN1@azukiArea_:

; 911  : 				 }
; 912  : 			 }

  0009f	2a		 ret 
 .end ?azukiArea_TextChanged@Form1@Mogitter@@$$FA$AAMXP$AAVObject@System@@P$AAVEventArgs@4@@Z ; Mogitter::Form1::azukiArea_TextChanged
;	.proc.end.void
.global	
	.bss
.local	,4
; Function compile flags: /Ogsp
; File f:\meijin4\c++\mogitter\mogitter\form1.h
	.text
	.comdat	any, ?sampleKeyDown@Form1@Mogitter@@$$FA$AAMXP$AAVObject@System@@P$AAVKeyEventArgs@Forms@Windows@4@@Z
.global	?sampleKeyDown@Form1@Mogitter@@$$FA$AAMXP$AAVObject@System@@P$AAVKeyEventArgs@Forms@Windows@4@@Z ; Mogitter::Form1::sampleKeyDown
?sampleKeyDown@Form1@Mogitter@@$$FA$AAMXP$AAVObject@System@@P$AAVKeyEventArgs@Forms@Windows@4@@Z: ; Mogitter::Form1::sampleKeyDown
;	.proc.def	D:V(PP)

; Function Header:
; max stack depth = 0
; function size = 1 bytes
; local varsig tk = 0x0 
; Exception Information:
; 0 handlers, each consisting of filtered handlers


;	.proc.beg

; 914  : 			 }

  0000b	2a		 ret 
 .end ?sampleKeyDown@Form1@Mogitter@@$$FA$AAMXP$AAVObject@System@@P$AAVKeyEventArgs@Forms@Windows@4@@Z ; Mogitter::Form1::sampleKeyDown
;	.proc.end.void
; Function compile flags: /Ogsp
; File f:\meijin4\c++\mogitter\mogitter\form1.h
	.text
	.comdat	any, ?openMenuItem_Click@Form1@Mogitter@@$$FA$AAMXP$AAVObject@System@@P$AAVEventArgs@4@@Z
.global	?openMenuItem_Click@Form1@Mogitter@@$$FA$AAMXP$AAVObject@System@@P$AAVEventArgs@4@@Z ; Mogitter::Form1::openMenuItem_Click
?openMenuItem_Click@Form1@Mogitter@@$$FA$AAMXP$AAVObject@System@@P$AAVEventArgs@4@@Z: ; Mogitter::Form1::openMenuItem_Click
;	.proc.def	D:V(PP)

; Function Header:
; max stack depth = 3
; function size = 9 bytes
; local varsig tk = 0x0 
; Exception Information:
; 0 handlers, each consisting of filtered handlers

;	.formal.mptr 0,"this$" SIG: Optional C Binding Modifier(token:0x38BA05).class (token:0x38BA08)
;	.formal.mptr 2,"e$" SIG: class (token:0x3D1D1F5)
;	.formal.mptr 1,"sender$" SIG: Unknown COM+ Object Signature

;	.proc.beg

; 1025 : 				   openFile_Click(sender,e);

  0000b	02		 ldarg.0 	; this$
  0000c	03		 ldarg.1 	; sender$
  0000d	04		 ldarg.2 	; e$
  0000e	28 00 00 00 00	 call ?openFile_Click@Form1@Mogitter@@$$FA$AAMXP$AAVObject@System@@P$AAVEventArgs@4@@Z

; 1026 : 			   }

  00013	2a		 ret 
 .end ?openMenuItem_Click@Form1@Mogitter@@$$FA$AAMXP$AAVObject@System@@P$AAVEventArgs@4@@Z ; Mogitter::Form1::openMenuItem_Click
;	.proc.end.void
; Function compile flags: /Ogsp
; File f:\meijin4\c++\mogitter\mogitter\form1.h
	.text
	.comdat	any, ?undoMenuItem_Click@Form1@Mogitter@@$$FA$AAMXP$AAVObject@System@@P$AAVEventArgs@4@@Z
.global	?undoMenuItem_Click@Form1@Mogitter@@$$FA$AAMXP$AAVObject@System@@P$AAVEventArgs@4@@Z ; Mogitter::Form1::undoMenuItem_Click
?undoMenuItem_Click@Form1@Mogitter@@$$FA$AAMXP$AAVObject@System@@P$AAVEventArgs@4@@Z: ; Mogitter::Form1::undoMenuItem_Click
;	.proc.def	D:V(PP)

; Function Header:
; max stack depth = 1
; function size = 12 bytes
; local varsig tk = 0x0 
; Exception Information:
; 0 handlers, each consisting of filtered handlers

;	.formal.mptr 0,"this$" SIG: Optional C Binding Modifier(token:0x38BA05).class (token:0x38BA08)

;	.proc.beg

; 1028 : 			 azukiArea->Undo();

  0000b	02		 ldarg.0 	; this$
  0000c	7b 00 00 00 00	 ldfld ?azukiArea@Form1@Mogitter@@3P$AAVAzukiControl@WinForms@Azuki@Sgry@@$AA
  00011	6f 00 00 00 00	 callvirt ?Undo@AzukiControl@WinForms@Azuki@Sgry@@$$FU$AAMXXZ

; 1029 : 		 }

  00016	2a		 ret 
 .end ?undoMenuItem_Click@Form1@Mogitter@@$$FA$AAMXP$AAVObject@System@@P$AAVEventArgs@4@@Z ; Mogitter::Form1::undoMenuItem_Click
;	.proc.end.void
; Function compile flags: /Ogsp
; File f:\meijin4\c++\mogitter\mogitter\form1.h
	.text
	.comdat	any, ?redoMenuItem_Click@Form1@Mogitter@@$$FA$AAMXP$AAVObject@System@@P$AAVEventArgs@4@@Z
.global	?redoMenuItem_Click@Form1@Mogitter@@$$FA$AAMXP$AAVObject@System@@P$AAVEventArgs@4@@Z ; Mogitter::Form1::redoMenuItem_Click
?redoMenuItem_Click@Form1@Mogitter@@$$FA$AAMXP$AAVObject@System@@P$AAVEventArgs@4@@Z: ; Mogitter::Form1::redoMenuItem_Click
;	.proc.def	D:V(PP)

; Function Header:
; max stack depth = 1
; function size = 12 bytes
; local varsig tk = 0x0 
; Exception Information:
; 0 handlers, each consisting of filtered handlers

;	.formal.mptr 0,"this$" SIG: Optional C Binding Modifier(token:0x38BA05).class (token:0x38BA08)

;	.proc.beg

; 1031 : 			 azukiArea->Redo();

  0000b	02		 ldarg.0 	; this$
  0000c	7b 00 00 00 00	 ldfld ?azukiArea@Form1@Mogitter@@3P$AAVAzukiControl@WinForms@Azuki@Sgry@@$AA
  00011	6f 00 00 00 00	 callvirt ?Redo@AzukiControl@WinForms@Azuki@Sgry@@$$FU$AAMXXZ

; 1032 : 		 }

  00016	2a		 ret 
 .end ?redoMenuItem_Click@Form1@Mogitter@@$$FA$AAMXP$AAVObject@System@@P$AAVEventArgs@4@@Z ; Mogitter::Form1::redoMenuItem_Click
;	.proc.end.void
; Function compile flags: /Ogsp
; File f:\meijin4\c++\mogitter\mogitter\form1.h
	.text
	.comdat	any, ?copyMenuItem_Click@Form1@Mogitter@@$$FA$AAMXP$AAVObject@System@@P$AAVEventArgs@4@@Z
.global	?copyMenuItem_Click@Form1@Mogitter@@$$FA$AAMXP$AAVObject@System@@P$AAVEventArgs@4@@Z ; Mogitter::Form1::copyMenuItem_Click
?copyMenuItem_Click@Form1@Mogitter@@$$FA$AAMXP$AAVObject@System@@P$AAVEventArgs@4@@Z: ; Mogitter::Form1::copyMenuItem_Click
;	.proc.def	D:V(PP)

; Function Header:
; max stack depth = 1
; function size = 12 bytes
; local varsig tk = 0x0 
; Exception Information:
; 0 handlers, each consisting of filtered handlers

;	.formal.mptr 0,"this$" SIG: Optional C Binding Modifier(token:0x38BA05).class (token:0x38BA08)

;	.proc.beg

; 1034 : 			 azukiArea->Copy();

  0000b	02		 ldarg.0 	; this$
  0000c	7b 00 00 00 00	 ldfld ?azukiArea@Form1@Mogitter@@3P$AAVAzukiControl@WinForms@Azuki@Sgry@@$AA
  00011	6f 00 00 00 00	 callvirt ?Copy@AzukiControl@WinForms@Azuki@Sgry@@$$FU$AAMXXZ

; 1035 : 		 }

  00016	2a		 ret 
 .end ?copyMenuItem_Click@Form1@Mogitter@@$$FA$AAMXP$AAVObject@System@@P$AAVEventArgs@4@@Z ; Mogitter::Form1::copyMenuItem_Click
;	.proc.end.void
; Function compile flags: /Ogsp
; File f:\meijin4\c++\mogitter\mogitter\form1.h
	.text
	.comdat	any, ?all_selectMenuItem_Click@Form1@Mogitter@@$$FA$AAMXP$AAVObject@System@@P$AAVEventArgs@4@@Z
.global	?all_selectMenuItem_Click@Form1@Mogitter@@$$FA$AAMXP$AAVObject@System@@P$AAVEventArgs@4@@Z ; Mogitter::Form1::all_selectMenuItem_Click
?all_selectMenuItem_Click@Form1@Mogitter@@$$FA$AAMXP$AAVObject@System@@P$AAVEventArgs@4@@Z: ; Mogitter::Form1::all_selectMenuItem_Click
;	.proc.def	D:V(PP)

; Function Header:
; max stack depth = 1
; function size = 12 bytes
; local varsig tk = 0x0 
; Exception Information:
; 0 handlers, each consisting of filtered handlers

;	.formal.mptr 0,"this$" SIG: Optional C Binding Modifier(token:0x38BA05).class (token:0x38BA08)

;	.proc.beg

; 1037 : 			 azukiArea->SelectAll();

  0000b	02		 ldarg.0 	; this$
  0000c	7b 00 00 00 00	 ldfld ?azukiArea@Form1@Mogitter@@3P$AAVAzukiControl@WinForms@Azuki@Sgry@@$AA
  00011	6f 00 00 00 00	 callvirt ?SelectAll@AzukiControl@WinForms@Azuki@Sgry@@$$FU$AAMXXZ

; 1038 : 		 }

  00016	2a		 ret 
 .end ?all_selectMenuItem_Click@Form1@Mogitter@@$$FA$AAMXP$AAVObject@System@@P$AAVEventArgs@4@@Z ; Mogitter::Form1::all_selectMenuItem_Click
;	.proc.end.void
.global	
.global	
	.bss
.local	,4
.local	,4
.local	$StringLiteralTok$??_C@_1FE@HKDFPMJE@?$AAM?$AAo?$AAg?$AAi0?U0?$KB0?$KE0?k?$AA?$CI?$AA?$CK?$AA?4?$AAm?$AAo?$AAg?$AAi?$AA?$CJ?$AA?$HM?$AA?$CK?$AA?4?$AAm?$AAo?$AAg?$AAi?$AA?$HM0Y0y0f0n0?U0?$KB0?$KE0?k@,4
.local	$T1,0
; Function compile flags: /Ogsp
; File f:\meijin4\c++\mogitter\mogitter\form1.h
	.text
	.comdat	any, ?savingDo@Form1@Mogitter@@$$FA$AAMX_N@Z
.global	?savingDo@Form1@Mogitter@@$$FA$AAMX_N@Z		; Mogitter::Form1::savingDo
?savingDo@Form1@Mogitter@@$$FA$AAMX_N@Z:		; Mogitter::Form1::savingDo
;	.proc.def	D:V(I)

; Function Header:
; max stack depth = 3
; function size = 91 bytes
; local varsig tk = 0x1100001C 
; Exception Information:
; 0 handlers, each consisting of filtered handlers

;	.formal.mptr 0,"this$" SIG: Optional C Binding Modifier(token:0x38BA05).class (token:0x38BA08)
;	.formal.u1 1,"append$" SIG: bool
;	.local.mptr 0,"sdg$" SIG: class (token:0x3D78A25)
;	.local.mptr 1,"writer$" SIG: class (token:0x3D78CE5)

;	.proc.beg

; 1059 : 			 	SaveFileDialog^ sdg = gcnew SaveFileDialog();

  0000b	73 00 00 00 00	 newobj ??0SaveFileDialog@Forms@Windows@System@@$$FQ$AAM@XZ
  00010	0a		 stloc.0 	; sdg$

; 1060 : 				sdg->Filter = "Mogiファイル(*.mogi)|*.mogi|すべてのファイル(*.*)|*.*";

  00011	06		 ldloc.0 	; sdg$
  00012	72 00 00 00 00	 ldstr $StringLiteralTok$??_C@_1FE@HKDFPMJE@?$AAM?$AAo?$AAg?$AAi0?U0?$KB0?$KE0?k?$AA?$CI?$AA?$CK?$AA?4?$AAm?$AAo?$AAg?$AAi?$AA?$CJ?$AA?$HM?$AA?$CK?$AA?4?$AAm?$AAo?$AAg?$AAi?$AA?$HM0Y0y0f0n0?U0?$KB0?$KE0?k@
  00017	28 00 00 00 00	 call ?set@Filter@FileDialog@Forms@Windows@System@@$$FQ$AAMXP$AAVString@5@@Z

; 1061 : 				if(sdg->ShowDialog() != System::Windows::Forms::DialogResult::OK){

  0001c	06		 ldloc.0 	; sdg$
  0001d	28 00 00 00 00	 call ?ShowDialog@CommonDialog@Forms@Windows@System@@$$FQ$AAM?AW4DialogResult@234@XZ
  00022	17		 ldc.i.1 1	; i32 0x1
  00023	33 41		 bne.un.s $LN2@savingDo

; 1062 : 					return;
; 1063 : 				}
; 1064 : 				fileName = sdg->FileName;

  00025	02		 ldarg.0 	; this$
  00026	06		 ldloc.0 	; sdg$
  00027	28 00 00 00 00	 call ?get@FileName@FileDialog@Forms@Windows@System@@$$FQ$AAMP$AAVString@5@XZ
  0002c	7d 00 00 00 00	 stfld ?fileName@Form1@Mogitter@@3P$AAVString@System@@$AA

; 1065 : 				StreamWriter^ writer = gcnew StreamWriter(sdg->FileName,append,System::Text::Encoding::GetEncoding(mojiCode->Text));

  00031	06		 ldloc.0 	; sdg$
  00032	28 00 00 00 00	 call ?get@FileName@FileDialog@Forms@Windows@System@@$$FQ$AAMP$AAVString@5@XZ
  00037	03		 ldarg.1 	; append$
  00038	02		 ldarg.0 	; this$
  00039	7b 00 00 00 00	 ldfld ?mojiCode@Form1@Mogitter@@3P$AAVToolStripDropDownButton@Forms@Windows@System@@$AA
  0003e	6f 00 00 00 00	 callvirt ?get@Text@ToolStripItem@Forms@Windows@System@@$$FU$AAMP$AAVString@5@XZ
  00043	28 00 00 00 00	 call ?GetEncoding@Encoding@Text@System@@$$FSMP$AAV123@P$AAVString@3@@Z
  00048	73 00 00 00 00	 newobj ??0StreamWriter@IO@System@@$$FQ$AAM@P$AAVString@2@_NP$AAVEncoding@Text@2@@Z
  0004d	0b		 stloc.1 	; writer$

; 1066 : 				writer->Write(azukiArea->Text);

  0004e	07		 ldloc.1 	; writer$
  0004f	02		 ldarg.0 	; this$
  00050	7b 00 00 00 00	 ldfld ?azukiArea@Form1@Mogitter@@3P$AAVAzukiControl@WinForms@Azuki@Sgry@@$AA
  00055	6f 00 00 00 00	 callvirt ?get@Text@AzukiControl@WinForms@Azuki@Sgry@@$$FU$AAMP$AAVString@System@@XZ
  0005a	6f 00 00 00 00	 callvirt ?Write@StreamWriter@IO@System@@$$FU$AAMXP$AAVString@3@@Z

; 1067 : 
; 1068 : 				writer->Close();

  0005f	07		 ldloc.1 	; writer$
  00060	6f 00 00 00 00	 callvirt ?Close@StreamWriter@IO@System@@$$FU$AAMXXZ
$LN2@savingDo:

; 1069 : 		 }

  00066	2a		 ret 
 .end ?savingDo@Form1@Mogitter@@$$FA$AAMX_N@Z		; Mogitter::Form1::savingDo
;	.proc.end.void
; Function compile flags: /Ogsp
; File f:\meijin4\c++\mogitter\mogitter\form1.h
	.text
	.comdat	any, ?named_saveMenuItem_Click@Form1@Mogitter@@$$FA$AAMXP$AAVObject@System@@P$AAVEventArgs@4@@Z
.global	?named_saveMenuItem_Click@Form1@Mogitter@@$$FA$AAMXP$AAVObject@System@@P$AAVEventArgs@4@@Z ; Mogitter::Form1::named_saveMenuItem_Click
?named_saveMenuItem_Click@Form1@Mogitter@@$$FA$AAMXP$AAVObject@System@@P$AAVEventArgs@4@@Z: ; Mogitter::Form1::named_saveMenuItem_Click
;	.proc.def	D:V(PP)

; Function Header:
; max stack depth = 2
; function size = 8 bytes
; local varsig tk = 0x0 
; Exception Information:
; 0 handlers, each consisting of filtered handlers

;	.formal.mptr 0,"this$" SIG: Optional C Binding Modifier(token:0x38BA05).class (token:0x38BA08)

;	.proc.beg

; 1071 : 			 savingDo(false);

  0000b	02		 ldarg.0 	; this$
  0000c	16		 ldc.i.0 0	; u8 0x0
  0000d	28 00 00 00 00	 call ?savingDo@Form1@Mogitter@@$$FA$AAMX_N@Z

; 1072 : 			}

  00012	2a		 ret 
 .end ?named_saveMenuItem_Click@Form1@Mogitter@@$$FA$AAMXP$AAVObject@System@@P$AAVEventArgs@4@@Z ; Mogitter::Form1::named_saveMenuItem_Click
;	.proc.end.void
	.bss
.local	$StringLiteralTok$??_C@_15LJNFNBHD@?$AA?$DL?$AA?$HN?$AA?$AA@,4
.local	$T1,0
; Function compile flags: /Ogsp
; File f:\meijin4\c++\mogitter\mogitter\form1.h
	.text
	.comdat	any, ?randomQNum_ValueChanged@Form1@Mogitter@@$$FA$AAMXP$AAVObject@System@@P$AAVEventArgs@4@@Z
.global	?randomQNum_ValueChanged@Form1@Mogitter@@$$FA$AAMXP$AAVObject@System@@P$AAVEventArgs@4@@Z ; Mogitter::Form1::randomQNum_ValueChanged
?randomQNum_ValueChanged@Form1@Mogitter@@$$FA$AAMXP$AAVObject@System@@P$AAVEventArgs@4@@Z: ; Mogitter::Form1::randomQNum_ValueChanged
;	.proc.def	D:V(PP)

; Function Header:
; max stack depth = 5
; function size = 157 bytes
; local varsig tk = 0x1100001D 
; Exception Information:
; 0 handlers, each consisting of filtered handlers

;	.formal.mptr 0,"this$" SIG: Optional C Binding Modifier(token:0x38BA05).class (token:0x38BA08)
;	.local.mptr 0,"insStr$" SIG: string
;	.local.i4 1,"$T2" SIG: i4

;	.proc.beg

; 1074 : 				if (!randomCheckBox->Checked)

  0000b	02		 ldarg.0 	; this$
  0000c	7b 00 00 00 00	 ldfld ?randomCheckBox@Form1@Mogitter@@3P$AAVCheckBox@Forms@Windows@System@@$AA
  00011	28 00 00 00 00	 call ?get@Checked@CheckBox@Forms@Windows@System@@$$FQ$AAM_NXZ
  00016	39 8d 00 00 00	 brfalse $LN1@randomQNum

; 1075 : 				{
; 1076 : 					return;
; 1077 : 				}
; 1078 : 				String^ insStr = "{@Random=";

  0001b	72 00 00 00 00	 ldstr $StringLiteralTok$??_C@_1BE@EPLDMCPJ@?$AA?$HL?$AA?$EA?$AAR?$AAa?$AAn?$AAd?$AAo?$AAm?$AA?$DN?$AA?$AA@
  00020	0a		 stloc.0 	; insStr$

; 1079 : 				int num = Decimal::ToInt32(randomQNum->Value);

  00021	02		 ldarg.0 	; this$
  00022	7b 00 00 00 00	 ldfld ?randomQNum@Form1@Mogitter@@3P$AAVNumericUpDown@Forms@Windows@System@@$AA
  00027	28 00 00 00 00	 call ?get@Value@NumericUpDown@Forms@Windows@System@@$$FQ$AAM?AVDecimal@5@XZ
  0002c	28 00 00 00 00	 call ?ToInt32@Decimal@System@@$$FSMHV12@@Z
  00031	0b		 stloc.1 	; $T2

; 1080 : 				insStr+=num.ToString()+";}";

  00032	06		 ldloc.0 	; insStr$
  00033	12 01		 ldloca.s 1	; $T2
  00035	28 00 00 00 00	 call ?ToString@Int32@System@@$$FU$CAMP$AAVString@2@XZ
  0003a	72 00 00 00 00	 ldstr $StringLiteralTok$??_C@_15LJNFNBHD@?$AA?$DL?$AA?$HN?$AA?$AA@
  0003f	28 00 00 00 00	 call ?Concat@String@System@@$$FSMP$AAV12@P$AAV12@0@Z
  00044	28 00 00 00 00	 call ?Concat@String@System@@$$FSMP$AAV12@P$AAV12@0@Z
  00049	0a		 stloc.0 	; insStr$

; 1081 : 				if (azukiArea->Text->StartsWith("{@Random="))

  0004a	02		 ldarg.0 	; this$
  0004b	7b 00 00 00 00	 ldfld ?azukiArea@Form1@Mogitter@@3P$AAVAzukiControl@WinForms@Azuki@Sgry@@$AA
  00050	6f 00 00 00 00	 callvirt ?get@Text@AzukiControl@WinForms@Azuki@Sgry@@$$FU$AAMP$AAVString@System@@XZ
  00055	72 00 00 00 00	 ldstr $StringLiteralTok$??_C@_1BE@EPLDMCPJ@?$AA?$HL?$AA?$EA?$AAR?$AAa?$AAn?$AAd?$AAo?$AAm?$AA?$DN?$AA?$AA@
  0005a	28 00 00 00 00	 call ?StartsWith@String@System@@$$FQ$AAM_NP$AAV12@@Z
  0005f	2c 21		 brfalse.s $LN2@randomQNum

; 1082 : 				{
; 1083 : 					azukiArea->Document->Replace(insStr,0,azukiArea->GetLineLength(0));

  00061	02		 ldarg.0 	; this$
  00062	7b 00 00 00 00	 ldfld ?azukiArea@Form1@Mogitter@@3P$AAVAzukiControl@WinForms@Azuki@Sgry@@$AA
  00067	6f 00 00 00 00	 callvirt ?get@Document@AzukiControl@WinForms@Azuki@Sgry@@$$FU$AAMP$AAV145@XZ
  0006c	06		 ldloc.0 	; insStr$
  0006d	16		 ldc.i.0 0	; i32 0x0
  0006e	02		 ldarg.0 	; this$
  0006f	7b 00 00 00 00	 ldfld ?azukiArea@Form1@Mogitter@@3P$AAVAzukiControl@WinForms@Azuki@Sgry@@$AA
  00074	16		 ldc.i.0 0	; i32 0x0
  00075	6f 00 00 00 00	 callvirt ?GetLineLength@AzukiControl@WinForms@Azuki@Sgry@@$$FU$AAMHH@Z
  0007a	28 00 00 00 00	 call ?Replace@Document@Azuki@Sgry@@$$FQ$AAMXP$AAVString@System@@HH@Z

; 1084 : 				}else

  0007f	2b 27		 br.s $LN1@randomQNum
$LN2@randomQNum:

; 1085 : 				{
; 1086 : 					azukiArea->Text = insStr + "\n" + azukiArea->Text;

  00082	02		 ldarg.0 	; this$
  00083	7b 00 00 00 00	 ldfld ?azukiArea@Form1@Mogitter@@3P$AAVAzukiControl@WinForms@Azuki@Sgry@@$AA
  00088	06		 ldloc.0 	; insStr$
  00089	72 00 00 00 00	 ldstr $StringLiteralTok$??_C@_13LBAGMAIH@?$AA?6?$AA?$AA@
  0008e	28 00 00 00 00	 call ?Concat@String@System@@$$FSMP$AAV12@P$AAV12@0@Z
  00093	02		 ldarg.0 	; this$
  00094	7b 00 00 00 00	 ldfld ?azukiArea@Form1@Mogitter@@3P$AAVAzukiControl@WinForms@Azuki@Sgry@@$AA
  00099	6f 00 00 00 00	 callvirt ?get@Text@AzukiControl@WinForms@Azuki@Sgry@@$$FU$AAMP$AAVString@System@@XZ
  0009e	28 00 00 00 00	 call ?Concat@String@System@@$$FSMP$AAV12@P$AAV12@0@Z
  000a3	6f 00 00 00 00	 callvirt ?set@Text@AzukiControl@WinForms@Azuki@Sgry@@$$FU$AAMXP$AAVString@System@@@Z
$LN1@randomQNum:

; 1087 : 				}
; 1088 : 			}

  000a8	2a		 ret 
 .end ?randomQNum_ValueChanged@Form1@Mogitter@@$$FA$AAMXP$AAVObject@System@@P$AAVEventArgs@4@@Z ; Mogitter::Form1::randomQNum_ValueChanged
;	.proc.end.void
; Function compile flags: /Ogsp
; File f:\meijin4\c++\mogitter\mogitter\form1.h
	.text
	.comdat	any, ?randomCheckBox_CheckedChanged@Form1@Mogitter@@$$FA$AAMXP$AAVObject@System@@P$AAVEventArgs@4@@Z
.global	?randomCheckBox_CheckedChanged@Form1@Mogitter@@$$FA$AAMXP$AAVObject@System@@P$AAVEventArgs@4@@Z ; Mogitter::Form1::randomCheckBox_CheckedChanged
?randomCheckBox_CheckedChanged@Form1@Mogitter@@$$FA$AAMXP$AAVObject@System@@P$AAVEventArgs@4@@Z: ; Mogitter::Form1::randomCheckBox_CheckedChanged
;	.proc.def	D:V(PP)

; Function Header:
; max stack depth = 5
; function size = 107 bytes
; local varsig tk = 0x0 
; Exception Information:
; 0 handlers, each consisting of filtered handlers

;	.formal.mptr 0,"this$" SIG: Optional C Binding Modifier(token:0x38BA05).class (token:0x38BA08)
;	.formal.mptr 2,"e$" SIG: class (token:0x3D1D1F5)
;	.formal.mptr 1,"sender$" SIG: Unknown COM+ Object Signature

;	.proc.beg

; 1090 : 				if (randomCheckBox->Checked)

  0000b	02		 ldarg.0 	; this$
  0000c	7b 00 00 00 00	 ldfld ?randomCheckBox@Form1@Mogitter@@3P$AAVCheckBox@Forms@Windows@System@@$AA
  00011	28 00 00 00 00	 call ?get@Checked@CheckBox@Forms@Windows@System@@$$FQ$AAM_NXZ
  00016	2c 17		 brfalse.s $LN3@randomChec

; 1091 : 				{
; 1092 : 					randomQNum->Enabled = true;

  00018	02		 ldarg.0 	; this$
  00019	7b 00 00 00 00	 ldfld ?randomQNum@Form1@Mogitter@@3P$AAVNumericUpDown@Forms@Windows@System@@$AA
  0001e	17		 ldc.i.1 1	; u8 0x1
  0001f	28 00 00 00 00	 call ?set@Enabled@Control@Forms@Windows@System@@$$FQ$AAMX_N@Z

; 1093 : 					randomQNum_ValueChanged(sender,e);

  00024	02		 ldarg.0 	; this$
  00025	03		 ldarg.1 	; sender$
  00026	04		 ldarg.2 	; e$
  00027	28 00 00 00 00	 call ?randomQNum_ValueChanged@Form1@Mogitter@@$$FA$AAMXP$AAVObject@System@@P$AAVEventArgs@4@@Z

; 1094 : 				}
; 1095 : 				else

  0002c	2b 48		 br.s $LN1@randomChec
$LN3@randomChec:

; 1096 : 				{
; 1097 : 					randomQNum->Enabled = false;

  0002f	02		 ldarg.0 	; this$
  00030	7b 00 00 00 00	 ldfld ?randomQNum@Form1@Mogitter@@3P$AAVNumericUpDown@Forms@Windows@System@@$AA
  00035	16		 ldc.i.0 0	; u8 0x0
  00036	28 00 00 00 00	 call ?set@Enabled@Control@Forms@Windows@System@@$$FQ$AAMX_N@Z

; 1098 : 					if (azukiArea->Text->StartsWith("{@Random="))

  0003b	02		 ldarg.0 	; this$
  0003c	7b 00 00 00 00	 ldfld ?azukiArea@Form1@Mogitter@@3P$AAVAzukiControl@WinForms@Azuki@Sgry@@$AA
  00041	6f 00 00 00 00	 callvirt ?get@Text@AzukiControl@WinForms@Azuki@Sgry@@$$FU$AAMP$AAVString@System@@XZ
  00046	72 00 00 00 00	 ldstr $StringLiteralTok$??_C@_1BE@EPLDMCPJ@?$AA?$HL?$AA?$EA?$AAR?$AAa?$AAn?$AAd?$AAo?$AAm?$AA?$DN?$AA?$AA@
  0004b	28 00 00 00 00	 call ?StartsWith@String@System@@$$FQ$AAM_NP$AAV12@@Z
  00050	2c 24		 brfalse.s $LN1@randomChec

; 1099 : 					{
; 1100 : 						azukiArea->Document->Replace("",0,azukiArea->GetLineLength(0)+1);

  00052	02		 ldarg.0 	; this$
  00053	7b 00 00 00 00	 ldfld ?azukiArea@Form1@Mogitter@@3P$AAVAzukiControl@WinForms@Azuki@Sgry@@$AA
  00058	6f 00 00 00 00	 callvirt ?get@Document@AzukiControl@WinForms@Azuki@Sgry@@$$FU$AAMP$AAV145@XZ
  0005d	72 00 00 00 00	 ldstr $StringLiteralTok$??_C@_11LOCGONAA@?$AA?$AA@
  00062	16		 ldc.i.0 0	; i32 0x0
  00063	02		 ldarg.0 	; this$
  00064	7b 00 00 00 00	 ldfld ?azukiArea@Form1@Mogitter@@3P$AAVAzukiControl@WinForms@Azuki@Sgry@@$AA
  00069	16		 ldc.i.0 0	; i32 0x0
  0006a	6f 00 00 00 00	 callvirt ?GetLineLength@AzukiControl@WinForms@Azuki@Sgry@@$$FU$AAMHH@Z
  0006f	17		 ldc.i.1 1	; i32 0x1
  00070	58		 add 
  00071	28 00 00 00 00	 call ?Replace@Document@Azuki@Sgry@@$$FQ$AAMXP$AAVString@System@@HH@Z
$LN1@randomChec:

; 1101 : 					}
; 1102 : 				}
; 1103 : 			}

  00076	2a		 ret 
 .end ?randomCheckBox_CheckedChanged@Form1@Mogitter@@$$FA$AAMXP$AAVObject@System@@P$AAVEventArgs@4@@Z ; Mogitter::Form1::randomCheckBox_CheckedChanged
;	.proc.end.void
; Function compile flags: /Ogsp
; File f:\meijin4\c++\mogitter\mogitter\form1.h
	.text
	.comdat	any, ?newMakeItem_Click@Form1@Mogitter@@$$FA$AAMXP$AAVObject@System@@P$AAVEventArgs@4@@Z
.global	?newMakeItem_Click@Form1@Mogitter@@$$FA$AAMXP$AAVObject@System@@P$AAVEventArgs@4@@Z ; Mogitter::Form1::newMakeItem_Click
?newMakeItem_Click@Form1@Mogitter@@$$FA$AAMXP$AAVObject@System@@P$AAVEventArgs@4@@Z: ; Mogitter::Form1::newMakeItem_Click
;	.proc.def	D:V(PP)

; Function Header:
; max stack depth = 2
; function size = 28 bytes
; local varsig tk = 0x0 
; Exception Information:
; 0 handlers, each consisting of filtered handlers

;	.formal.mptr 0,"this$" SIG: Optional C Binding Modifier(token:0x38BA05).class (token:0x38BA08)

;	.proc.beg

; 1105 : 			 azukiArea->Text = "";

  0000b	02		 ldarg.0 	; this$
  0000c	7b 00 00 00 00	 ldfld ?azukiArea@Form1@Mogitter@@3P$AAVAzukiControl@WinForms@Azuki@Sgry@@$AA
  00011	72 00 00 00 00	 ldstr $StringLiteralTok$??_C@_11LOCGONAA@?$AA?$AA@
  00016	6f 00 00 00 00	 callvirt ?set@Text@AzukiControl@WinForms@Azuki@Sgry@@$$FU$AAMXP$AAVString@System@@@Z

; 1106 : 			 fileName = "";

  0001b	02		 ldarg.0 	; this$
  0001c	72 00 00 00 00	 ldstr $StringLiteralTok$??_C@_11LOCGONAA@?$AA?$AA@
  00021	7d 00 00 00 00	 stfld ?fileName@Form1@Mogitter@@3P$AAVString@System@@$AA

; 1107 : 		 }

  00026	2a		 ret 
 .end ?newMakeItem_Click@Form1@Mogitter@@$$FA$AAMXP$AAVObject@System@@P$AAVEventArgs@4@@Z ; Mogitter::Form1::newMakeItem_Click
;	.proc.end.void
; Function compile flags: /Ogsp
; File f:\meijin4\c++\mogitter\mogitter\form1.h
	.text
	.comdat	any, ?endMenuItem_Click@Form1@Mogitter@@$$FA$AAMXP$AAVObject@System@@P$AAVEventArgs@4@@Z
.global	?endMenuItem_Click@Form1@Mogitter@@$$FA$AAMXP$AAVObject@System@@P$AAVEventArgs@4@@Z ; Mogitter::Form1::endMenuItem_Click
?endMenuItem_Click@Form1@Mogitter@@$$FA$AAMXP$AAVObject@System@@P$AAVEventArgs@4@@Z: ; Mogitter::Form1::endMenuItem_Click
;	.proc.def	D:V(PP)

; Function Header:
; max stack depth = 1
; function size = 7 bytes
; local varsig tk = 0x0 
; Exception Information:
; 0 handlers, each consisting of filtered handlers

;	.formal.mptr 0,"this$" SIG: Optional C Binding Modifier(token:0x38BA05).class (token:0x38BA08)

;	.proc.beg

; 1109 : 			 this->Close();

  0000b	02		 ldarg.0 	; this$
  0000c	28 00 00 00 00	 call ?Close@Form@Forms@Windows@System@@$$FQ$AAMXXZ

; 1110 : 		 }

  00011	2a		 ret 
 .end ?endMenuItem_Click@Form1@Mogitter@@$$FA$AAMXP$AAVObject@System@@P$AAVEventArgs@4@@Z ; Mogitter::Form1::endMenuItem_Click
;	.proc.end.void
; Function compile flags: /Ogsp
; File f:\meijin4\c++\mogitter\mogitter\form1.h
	.text
	.comdat	any, ?plusMenuItem_Click@Form1@Mogitter@@$$FA$AAMXP$AAVObject@System@@P$AAVEventArgs@4@@Z
.global	?plusMenuItem_Click@Form1@Mogitter@@$$FA$AAMXP$AAVObject@System@@P$AAVEventArgs@4@@Z ; Mogitter::Form1::plusMenuItem_Click
?plusMenuItem_Click@Form1@Mogitter@@$$FA$AAMXP$AAVObject@System@@P$AAVEventArgs@4@@Z: ; Mogitter::Form1::plusMenuItem_Click
;	.proc.def	D:V(PP)

; Function Header:
; max stack depth = 2
; function size = 8 bytes
; local varsig tk = 0x0 
; Exception Information:
; 0 handlers, each consisting of filtered handlers

;	.formal.mptr 0,"this$" SIG: Optional C Binding Modifier(token:0x38BA05).class (token:0x38BA08)

;	.proc.beg

; 1112 : 			 savingDo(true);

  0000b	02		 ldarg.0 	; this$
  0000c	17		 ldc.i.1 1	; u8 0x1
  0000d	28 00 00 00 00	 call ?savingDo@Form1@Mogitter@@$$FA$AAMX_N@Z

; 1113 : 		 }

  00012	2a		 ret 
 .end ?plusMenuItem_Click@Form1@Mogitter@@$$FA$AAMXP$AAVObject@System@@P$AAVEventArgs@4@@Z ; Mogitter::Form1::plusMenuItem_Click
;	.proc.end.void
.global	?shiftjisToolStripMenuItem@Form1@Mogitter@@3P$AAVToolStripMenuItem@Forms@Windows@System@@$AA ; Mogitter::Form1::shiftjisToolStripMenuItem
	.bss
.local	?shiftjisToolStripMenuItem@Form1@Mogitter@@3P$AAVToolStripMenuItem@Forms@Windows@System@@$AA,4 ; Mogitter::Form1::shiftjisToolStripMenuItem
; Function compile flags: /Ogsp
; File f:\meijin4\c++\mogitter\mogitter\form1.h
	.text
	.comdat	any, ?shiftjisToolStripMenuItem_Click@Form1@Mogitter@@$$FA$AAMXP$AAVObject@System@@P$AAVEventArgs@4@@Z
.global	?shiftjisToolStripMenuItem_Click@Form1@Mogitter@@$$FA$AAMXP$AAVObject@System@@P$AAVEventArgs@4@@Z ; Mogitter::Form1::shiftjisToolStripMenuItem_Click
?shiftjisToolStripMenuItem_Click@Form1@Mogitter@@$$FA$AAMXP$AAVObject@System@@P$AAVEventArgs@4@@Z: ; Mogitter::Form1::shiftjisToolStripMenuItem_Click
;	.proc.def	D:V(PP)

; Function Header:
; max stack depth = 2
; function size = 23 bytes
; local varsig tk = 0x0 
; Exception Information:
; 0 handlers, each consisting of filtered handlers

;	.formal.mptr 0,"this$" SIG: Optional C Binding Modifier(token:0x38BA05).class (token:0x38BA08)

;	.proc.beg

; 1115 : 			 mojiCode->Text = shiftjisToolStripMenuItem->Text;

  0000b	02		 ldarg.0 	; this$
  0000c	7b 00 00 00 00	 ldfld ?mojiCode@Form1@Mogitter@@3P$AAVToolStripDropDownButton@Forms@Windows@System@@$AA
  00011	02		 ldarg.0 	; this$
  00012	7b 00 00 00 00	 ldfld ?shiftjisToolStripMenuItem@Form1@Mogitter@@3P$AAVToolStripMenuItem@Forms@Windows@System@@$AA
  00017	6f 00 00 00 00	 callvirt ?get@Text@ToolStripItem@Forms@Windows@System@@$$FU$AAMP$AAVString@5@XZ
  0001c	6f 00 00 00 00	 callvirt ?set@Text@ToolStripItem@Forms@Windows@System@@$$FU$AAMXP$AAVString@5@@Z

; 1116 : 		 }

  00021	2a		 ret 
 .end ?shiftjisToolStripMenuItem_Click@Form1@Mogitter@@$$FA$AAMXP$AAVObject@System@@P$AAVEventArgs@4@@Z ; Mogitter::Form1::shiftjisToolStripMenuItem_Click
;	.proc.end.void
.global	?uTF8ToolStripMenuItem@Form1@Mogitter@@3P$AAVToolStripMenuItem@Forms@Windows@System@@$AA ; Mogitter::Form1::uTF8ToolStripMenuItem
	.bss
.local	?uTF8ToolStripMenuItem@Form1@Mogitter@@3P$AAVToolStripMenuItem@Forms@Windows@System@@$AA,4 ; Mogitter::Form1::uTF8ToolStripMenuItem
; Function compile flags: /Ogsp
; File f:\meijin4\c++\mogitter\mogitter\form1.h
	.text
	.comdat	any, ?uTF8ToolStripMenuItem_Click@Form1@Mogitter@@$$FA$AAMXP$AAVObject@System@@P$AAVEventArgs@4@@Z
.global	?uTF8ToolStripMenuItem_Click@Form1@Mogitter@@$$FA$AAMXP$AAVObject@System@@P$AAVEventArgs@4@@Z ; Mogitter::Form1::uTF8ToolStripMenuItem_Click
?uTF8ToolStripMenuItem_Click@Form1@Mogitter@@$$FA$AAMXP$AAVObject@System@@P$AAVEventArgs@4@@Z: ; Mogitter::Form1::uTF8ToolStripMenuItem_Click
;	.proc.def	D:V(PP)

; Function Header:
; max stack depth = 2
; function size = 23 bytes
; local varsig tk = 0x0 
; Exception Information:
; 0 handlers, each consisting of filtered handlers

;	.formal.mptr 0,"this$" SIG: Optional C Binding Modifier(token:0x38BA05).class (token:0x38BA08)

;	.proc.beg

; 1118 : 			 mojiCode->Text = uTF8ToolStripMenuItem->Text;

  0000b	02		 ldarg.0 	; this$
  0000c	7b 00 00 00 00	 ldfld ?mojiCode@Form1@Mogitter@@3P$AAVToolStripDropDownButton@Forms@Windows@System@@$AA
  00011	02		 ldarg.0 	; this$
  00012	7b 00 00 00 00	 ldfld ?uTF8ToolStripMenuItem@Form1@Mogitter@@3P$AAVToolStripMenuItem@Forms@Windows@System@@$AA
  00017	6f 00 00 00 00	 callvirt ?get@Text@ToolStripItem@Forms@Windows@System@@$$FU$AAMP$AAVString@5@XZ
  0001c	6f 00 00 00 00	 callvirt ?set@Text@ToolStripItem@Forms@Windows@System@@$$FU$AAMXP$AAVString@5@@Z

; 1119 : 		 }

  00021	2a		 ret 
 .end ?uTF8ToolStripMenuItem_Click@Form1@Mogitter@@$$FA$AAMXP$AAVObject@System@@P$AAVEventArgs@4@@Z ; Mogitter::Form1::uTF8ToolStripMenuItem_Click
;	.proc.end.void
	.bss
.local	$T1,0
; Function compile flags: /Ogsp
; File f:\meijin4\c++\mogitter\mogitter\form1.h
	.text
	.comdat	any, ?mojiCode_Click@Form1@Mogitter@@$$FA$AAMXP$AAVObject@System@@P$AAVEventArgs@4@@Z
.global	?mojiCode_Click@Form1@Mogitter@@$$FA$AAMXP$AAVObject@System@@P$AAVEventArgs@4@@Z ; Mogitter::Form1::mojiCode_Click
?mojiCode_Click@Form1@Mogitter@@$$FA$AAMXP$AAVObject@System@@P$AAVEventArgs@4@@Z: ; Mogitter::Form1::mojiCode_Click
;	.proc.def	D:V(PP)

; Function Header:
; max stack depth = 2
; function size = 19 bytes
; local varsig tk = 0x1100001E 
; Exception Information:
; 0 handlers, each consisting of filtered handlers

;	.formal.mptr 0,"this$" SIG: Optional C Binding Modifier(token:0x38BA05).class (token:0x38BA08)
;	.local.mb20  0,"$T2" SIG: valueType (token:0x3D28D25)

;	.proc.beg

; 1121 : 			 mojiCode->ForeColor = Color::Blue;

  0000b	28 00 00 00 00	 call ?get@Blue@Color@Drawing@System@@$$FSM?AV234@XZ
  00010	0a		 stloc.0 	; $T2
  00011	02		 ldarg.0 	; this$
  00012	7b 00 00 00 00	 ldfld ?mojiCode@Form1@Mogitter@@3P$AAVToolStripDropDownButton@Forms@Windows@System@@$AA
  00017	06		 ldloc.0 	; $T2
  00018	6f 00 00 00 00	 callvirt ?set@ForeColor@ToolStripItem@Forms@Windows@System@@$$FU$AAMXVColor@Drawing@5@@Z

; 1122 : 		 }

  0001d	2a		 ret 
 .end ?mojiCode_Click@Form1@Mogitter@@$$FA$AAMXP$AAVObject@System@@P$AAVEventArgs@4@@Z ; Mogitter::Form1::mojiCode_Click
;	.proc.end.void
.global	?dropOpen@Form1@Mogitter@@3_NA			; Mogitter::Form1::dropOpen
	.bss
.local	?dropOpen@Form1@Mogitter@@3_NA,1		; Mogitter::Form1::dropOpen
	.align	2
.local	$T1,0
; Function compile flags: /Ogsp
; File f:\meijin4\c++\mogitter\mogitter\form1.h
	.text
	.comdat	any, ?mojiCode_DropDownClosed@Form1@Mogitter@@$$FA$AAMXP$AAVObject@System@@P$AAVEventArgs@4@@Z
.global	?mojiCode_DropDownClosed@Form1@Mogitter@@$$FA$AAMXP$AAVObject@System@@P$AAVEventArgs@4@@Z ; Mogitter::Form1::mojiCode_DropDownClosed
?mojiCode_DropDownClosed@Form1@Mogitter@@$$FA$AAMXP$AAVObject@System@@P$AAVEventArgs@4@@Z: ; Mogitter::Form1::mojiCode_DropDownClosed
;	.proc.def	D:V(PP)

; Function Header:
; max stack depth = 2
; function size = 26 bytes
; local varsig tk = 0x1100001E 
; Exception Information:
; 0 handlers, each consisting of filtered handlers

;	.formal.mptr 0,"this$" SIG: Optional C Binding Modifier(token:0x38BA05).class (token:0x38BA08)
;	.local.mb20  0,"$T2" SIG: valueType (token:0x3D28D25)

;	.proc.beg

; 1124 : 			 mojiCode->ForeColor = Color::White;

  0000b	28 00 00 00 00	 call ?get@White@Color@Drawing@System@@$$FSM?AV234@XZ
  00010	0a		 stloc.0 	; $T2
  00011	02		 ldarg.0 	; this$
  00012	7b 00 00 00 00	 ldfld ?mojiCode@Form1@Mogitter@@3P$AAVToolStripDropDownButton@Forms@Windows@System@@$AA
  00017	06		 ldloc.0 	; $T2
  00018	6f 00 00 00 00	 callvirt ?set@ForeColor@ToolStripItem@Forms@Windows@System@@$$FU$AAMXVColor@Drawing@5@@Z

; 1125 : 			 dropOpen=false;

  0001d	02		 ldarg.0 	; this$
  0001e	16		 ldc.i.0 0	; u8 0x0
  0001f	7d 00 00 00 00	 stfld ?dropOpen@Form1@Mogitter@@3_NA

; 1126 : 		 }

  00024	2a		 ret 
 .end ?mojiCode_DropDownClosed@Form1@Mogitter@@$$FA$AAMXP$AAVObject@System@@P$AAVEventArgs@4@@Z ; Mogitter::Form1::mojiCode_DropDownClosed
;	.proc.end.void
; Function compile flags: /Ogsp
; File f:\meijin4\c++\mogitter\mogitter\form1.h
	.text
	.comdat	any, ?mojiCode_DropDownOpened@Form1@Mogitter@@$$FA$AAMXP$AAVObject@System@@P$AAVEventArgs@4@@Z
.global	?mojiCode_DropDownOpened@Form1@Mogitter@@$$FA$AAMXP$AAVObject@System@@P$AAVEventArgs@4@@Z ; Mogitter::Form1::mojiCode_DropDownOpened
?mojiCode_DropDownOpened@Form1@Mogitter@@$$FA$AAMXP$AAVObject@System@@P$AAVEventArgs@4@@Z: ; Mogitter::Form1::mojiCode_DropDownOpened
;	.proc.def	D:V(PP)

; Function Header:
; max stack depth = 2
; function size = 8 bytes
; local varsig tk = 0x0 
; Exception Information:
; 0 handlers, each consisting of filtered handlers

;	.formal.mptr 0,"this$" SIG: Optional C Binding Modifier(token:0x38BA05).class (token:0x38BA08)

;	.proc.beg

; 1129 : 			 dropOpen=true;

  0000b	02		 ldarg.0 	; this$
  0000c	17		 ldc.i.1 1	; u8 0x1
  0000d	7d 00 00 00 00	 stfld ?dropOpen@Form1@Mogitter@@3_NA

; 1130 : 		 }

  00012	2a		 ret 
 .end ?mojiCode_DropDownOpened@Form1@Mogitter@@$$FA$AAMXP$AAVObject@System@@P$AAVEventArgs@4@@Z ; Mogitter::Form1::mojiCode_DropDownOpened
;	.proc.end.void
	.bss
.local	$T1,0
; Function compile flags: /Ogsp
; File f:\meijin4\c++\mogitter\mogitter\form1.h
	.text
	.comdat	any, ?mojiCode_MouseLeave@Form1@Mogitter@@$$FA$AAMXP$AAVObject@System@@P$AAVEventArgs@4@@Z
.global	?mojiCode_MouseLeave@Form1@Mogitter@@$$FA$AAMXP$AAVObject@System@@P$AAVEventArgs@4@@Z ; Mogitter::Form1::mojiCode_MouseLeave
?mojiCode_MouseLeave@Form1@Mogitter@@$$FA$AAMXP$AAVObject@System@@P$AAVEventArgs@4@@Z: ; Mogitter::Form1::mojiCode_MouseLeave
;	.proc.def	D:V(PP)

; Function Header:
; max stack depth = 2
; function size = 27 bytes
; local varsig tk = 0x1100001E 
; Exception Information:
; 0 handlers, each consisting of filtered handlers

;	.formal.mptr 0,"this$" SIG: Optional C Binding Modifier(token:0x38BA05).class (token:0x38BA08)
;	.local.mb20  0,"$T2" SIG: valueType (token:0x3D28D25)

;	.proc.beg

; 1132 : 			 if (!dropOpen)

  0000b	02		 ldarg.0 	; this$
  0000c	7b 00 00 00 00	 ldfld ?dropOpen@Form1@Mogitter@@3_NA
  00011	2d 13		 brtrue.s $LN1@mojiCode_M

; 1133 : 			 {
; 1134 : 				 mojiCode->ForeColor = Color::White;

  00013	28 00 00 00 00	 call ?get@White@Color@Drawing@System@@$$FSM?AV234@XZ
  00018	0a		 stloc.0 	; $T2
  00019	02		 ldarg.0 	; this$
  0001a	7b 00 00 00 00	 ldfld ?mojiCode@Form1@Mogitter@@3P$AAVToolStripDropDownButton@Forms@Windows@System@@$AA
  0001f	06		 ldloc.0 	; $T2
  00020	6f 00 00 00 00	 callvirt ?set@ForeColor@ToolStripItem@Forms@Windows@System@@$$FU$AAMXVColor@Drawing@5@@Z
$LN1@mojiCode_M:

; 1135 : 			 }
; 1136 : 		 }

  00026	2a		 ret 
 .end ?mojiCode_MouseLeave@Form1@Mogitter@@$$FA$AAMXP$AAVObject@System@@P$AAVEventArgs@4@@Z ; Mogitter::Form1::mojiCode_MouseLeave
;	.proc.end.void
; Function compile flags: /Ogsp
	.text
	.comdat	any, ?<Dispose>@Form1@Mogitter@@$$FM$AAMX_N@Z
.global	?<Dispose>@Form1@Mogitter@@$$FM$AAMX_N@Z	; Mogitter::Form1::<Dispose>
?<Dispose>@Form1@Mogitter@@$$FM$AAMX_N@Z:		; Mogitter::Form1::<Dispose>
;	.proc.def	D:V(I)

; Function Header:
; max stack depth = 2
; function size = 27 bytes
; local varsig tk = 0x0 
; Exception Information:
; 1 handlers, each consisting of filtered handlers

;	.formal.mptr 0,"this$" SIG: Optional C Binding Modifier(token:0x38BA05).class (token:0x38BA08)
;	.formal.u1 1,"disposing$" SIG: bool

;	.proc.beg
  0000b	03		 ldarg.1 	; disposing$
  0000c	2c 11		 brfalse.s $LN3@
$LN13@:
  0000f	02		 ldarg.0 	; this$
  00010	28 00 00 00 00	 call ??1Form1@Mogitter@@$$FA$AAM@XZ
$LN2@:
  00015	de 0f		 leave.s $LN12@
$LN7@:
  00017	02		 ldarg.0 	; this$
  00018	17		 ldc.i.1 1	; u8 0x1
  00019	28 00 00 00 00	 call ?<Dispose>@Form@Forms@Windows@System@@$$FM$AAMX_N@Z
$LN9@:
  0001e	dc		 endfinally 
$LN3@:
  0001f	02		 ldarg.0 	; this$
  00020	16		 ldc.i.0 0	; u8 0x0
  00021	28 00 00 00 00	 call ?<Dispose>@Form@Forms@Windows@System@@$$FM$AAMX_N@Z
$LN12@:
  00026	2a		 ret 
 .end ?<Dispose>@Form1@Mogitter@@$$FM$AAMX_N@Z		; Mogitter::Form1::<Dispose>
;	.proc.end.void
.global	?kakkos@Form1@Mogitter@@1P$01AP$AAVString@System@@A ; Mogitter::Form1::kakkos
	.bss
.local	?kakkos@Form1@Mogitter@@1P$01AP$AAVString@System@@A,4 ; Mogitter::Form1::kakkos
.local	$T1,0
; Function compile flags: /Ogsp
	.text
	.comdat	any, ?.cctor@Form1@Mogitter@@$$FSMXXZ
.global	?.cctor@Form1@Mogitter@@$$FSMXXZ		; ?.cctor@Form1@Mogitter@@$$FSMXXZ
?.cctor@Form1@Mogitter@@$$FSMXXZ:			; ?.cctor@Form1@Mogitter@@$$FSMXXZ
;	.proc.def	D:V()

; Function Header:
; max stack depth = 3
; function size = 54 bytes
; local varsig tk = 0x1100001F 
; Exception Information:
; 0 handlers, each consisting of filtered handlers

;	.local.i4 0,"$T2" SIG: string
;	.local.i4 1,"$T3" SIG: string
;	.local.i4 2,"$T4" SIG: string

;	.proc.beg
  0000b	19		 ldc.i.3 3	; i32 0x3
  0000c	8d 00 00 00 00	 newarr $TypeTok$110E9D94$
  00011	80 00 00 00 00	 stsfld ?kakkos@Form1@Mogitter@@1P$01AP$AAVString@System@@A
  00016	72 00 00 00 00	 ldstr $StringLiteralTok$??_C@_13GCIFAHHO@?$AA?$HL?$AA?$AA@
  0001b	0c		 stloc.2 	; $T4
  0001c	7e 00 00 00 00	 ldsfld ?kakkos@Form1@Mogitter@@1P$01AP$AAVString@System@@A
  00021	16		 ldc.i.0 0	; i32 0x0
  00022	08		 ldloc.2 	; $T4
  00023	a2		 stelem.ref 
  00024	72 00 00 00 00	 ldstr $StringLiteralTok$??_C@_13GCIFAHHO@?$AA?$HL?$AA?$AA@
  00029	0b		 stloc.1 	; $T3
  0002a	7e 00 00 00 00	 ldsfld ?kakkos@Form1@Mogitter@@1P$01AP$AAVString@System@@A
  0002f	17		 ldc.i.1 1	; i32 0x1
  00030	07		 ldloc.1 	; $T3
  00031	a2		 stelem.ref 
  00032	72 00 00 00 00	 ldstr $StringLiteralTok$??_C@_13EHOOFIKC@?$AA?$HN?$AA?$AA@
  00037	0a		 stloc.0 	; $T2
  00038	7e 00 00 00 00	 ldsfld ?kakkos@Form1@Mogitter@@1P$01AP$AAVString@System@@A
  0003d	18		 ldc.i.2 2	; i32 0x2
  0003e	06		 ldloc.0 	; $T2
  0003f	a2		 stelem.ref 
  00040	2a		 ret 
 .end ?.cctor@Form1@Mogitter@@$$FSMXXZ			; ?.cctor@Form1@Mogitter@@$$FSMXXZ
;	.proc.end.void
.global	?toEsc@MogiTest@Mogitter@@2P$01AP$AAVString@System@@A ; Mogitter::MogiTest::toEsc
	.bss
.local	?toEsc@MogiTest@Mogitter@@2P$01AP$AAVString@System@@A,4 ; Mogitter::MogiTest::toEsc
.local	$StringLiteralTok$??_C@_13NEIAEHFG@?$AA?$CC?$AA?$AA@,4
.local	$T1,0
; Function compile flags: /Ogsp
; File f:\meijin4\c++\mogitter\mogitter\mogitest.h
	.text
	.comdat	any, ?escapeReady@MogiTest@Mogitter@@$$FSMP$AAVString@System@@P$AAV34@@Z
.global	?escapeReady@MogiTest@Mogitter@@$$FSMP$AAVString@System@@P$AAV34@@Z ; Mogitter::MogiTest::escapeReady
?escapeReady@MogiTest@Mogitter@@$$FSMP$AAVString@System@@P$AAV34@@Z: ; Mogitter::MogiTest::escapeReady
;	.proc.def	D:P(P)

; Function Header:
; max stack depth = 4
; function size = 60 bytes
; local varsig tk = 0x11000020 
; Exception Information:
; 0 handlers, each consisting of filtered handlers

;	.formal.mptr 0,"text$" SIG: string
;	.local.mptr 2,"txt$" SIG: string
;	.local.mptr 1,"$S118$2" SIG: szarray (token:0x3D1E3B5)
;	.local.i4 0,"$I$3" SIG: i4
;	.local.mptr 4,"esc$4" SIG: string
;	.local.i4 3,"$T5" SIG: string

;	.proc.beg

; 558  : 				String^ txt = text;

  0000b	02		 ldarg.0 	; text$
  0000c	0c		 stloc.2 	; txt$

; 559  : 				for each(String^ esc in toEsc){

  0000d	7e 00 00 00 00	 ldsfld ?toEsc@MogiTest@Mogitter@@2P$01AP$AAVString@System@@A
  00012	0b		 stloc.1 	; $S118$2
  00013	16		 ldc.i.0 0	; i32 0x0
  00014	0a		 stloc.0 	; $I$3
  00015	16		 ldc.i.0 0	; i32 0x0
  00016	07		 ldloc.1 	; $S118$2
  00017	8e		 ldlen 
  00018	2f 2c		 bge.s $LN1@escapeRead
$LL3@escapeRead:
  0001b	07		 ldloc.1 	; $S118$2
  0001c	06		 ldloc.0 	; $I$3
  0001d	9a		 ldelem.ref 
  0001e	13 04		 stloc.s 4	; esc$4

; 560  : 					txt = txt->Replace(esc,"\""+esc+"\"");

  00020	72 00 00 00 00	 ldstr $StringLiteralTok$??_C@_13NEIAEHFG@?$AA?$CC?$AA?$AA@
  00025	0d		 stloc.3 	; $T5
  00026	08		 ldloc.2 	; txt$
  00027	11 04		 ldloc.s 4	; esc$4
  00029	09		 ldloc.3 	; $T5
  0002a	11 04		 ldloc.s 4	; esc$4
  0002c	28 00 00 00 00	 call ?Concat@String@System@@$$FSMP$AAV12@P$AAV12@0@Z
  00031	09		 ldloc.3 	; $T5
  00032	28 00 00 00 00	 call ?Concat@String@System@@$$FSMP$AAV12@P$AAV12@0@Z
  00037	28 00 00 00 00	 call ?Replace@String@System@@$$FQ$AAMP$AAV12@P$AAV12@0@Z
  0003c	0c		 stloc.2 	; txt$

; 559  : 				for each(String^ esc in toEsc){

  0003d	06		 ldloc.0 	; $I$3
  0003e	17		 ldc.i.1 1	; i32 0x1
  0003f	58		 add 
  00040	0a		 stloc.0 	; $I$3
  00041	06		 ldloc.0 	; $I$3
  00042	07		 ldloc.1 	; $S118$2
  00043	8e		 ldlen 
  00044	32 d5		 blt.s $LL3@escapeRead
$LN1@escapeRead:

; 561  : 				}
; 562  : 				return txt;

  00046	08		 ldloc.2 	; txt$
  00047	2a		 ret 
 .end ?escapeReady@MogiTest@Mogitter@@$$FSMP$AAVString@System@@P$AAV34@@Z ; Mogitter::MogiTest::escapeReady
;	.proc.end.mptr
	.bss
.local	$StringLiteralTok$??_C@_13EFKPHINO@?$AA?$EA?$AA?$AA@,4
.local	$T1,0
; Function compile flags: /Ogsp
; File f:\meijin4\c++\mogitter\mogitter\mogitest.h
	.text
	.comdat	any, ?escapeSet@MogiTest@Mogitter@@$$FSMP$AAVString@System@@P$AAV34@@Z
.global	?escapeSet@MogiTest@Mogitter@@$$FSMP$AAVString@System@@P$AAV34@@Z ; Mogitter::MogiTest::escapeSet
?escapeSet@MogiTest@Mogitter@@$$FSMP$AAVString@System@@P$AAV34@@Z: ; Mogitter::MogiTest::escapeSet
;	.proc.def	D:P(P)

; Function Header:
; max stack depth = 4
; function size = 124 bytes
; local varsig tk = 0x11000021 
; Exception Information:
; 0 handlers, each consisting of filtered handlers

;	.formal.mptr 0,"text$" SIG: string
;	.local.mptr 3,"txt$" SIG: string
;	.local.i4 2,"i$" SIG: i4
;	.local.mptr 1,"$S119$2" SIG: szarray (token:0x3D1E3B5)
;	.local.i4 0,"$I$3" SIG: i4
;	.local.mptr 5,"esc$4" SIG: string
;	.local.i4 6,"$T5" SIG: i4
;	.local.i4 4,"$T6" SIG: string

;	.proc.beg

; 565  : 				String^ txt = text;

  0000b	02		 ldarg.0 	; text$
  0000c	0d		 stloc.3 	; txt$

; 566  : 				int i=toEsc->Length-1;

  0000d	7e 00 00 00 00	 ldsfld ?toEsc@MogiTest@Mogitter@@2P$01AP$AAVString@System@@A
  00012	8e		 ldlen 
  00013	17		 ldc.i.1 1	; i32 0x1
  00014	59		 sub 
  00015	0c		 stloc.2 	; i$

; 567  : 				System::Array::Reverse(toEsc);

  00016	7e 00 00 00 00	 ldsfld ?toEsc@MogiTest@Mogitter@@2P$01AP$AAVString@System@@A
  0001b	28 00 00 00 00	 call ?Reverse@Array@System@@$$FSMXP$AAV12@@Z

; 568  : 				for each(String^ esc in toEsc){

  00020	7e 00 00 00 00	 ldsfld ?toEsc@MogiTest@Mogitter@@2P$01AP$AAVString@System@@A
  00025	0b		 stloc.1 	; $S119$2
  00026	16		 ldc.i.0 0	; i32 0x0
  00027	0a		 stloc.0 	; $I$3
  00028	16		 ldc.i.0 0	; i32 0x0
  00029	07		 ldloc.1 	; $S119$2
  0002a	8e		 ldlen 
  0002b	2f 4f		 bge.s $LN1@escapeSet
$LL3@escapeSet:
  0002e	07		 ldloc.1 	; $S119$2
  0002f	06		 ldloc.0 	; $I$3
  00030	9a		 ldelem.ref 
  00031	13 05		 stloc.s 5	; esc$4

; 569  : 					txt = txt->Replace("\""+esc+"\"","@"+i.ToString()+"@");

  00033	08		 ldloc.2 	; i$
  00034	13 06		 stloc.s 6	; $T5
  00036	72 00 00 00 00	 ldstr $StringLiteralTok$??_C@_13NEIAEHFG@?$AA?$CC?$AA?$AA@
  0003b	13 04		 stloc.s 4	; $T6
  0003d	09		 ldloc.3 	; txt$
  0003e	11 04		 ldloc.s 4	; $T6
  00040	11 05		 ldloc.s 5	; esc$4
  00042	28 00 00 00 00	 call ?Concat@String@System@@$$FSMP$AAV12@P$AAV12@0@Z
  00047	11 04		 ldloc.s 4	; $T6
  00049	28 00 00 00 00	 call ?Concat@String@System@@$$FSMP$AAV12@P$AAV12@0@Z
  0004e	72 00 00 00 00	 ldstr $StringLiteralTok$??_C@_13EFKPHINO@?$AA?$EA?$AA?$AA@
  00053	12 06		 ldloca.s 6	; $T5
  00055	28 00 00 00 00	 call ?ToString@Int32@System@@$$FU$CAMP$AAVString@2@XZ
  0005a	28 00 00 00 00	 call ?Concat@String@System@@$$FSMP$AAV12@P$AAV12@0@Z
  0005f	72 00 00 00 00	 ldstr $StringLiteralTok$??_C@_13EFKPHINO@?$AA?$EA?$AA?$AA@
  00064	28 00 00 00 00	 call ?Concat@String@System@@$$FSMP$AAV12@P$AAV12@0@Z
  00069	28 00 00 00 00	 call ?Replace@String@System@@$$FQ$AAMP$AAV12@P$AAV12@0@Z
  0006e	0d		 stloc.3 	; txt$

; 570  : 					i--;

  0006f	08		 ldloc.2 	; i$
  00070	17		 ldc.i.1 1	; i32 0x1
  00071	59		 sub 
  00072	0c		 stloc.2 	; i$

; 568  : 				for each(String^ esc in toEsc){

  00073	06		 ldloc.0 	; $I$3
  00074	17		 ldc.i.1 1	; i32 0x1
  00075	58		 add 
  00076	0a		 stloc.0 	; $I$3
  00077	06		 ldloc.0 	; $I$3
  00078	07		 ldloc.1 	; $S119$2
  00079	8e		 ldlen 
  0007a	32 b2		 blt.s $LL3@escapeSet
$LN1@escapeSet:

; 571  : 				}
; 572  : 				System::Array::Reverse(toEsc);

  0007c	7e 00 00 00 00	 ldsfld ?toEsc@MogiTest@Mogitter@@2P$01AP$AAVString@System@@A
  00081	28 00 00 00 00	 call ?Reverse@Array@System@@$$FSMXP$AAV12@@Z

; 573  : 				return txt;

  00086	09		 ldloc.3 	; txt$
  00087	2a		 ret 
 .end ?escapeSet@MogiTest@Mogitter@@$$FSMP$AAVString@System@@P$AAV34@@Z ; Mogitter::MogiTest::escapeSet
;	.proc.end.mptr
	.bss
.local	$T1,0
; Function compile flags: /Ogsp
; File f:\meijin4\c++\mogitter\mogitter\mogitest.h
	.text
	.comdat	any, ?escapeReSet@MogiTest@Mogitter@@$$FSMP$AAVString@System@@P$AAV34@@Z
.global	?escapeReSet@MogiTest@Mogitter@@$$FSMP$AAVString@System@@P$AAV34@@Z ; Mogitter::MogiTest::escapeReSet
?escapeReSet@MogiTest@Mogitter@@$$FSMP$AAVString@System@@P$AAV34@@Z: ; Mogitter::MogiTest::escapeReSet
;	.proc.def	D:P(P)

; Function Header:
; max stack depth = 3
; function size = 68 bytes
; local varsig tk = 0x11000022 
; Exception Information:
; 0 handlers, each consisting of filtered handlers

;	.formal.mptr 0,"text$" SIG: string
;	.local.mptr 2,"txt$" SIG: string
;	.local.mptr 1,"$S120$2" SIG: szarray (token:0x3D1E3B5)
;	.local.i4 0,"$I$3" SIG: i4
;	.local.mptr 3,"esc$4" SIG: string
;	.local.i4 4,"$T5" SIG: i4

;	.proc.beg

; 576  : 				String^ txt = text;

  0000b	02		 ldarg.0 	; text$
  0000c	0c		 stloc.2 	; txt$

; 577  : 				int i=0;
; 578  : 				for each(String^ esc in toEsc){

  0000d	7e 00 00 00 00	 ldsfld ?toEsc@MogiTest@Mogitter@@2P$01AP$AAVString@System@@A
  00012	0b		 stloc.1 	; $S120$2
  00013	16		 ldc.i.0 0	; i32 0x0
  00014	0a		 stloc.0 	; $I$3
  00015	16		 ldc.i.0 0	; i32 0x0
  00016	07		 ldloc.1 	; $S120$2
  00017	8e		 ldlen 
  00018	2f 34		 bge.s $LN1@escapeReSe
$LL3@escapeReSe:
  0001b	07		 ldloc.1 	; $S120$2
  0001c	06		 ldloc.0 	; $I$3
  0001d	9a		 ldelem.ref 
  0001e	0d		 stloc.3 	; esc$4

; 579  : 					txt = txt->Replace("@"+i.ToString()+"@",esc);

  0001f	06		 ldloc.0 	; $I$3
  00020	13 04		 stloc.s 4	; $T5
  00022	08		 ldloc.2 	; txt$
  00023	72 00 00 00 00	 ldstr $StringLiteralTok$??_C@_13EFKPHINO@?$AA?$EA?$AA?$AA@
  00028	12 04		 ldloca.s 4	; $T5
  0002a	28 00 00 00 00	 call ?ToString@Int32@System@@$$FU$CAMP$AAVString@2@XZ
  0002f	28 00 00 00 00	 call ?Concat@String@System@@$$FSMP$AAV12@P$AAV12@0@Z
  00034	72 00 00 00 00	 ldstr $StringLiteralTok$??_C@_13EFKPHINO@?$AA?$EA?$AA?$AA@
  00039	28 00 00 00 00	 call ?Concat@String@System@@$$FSMP$AAV12@P$AAV12@0@Z
  0003e	09		 ldloc.3 	; esc$4
  0003f	28 00 00 00 00	 call ?Replace@String@System@@$$FQ$AAMP$AAV12@P$AAV12@0@Z
  00044	0c		 stloc.2 	; txt$

; 577  : 				int i=0;
; 578  : 				for each(String^ esc in toEsc){

  00045	06		 ldloc.0 	; $I$3
  00046	17		 ldc.i.1 1	; i32 0x1
  00047	58		 add 
  00048	0a		 stloc.0 	; $I$3
  00049	06		 ldloc.0 	; $I$3
  0004a	07		 ldloc.1 	; $S120$2
  0004b	8e		 ldlen 
  0004c	32 cd		 blt.s $LL3@escapeReSe
$LN1@escapeReSe:

; 580  : 					i++;
; 581  : 				}
; 582  : 				return txt;

  0004e	08		 ldloc.2 	; txt$
  0004f	2a		 ret 
 .end ?escapeReSet@MogiTest@Mogitter@@$$FSMP$AAVString@System@@P$AAV34@@Z ; Mogitter::MogiTest::escapeReSet
;	.proc.end.mptr
.global	
.global	?QuestSentence@MogiTest@Mogitter@@3P$AAVAzukiControl@WinForms@Azuki@Sgry@@$AA ; Mogitter::MogiTest::QuestSentence
.global	?userAnswerArea@MogiTest@Mogitter@@3P$AAVAzukiControl@WinForms@Azuki@Sgry@@$AA ; Mogitter::MogiTest::userAnswerArea
.global	?marubatsu@MogiTest@Mogitter@@3P$AAVKeywordHighlighter@Highlighter@Azuki@Sgry@@$AA ; Mogitter::MogiTest::marubatsu
.global	?maru@MogiTest@Mogitter@@3P$01AP$AAVString@System@@A ; Mogitter::MogiTest::maru
.global	?batsu@MogiTest@Mogitter@@3P$01AP$AAVString@System@@A ; Mogitter::MogiTest::batsu
.global	?keikaSec@MogiTest@Mogitter@@3HA		; Mogitter::MogiTest::keikaSec
.global	?keikajikan@MogiTest@Mogitter@@3P$AAVTimer@Forms@Windows@System@@$AA ; Mogitter::MogiTest::keikajikan
	.bss
.local	,4
.local	?QuestSentence@MogiTest@Mogitter@@3P$AAVAzukiControl@WinForms@Azuki@Sgry@@$AA,4 ; Mogitter::MogiTest::QuestSentence
.local	?userAnswerArea@MogiTest@Mogitter@@3P$AAVAzukiControl@WinForms@Azuki@Sgry@@$AA,4 ; Mogitter::MogiTest::userAnswerArea
.local	?marubatsu@MogiTest@Mogitter@@3P$AAVKeywordHighlighter@Highlighter@Azuki@Sgry@@$AA,4 ; Mogitter::MogiTest::marubatsu
.local	?maru@MogiTest@Mogitter@@3P$01AP$AAVString@System@@A,4 ; Mogitter::MogiTest::maru
.local	$StringLiteralTok$??_C@_13EBHBMNOP@?$CF?K?$AA?$AA@,4
.local	?batsu@MogiTest@Mogitter@@3P$01AP$AAVString@System@@A,4 ; Mogitter::MogiTest::batsu
.local	$StringLiteralTok$??_C@_13GFDIKBMD@?$AA?W?$AA?$AA@,4
.local	?keikaSec@MogiTest@Mogitter@@3HA,4		; Mogitter::MogiTest::keikaSec
.local	?keikajikan@MogiTest@Mogitter@@3P$AAVTimer@Forms@Windows@System@@$AA,4 ; Mogitter::MogiTest::keikajikan
.local	$T1,0
; Function compile flags: /Ogsp
; File f:\meijin4\c++\mogitter\mogitter\mogitest.h
	.text
	.comdat	any, ?MogiTest_Load@MogiTest@Mogitter@@$$FA$AAMXP$AAVObject@System@@P$AAVEventArgs@4@@Z
.global	?MogiTest_Load@MogiTest@Mogitter@@$$FA$AAMXP$AAVObject@System@@P$AAVEventArgs@4@@Z ; Mogitter::MogiTest::MogiTest_Load
?MogiTest_Load@MogiTest@Mogitter@@$$FA$AAMXP$AAVObject@System@@P$AAVEventArgs@4@@Z: ; Mogitter::MogiTest::MogiTest_Load
;	.proc.def	D:V(PP)

; Function Header:
; max stack depth = 4
; function size = 287 bytes
; local varsig tk = 0x11000024 
; Exception Information:
; 0 handlers, each consisting of filtered handlers

;	.formal.mptr 0,"this$" SIG: Optional C Binding Modifier(token:0x3D121A5).class (token:0x3D121A8)
;	.local.mb20  9,"$T2" SIG: valueType (token:0x3D28D25)
;	.local.mb20  8,"$T3" SIG: valueType (token:0x3D28D25)
;	.local.mb20  7,"$T4" SIG: valueType (token:0x3D28D25)
;	.local.mb20  6,"$T5" SIG: valueType (token:0x3D28D25)
;	.local.mb20  5,"$T6" SIG: valueType (token:0x3D28D25)
;	.local.mb20  4,"$T7" SIG: valueType (token:0x3D28D25)
;	.local.mb20  3,"$T8" SIG: valueType (token:0x3D28D25)
;	.local.mb20  2,"$T9" SIG: valueType (token:0x3D28D25)
;	.local.i4 1,"$T10" SIG: szarray (token:0x3CD392D)
;	.local.i4 0,"$T11" SIG: szarray (token:0x3CD39C5)

;	.proc.beg

; 772  : 
; 773  : 				 this->QuestSentence->BackColor = System::Drawing::Color::Ivory;

  0000b	28 00 00 00 00	 call ?get@Ivory@Color@Drawing@System@@$$FSM?AV234@XZ
  00010	13 09		 stloc.s 9	; $T2
  00012	02		 ldarg.0 	; this$
  00013	7b 00 00 00 00	 ldfld ?QuestSentence@MogiTest@Mogitter@@3P$AAVAzukiControl@WinForms@Azuki@Sgry@@$AA
  00018	11 09		 ldloc.s 9	; $T2
  0001a	6f 00 00 00 00	 callvirt ?set@BackColor@AzukiControl@WinForms@Azuki@Sgry@@$$FU$AAMXVColor@Drawing@System@@@Z

; 774  : 				 userAnswerArea->BackColor = Color::White;

  0001f	28 00 00 00 00	 call ?get@White@Color@Drawing@System@@$$FSM?AV234@XZ
  00024	13 08		 stloc.s 8	; $T3
  00026	02		 ldarg.0 	; this$
  00027	7b 00 00 00 00	 ldfld ?userAnswerArea@MogiTest@Mogitter@@3P$AAVAzukiControl@WinForms@Azuki@Sgry@@$AA
  0002c	11 08		 ldloc.s 8	; $T3
  0002e	6f 00 00 00 00	 callvirt ?set@BackColor@AzukiControl@WinForms@Azuki@Sgry@@$$FU$AAMXVColor@Drawing@System@@@Z

; 775  : 				 
; 776  : 				marubatsu = 
; 777  : 					gcnew Sgry::Azuki::Highlighter::KeywordHighlighter();

  00033	02		 ldarg.0 	; this$
  00034	73 00 00 00 00	 newobj ??0KeywordHighlighter@Highlighter@Azuki@Sgry@@$$FQ$AAM@XZ
  00039	7d 00 00 00 00	 stfld ?marubatsu@MogiTest@Mogitter@@3P$AAVKeywordHighlighter@Highlighter@Azuki@Sgry@@$AA

; 778  : 				maru = gcnew array<String^>(1);

  0003e	17		 ldc.i.1 1	; i32 0x1
  0003f	8d 00 00 00 00	 newarr $TypeTok$110E9D94$
  00044	0b		 stloc.1 	; $T10
  00045	02		 ldarg.0 	; this$
  00046	07		 ldloc.1 	; $T10
  00047	7d 00 00 00 00	 stfld ?maru@MogiTest@Mogitter@@3P$01AP$AAVString@System@@A

; 779  : 				maru[0] = "○";

  0004c	07		 ldloc.1 	; $T10
  0004d	16		 ldc.i.0 0	; i32 0x0
  0004e	72 00 00 00 00	 ldstr $StringLiteralTok$??_C@_13EBHBMNOP@?$CF?K?$AA?$AA@
  00053	a2		 stelem.ref 

; 780  : 				batsu = gcnew array<String^>(1);

  00054	17		 ldc.i.1 1	; i32 0x1
  00055	8d 00 00 00 00	 newarr $TypeTok$110E9D94$
  0005a	0a		 stloc.0 	; $T11
  0005b	02		 ldarg.0 	; this$
  0005c	06		 ldloc.0 	; $T11
  0005d	7d 00 00 00 00	 stfld ?batsu@MogiTest@Mogitter@@3P$01AP$AAVString@System@@A

; 781  : 				batsu[0] = "×";

  00062	06		 ldloc.0 	; $T11
  00063	16		 ldc.i.0 0	; i32 0x0
  00064	72 00 00 00 00	 ldstr $StringLiteralTok$??_C@_13GFDIKBMD@?$AA?W?$AA?$AA@
  00069	a2		 stelem.ref 

; 782  : 				marubatsu->AddKeywordSet(maru,Sgry::Azuki::CharClass::Function);

  0006a	02		 ldarg.0 	; this$
  0006b	7b 00 00 00 00	 ldfld ?marubatsu@MogiTest@Mogitter@@3P$AAVKeywordHighlighter@Highlighter@Azuki@Sgry@@$AA
  00070	02		 ldarg.0 	; this$
  00071	7b 00 00 00 00	 ldfld ?maru@MogiTest@Mogitter@@3P$01AP$AAVString@System@@A
  00076	1f 21		 ldc.i4.s 33	; u8 0x21
  00078	28 00 00 00 00	 call ?AddKeywordSet@KeywordHighlighter@Highlighter@Azuki@Sgry@@$$FQ$AAMXP$01AP$AAVString@System@@W4CharClass@34@@Z

; 783  : 				marubatsu->AddKeywordSet(batsu,Sgry::Azuki::CharClass::Property);

  0007d	02		 ldarg.0 	; this$
  0007e	7b 00 00 00 00	 ldfld ?marubatsu@MogiTest@Mogitter@@3P$AAVKeywordHighlighter@Highlighter@Azuki@Sgry@@$AA
  00083	02		 ldarg.0 	; this$
  00084	7b 00 00 00 00	 ldfld ?batsu@MogiTest@Mogitter@@3P$01AP$AAVString@System@@A
  00089	1f 0e		 ldc.i4.s 14	; u8 0xe
  0008b	28 00 00 00 00	 call ?AddKeywordSet@KeywordHighlighter@Highlighter@Azuki@Sgry@@$$FQ$AAMXP$01AP$AAVString@System@@W4CharClass@34@@Z

; 784  : 				userAnswerArea->Highlighter = marubatsu;

  00090	02		 ldarg.0 	; this$
  00091	7b 00 00 00 00	 ldfld ?userAnswerArea@MogiTest@Mogitter@@3P$AAVAzukiControl@WinForms@Azuki@Sgry@@$AA
  00096	02		 ldarg.0 	; this$
  00097	7b 00 00 00 00	 ldfld ?marubatsu@MogiTest@Mogitter@@3P$AAVKeywordHighlighter@Highlighter@Azuki@Sgry@@$AA
  0009c	6f 00 00 00 00	 callvirt ?set@Highlighter@AzukiControl@WinForms@Azuki@Sgry@@$$FU$AAMXP$AAUIHighlighter@145@@Z

; 785  : 				userAnswerArea->ColorScheme->SetColor(Sgry::Azuki::CharClass::Function,Color::Red,Color::White);

  000a1	28 00 00 00 00	 call ?get@White@Color@Drawing@System@@$$FSM?AV234@XZ
  000a6	13 07		 stloc.s 7	; $T4
  000a8	28 00 00 00 00	 call ?get@Red@Color@Drawing@System@@$$FSM?AV234@XZ
  000ad	13 06		 stloc.s 6	; $T5
  000af	02		 ldarg.0 	; this$
  000b0	7b 00 00 00 00	 ldfld ?userAnswerArea@MogiTest@Mogitter@@3P$AAVAzukiControl@WinForms@Azuki@Sgry@@$AA
  000b5	6f 00 00 00 00	 callvirt ?get@ColorScheme@AzukiControl@WinForms@Azuki@Sgry@@$$FU$AAMP$AAV145@XZ
  000ba	1f 21		 ldc.i4.s 33	; u8 0x21
  000bc	11 06		 ldloc.s 6	; $T5
  000be	11 07		 ldloc.s 7	; $T4
  000c0	28 00 00 00 00	 call ?SetColor@ColorScheme@Azuki@Sgry@@$$FQ$AAMXW4CharClass@23@VColor@Drawing@System@@1@Z

; 786  : 				userAnswerArea->ColorScheme->SetColor(Sgry::Azuki::CharClass::Property,Color::MediumBlue,Color::White);

  000c5	28 00 00 00 00	 call ?get@White@Color@Drawing@System@@$$FSM?AV234@XZ
  000ca	13 05		 stloc.s 5	; $T6
  000cc	28 00 00 00 00	 call ?get@MediumBlue@Color@Drawing@System@@$$FSM?AV234@XZ
  000d1	13 04		 stloc.s 4	; $T7
  000d3	02		 ldarg.0 	; this$
  000d4	7b 00 00 00 00	 ldfld ?userAnswerArea@MogiTest@Mogitter@@3P$AAVAzukiControl@WinForms@Azuki@Sgry@@$AA
  000d9	6f 00 00 00 00	 callvirt ?get@ColorScheme@AzukiControl@WinForms@Azuki@Sgry@@$$FU$AAMP$AAV145@XZ
  000de	1f 0e		 ldc.i4.s 14	; u8 0xe
  000e0	11 04		 ldloc.s 4	; $T7
  000e2	11 05		 ldloc.s 5	; $T6
  000e4	28 00 00 00 00	 call ?SetColor@ColorScheme@Azuki@Sgry@@$$FQ$AAMXW4CharClass@23@VColor@Drawing@System@@1@Z

; 787  : 				userAnswerArea->ColorScheme->LineNumberFore = Color::Lime;

  000e9	28 00 00 00 00	 call ?get@Lime@Color@Drawing@System@@$$FSM?AV234@XZ
  000ee	0d		 stloc.3 	; $T8
  000ef	02		 ldarg.0 	; this$
  000f0	7b 00 00 00 00	 ldfld ?userAnswerArea@MogiTest@Mogitter@@3P$AAVAzukiControl@WinForms@Azuki@Sgry@@$AA
  000f5	6f 00 00 00 00	 callvirt ?get@ColorScheme@AzukiControl@WinForms@Azuki@Sgry@@$$FU$AAMP$AAV145@XZ
  000fa	09		 ldloc.3 	; $T8
  000fb	7d 00 00 00 00	 stfld ?LineNumberFore@ColorScheme@Azuki@Sgry@@3VColor@Drawing@System@@A

; 788  : 				userAnswerArea->ColorScheme->LineNumberBack = Color::Honeydew;

  00100	28 00 00 00 00	 call ?get@Honeydew@Color@Drawing@System@@$$FSM?AV234@XZ
  00105	0c		 stloc.2 	; $T9
  00106	02		 ldarg.0 	; this$
  00107	7b 00 00 00 00	 ldfld ?userAnswerArea@MogiTest@Mogitter@@3P$AAVAzukiControl@WinForms@Azuki@Sgry@@$AA
  0010c	6f 00 00 00 00	 callvirt ?get@ColorScheme@AzukiControl@WinForms@Azuki@Sgry@@$$FU$AAMP$AAV145@XZ
  00111	08		 ldloc.2 	; $T9
  00112	7d 00 00 00 00	 stfld ?LineNumberBack@ColorScheme@Azuki@Sgry@@3VColor@Drawing@System@@A

; 789  : 
; 790  : 				keikaSec = 0;

  00117	02		 ldarg.0 	; this$
  00118	16		 ldc.i.0 0	; i32 0x0
  00119	7d 00 00 00 00	 stfld ?keikaSec@MogiTest@Mogitter@@3HA

; 791  : 				keikajikan->Start();

  0011e	02		 ldarg.0 	; this$
  0011f	7b 00 00 00 00	 ldfld ?keikajikan@MogiTest@Mogitter@@3P$AAVTimer@Forms@Windows@System@@$AA
  00124	28 00 00 00 00	 call ?Start@Timer@Forms@Windows@System@@$$FQ$AAMXXZ

; 792  : 				 
; 793  : 				 //QNumUpDown->Enabled = false;
; 794  : /*azuki.Resize += delegate {
; 795  :     azuki.ViewWidth = azuki.ClientSize.Width;
; 796  : };*/
; 797  : 			 }

  00129	2a		 ret 
 .end ?MogiTest_Load@MogiTest@Mogitter@@$$FA$AAMXP$AAVObject@System@@P$AAVEventArgs@4@@Z ; Mogitter::MogiTest::MogiTest_Load
;	.proc.end.void
.global	?QNumUpDown@MogiTest@Mogitter@@3P$AAVNumericUpDown@Forms@Windows@System@@$AA ; Mogitter::MogiTest::QNumUpDown
.global	?anaumeGroup@MogiTest@Mogitter@@3P$AAVGroupBox@Forms@Windows@System@@$AA ; Mogitter::MogiTest::anaumeGroup
.global	?sentakuGroup@MogiTest@Mogitter@@3P$AAVGroupBox@Forms@Windows@System@@$AA ; Mogitter::MogiTest::sentakuGroup
.global	?answerStrings@MogiTest@Mogitter@@3P$AAV?$List@P$AAVString@System@@@Generic@Collections@System@@$AA ; Mogitter::MogiTest::answerStrings
.global	?anaumeAnsBox@MogiTest@Mogitter@@3P$AAVRichTextBox@Forms@Windows@System@@$AA ; Mogitter::MogiTest::anaumeAnsBox
	.bss
.local	?QNumUpDown@MogiTest@Mogitter@@3P$AAVNumericUpDown@Forms@Windows@System@@$AA,4 ; Mogitter::MogiTest::QNumUpDown
.local	?anaumeGroup@MogiTest@Mogitter@@3P$AAVGroupBox@Forms@Windows@System@@$AA,4 ; Mogitter::MogiTest::anaumeGroup
.local	?sentakuGroup@MogiTest@Mogitter@@3P$AAVGroupBox@Forms@Windows@System@@$AA,4 ; Mogitter::MogiTest::sentakuGroup
.local	?answerStrings@MogiTest@Mogitter@@3P$AAV?$List@P$AAVString@System@@@Generic@Collections@System@@$AA,4 ; Mogitter::MogiTest::answerStrings
.local	?anaumeAnsBox@MogiTest@Mogitter@@3P$AAVRichTextBox@Forms@Windows@System@@$AA,4 ; Mogitter::MogiTest::anaumeAnsBox
.local	$T1,0
; Function compile flags: /Ogsp
; File f:\meijin4\c++\mogitter\mogitter\mogitest.h
	.text
	.comdat	any, ?anaumeAnsBox_TextChanged@MogiTest@Mogitter@@$$FA$AAMXP$AAVObject@System@@P$AAVEventArgs@4@@Z
.global	?anaumeAnsBox_TextChanged@MogiTest@Mogitter@@$$FA$AAMXP$AAVObject@System@@P$AAVEventArgs@4@@Z ; Mogitter::MogiTest::anaumeAnsBox_TextChanged
?anaumeAnsBox_TextChanged@MogiTest@Mogitter@@$$FA$AAMXP$AAVObject@System@@P$AAVEventArgs@4@@Z: ; Mogitter::MogiTest::anaumeAnsBox_TextChanged
;	.proc.def	D:V(PP)

; Function Header:
; max stack depth = 3
; function size = 188 bytes
; local varsig tk = 0x11000025 
; Exception Information:
; 0 handlers, each consisting of filtered handlers

;	.formal.mptr 0,"this$" SIG: Optional C Binding Modifier(token:0x3D121A5).class (token:0x3D121A8)
;	.local.i4 2,"seleNum$" SIG: i4
;	.local.mptr 1,"buff$2" SIG: string
;	.local.i4 0,"i$3" SIG: i4

;	.proc.beg

; 799  : 				 int seleNum = Decimal::ToInt32(QNumUpDown->Value);

  0000b	02		 ldarg.0 	; this$
  0000c	7b 00 00 00 00	 ldfld ?QNumUpDown@MogiTest@Mogitter@@3P$AAVNumericUpDown@Forms@Windows@System@@$AA
  00011	28 00 00 00 00	 call ?get@Value@NumericUpDown@Forms@Windows@System@@$$FQ$AAM?AVDecimal@5@XZ
  00016	28 00 00 00 00	 call ?ToInt32@Decimal@System@@$$FSMHV12@@Z
  0001b	0c		 stloc.2 	; seleNum$

; 800  : 				 if(seleNum == 0){

  0001c	08		 ldloc.2 	; seleNum$
  0001d	2d 1e		 brtrue.s $LN6@anaumeAnsB

; 801  : 					 anaumeGroup->Enabled = false;

  0001f	02		 ldarg.0 	; this$
  00020	7b 00 00 00 00	 ldfld ?anaumeGroup@MogiTest@Mogitter@@3P$AAVGroupBox@Forms@Windows@System@@$AA
  00025	16		 ldc.i.0 0	; u8 0x0
  00026	28 00 00 00 00	 call ?set@Enabled@Control@Forms@Windows@System@@$$FQ$AAMX_N@Z

; 802  : 					 sentakuGroup->Enabled = false;

  0002b	02		 ldarg.0 	; this$
  0002c	7b 00 00 00 00	 ldfld ?sentakuGroup@MogiTest@Mogitter@@3P$AAVGroupBox@Forms@Windows@System@@$AA
  00031	16		 ldc.i.0 0	; u8 0x0
  00032	28 00 00 00 00	 call ?set@Enabled@Control@Forms@Windows@System@@$$FQ$AAMX_N@Z

; 803  : 				 }else{

  00037	38 8b 00 00 00	 br $LN5@anaumeAnsB
$LN6@anaumeAnsB:

; 804  : 					 if(sentakuGroup->Enabled)

  0003d	02		 ldarg.0 	; this$
  0003e	7b 00 00 00 00	 ldfld ?sentakuGroup@MogiTest@Mogitter@@3P$AAVGroupBox@Forms@Windows@System@@$AA
  00043	28 00 00 00 00	 call ?get@Enabled@Control@Forms@Windows@System@@$$FQ$AAM_NXZ
  00048	3a 7a 00 00 00	 brtrue $LN5@anaumeAnsB

; 805  : 						 return;
; 806  : 					 userAnswerArea->Text = "";

  0004d	02		 ldarg.0 	; this$
  0004e	7b 00 00 00 00	 ldfld ?userAnswerArea@MogiTest@Mogitter@@3P$AAVAzukiControl@WinForms@Azuki@Sgry@@$AA
  00053	72 00 00 00 00	 ldstr $StringLiteralTok$??_C@_11LOCGONAA@?$AA?$AA@
  00058	6f 00 00 00 00	 callvirt ?set@Text@AzukiControl@WinForms@Azuki@Sgry@@$$FU$AAMXP$AAVString@System@@@Z

; 807  : 					 answerStrings[seleNum-1] = anaumeAnsBox->Text;

  0005d	02		 ldarg.0 	; this$
  0005e	7b 00 00 00 00	 ldfld ?answerStrings@MogiTest@Mogitter@@3P$AAV?$List@P$AAVString@System@@@Generic@Collections@System@@$AA
  00063	08		 ldloc.2 	; seleNum$
  00064	17		 ldc.i.1 1	; i32 0x1
  00065	59		 sub 
  00066	02		 ldarg.0 	; this$
  00067	7b 00 00 00 00	 ldfld ?anaumeAnsBox@MogiTest@Mogitter@@3P$AAVRichTextBox@Forms@Windows@System@@$AA
  0006c	6f 00 00 00 00	 callvirt ?get@Text@RichTextBox@Forms@Windows@System@@$$FU$AAMP$AAVString@5@XZ
  00071	6f 00 00 00 00	 callvirt ?set@default@?$List@P$AAVString@System@@@Generic@Collections@System@@$$FU$AAMXHP$AAVString@5@@Z

; 808  : 					 String^ buff = "";

  00076	72 00 00 00 00	 ldstr $StringLiteralTok$??_C@_11LOCGONAA@?$AA?$AA@
  0007b	0b		 stloc.1 	; buff$2

; 809  : 					 for(int i = 0;i<answerStrings->Count;i++){

  0007c	16		 ldc.i.0 0	; i32 0x0
  0007d	0a		 stloc.0 	; i$3
  0007e	16		 ldc.i.0 0	; i32 0x0
  0007f	02		 ldarg.0 	; this$
  00080	7b 00 00 00 00	 ldfld ?answerStrings@MogiTest@Mogitter@@3P$AAV?$List@P$AAVString@System@@@Generic@Collections@System@@$AA
  00085	6f 00 00 00 00	 callvirt ?get@Count@?$List@P$AAVString@System@@@Generic@Collections@System@@$$FU$AAMHXZ
  0008a	2f 2f		 bge.s $LN1@anaumeAnsB
$LL3@anaumeAnsB:

; 810  : 						 buff += answerStrings[i] + "\n";

  0008c	07		 ldloc.1 	; buff$2
  0008d	02		 ldarg.0 	; this$
  0008e	7b 00 00 00 00	 ldfld ?answerStrings@MogiTest@Mogitter@@3P$AAV?$List@P$AAVString@System@@@Generic@Collections@System@@$AA
  00093	06		 ldloc.0 	; i$3
  00094	6f 00 00 00 00	 callvirt ?get@default@?$List@P$AAVString@System@@@Generic@Collections@System@@$$FU$AAMP$AAVString@5@H@Z
  00099	72 00 00 00 00	 ldstr $StringLiteralTok$??_C@_13LBAGMAIH@?$AA?6?$AA?$AA@
  0009e	28 00 00 00 00	 call ?Concat@String@System@@$$FSMP$AAV12@P$AAV12@0@Z
  000a3	28 00 00 00 00	 call ?Concat@String@System@@$$FSMP$AAV12@P$AAV12@0@Z
  000a8	0b		 stloc.1 	; buff$2

; 809  : 					 for(int i = 0;i<answerStrings->Count;i++){

  000a9	06		 ldloc.0 	; i$3
  000aa	17		 ldc.i.1 1	; i32 0x1
  000ab	58		 add 
  000ac	0a		 stloc.0 	; i$3
  000ad	06		 ldloc.0 	; i$3
  000ae	02		 ldarg.0 	; this$
  000af	7b 00 00 00 00	 ldfld ?answerStrings@MogiTest@Mogitter@@3P$AAV?$List@P$AAVString@System@@@Generic@Collections@System@@$AA
  000b4	6f 00 00 00 00	 callvirt ?get@Count@?$List@P$AAVString@System@@@Generic@Collections@System@@$$FU$AAMHXZ
  000b9	32 d1		 blt.s $LL3@anaumeAnsB
$LN1@anaumeAnsB:

; 811  : 					 }
; 812  : 					 userAnswerArea->Text = buff;

  000bb	02		 ldarg.0 	; this$
  000bc	7b 00 00 00 00	 ldfld ?userAnswerArea@MogiTest@Mogitter@@3P$AAVAzukiControl@WinForms@Azuki@Sgry@@$AA
  000c1	07		 ldloc.1 	; buff$2
  000c2	6f 00 00 00 00	 callvirt ?set@Text@AzukiControl@WinForms@Azuki@Sgry@@$$FU$AAMXP$AAVString@System@@@Z
$LN5@anaumeAnsB:

; 813  : 				 }
; 814  : 			 }

  000c7	2a		 ret 
 .end ?anaumeAnsBox_TextChanged@MogiTest@Mogitter@@$$FA$AAMXP$AAVObject@System@@P$AAVEventArgs@4@@Z ; Mogitter::MogiTest::anaumeAnsBox_TextChanged
;	.proc.end.void
.global	?sentakushiCombo@MogiTest@Mogitter@@3P$AAVComboBox@Forms@Windows@System@@$AA ; Mogitter::MogiTest::sentakushiCombo
	.bss
.local	?sentakushiCombo@MogiTest@Mogitter@@3P$AAVComboBox@Forms@Windows@System@@$AA,4 ; Mogitter::MogiTest::sentakushiCombo
.local	$TypeTok$110365EC$,4
.local	$StringLiteralTok$??_C@_1O@HBJEMMOJ@?$AA?$CI?$AAn?$AAo?$AAn?$AAe?$AA?$CJ?$AA?$AA@,4
.local	$T1,0
; Function compile flags: /Ogsp
; File f:\meijin4\c++\mogitter\mogitter\mogitest.h
	.text
	.comdat	any, ?sentakushiCombo_SelectionChangeCommitted@MogiTest@Mogitter@@$$FA$AAMXP$AAVObject@System@@P$AAVEventArgs@4@@Z
.global	?sentakushiCombo_SelectionChangeCommitted@MogiTest@Mogitter@@$$FA$AAMXP$AAVObject@System@@P$AAVEventArgs@4@@Z ; Mogitter::MogiTest::sentakushiCombo_SelectionChangeCommitted
?sentakushiCombo_SelectionChangeCommitted@MogiTest@Mogitter@@$$FA$AAMXP$AAVObject@System@@P$AAVEventArgs@4@@Z: ; Mogitter::MogiTest::sentakushiCombo_SelectionChangeCommitted
;	.proc.def	D:V(PP)

; Function Header:
; max stack depth = 3
; function size = 198 bytes
; local varsig tk = 0x11000026 
; Exception Information:
; 0 handlers, each consisting of filtered handlers

;	.formal.mptr 0,"this$" SIG: Optional C Binding Modifier(token:0x3D121A5).class (token:0x3D121A8)
;	.local.i4 3,"seleNum$" SIG: i4
;	.local.mptr 2,"ansMe$2" SIG: string
;	.local.mptr 1,"buff$3" SIG: string
;	.local.i4 0,"i$4" SIG: i4

;	.proc.beg

; 816  : 				 int seleNum = Decimal::ToInt32(QNumUpDown->Value);

  0000b	02		 ldarg.0 	; this$
  0000c	7b 00 00 00 00	 ldfld ?QNumUpDown@MogiTest@Mogitter@@3P$AAVNumericUpDown@Forms@Windows@System@@$AA
  00011	28 00 00 00 00	 call ?get@Value@NumericUpDown@Forms@Windows@System@@$$FQ$AAM?AVDecimal@5@XZ
  00016	28 00 00 00 00	 call ?ToInt32@Decimal@System@@$$FSMHV12@@Z
  0001b	0d		 stloc.3 	; seleNum$

; 817  : 				 if(seleNum == 0){

  0001c	09		 ldloc.3 	; seleNum$
  0001d	2d 1e		 brtrue.s $LN6@sentakushi

; 818  : 					 anaumeGroup->Enabled = false;

  0001f	02		 ldarg.0 	; this$
  00020	7b 00 00 00 00	 ldfld ?anaumeGroup@MogiTest@Mogitter@@3P$AAVGroupBox@Forms@Windows@System@@$AA
  00025	16		 ldc.i.0 0	; u8 0x0
  00026	28 00 00 00 00	 call ?set@Enabled@Control@Forms@Windows@System@@$$FQ$AAMX_N@Z

; 819  : 					 sentakuGroup->Enabled = false;

  0002b	02		 ldarg.0 	; this$
  0002c	7b 00 00 00 00	 ldfld ?sentakuGroup@MogiTest@Mogitter@@3P$AAVGroupBox@Forms@Windows@System@@$AA
  00031	16		 ldc.i.0 0	; u8 0x0
  00032	28 00 00 00 00	 call ?set@Enabled@Control@Forms@Windows@System@@$$FQ$AAMX_N@Z

; 820  : 				 }else{

  00037	38 95 00 00 00	 br $LN5@sentakushi
$LN6@sentakushi:

; 821  : 					 String^ ansMe = (String^)(sentakushiCombo->SelectedItem);

  0003d	02		 ldarg.0 	; this$
  0003e	7b 00 00 00 00	 ldfld ?sentakushiCombo@MogiTest@Mogitter@@3P$AAVComboBox@Forms@Windows@System@@$AA
  00043	28 00 00 00 00	 call ?get@SelectedItem@ComboBox@Forms@Windows@System@@$$FQ$AAMP$AAVObject@5@XZ
  00048	74 00 00 00 00	 castClass $TypeTok$110365EC$
  0004d	0c		 stloc.2 	; ansMe$2

; 822  : 					 if(ansMe == "(none)")

  0004e	08		 ldloc.2 	; ansMe$2
  0004f	72 00 00 00 00	 ldstr $StringLiteralTok$??_C@_1O@HBJEMMOJ@?$AA?$CI?$AAn?$AAo?$AAn?$AAe?$AA?$CJ?$AA?$AA@
  00054	28 00 00 00 00	 call ??8String@System@@$$FSM_NP$AAV01@0@Z
  00059	2c 06		 brfalse.s $LN4@sentakushi

; 823  : 					 {
; 824  : 						 ansMe = "";

  0005b	72 00 00 00 00	 ldstr $StringLiteralTok$??_C@_11LOCGONAA@?$AA?$AA@
  00060	0c		 stloc.2 	; ansMe$2
$LN4@sentakushi:

; 825  : 					 }
; 826  : 					 userAnswerArea->Text = "";

  00061	02		 ldarg.0 	; this$
  00062	7b 00 00 00 00	 ldfld ?userAnswerArea@MogiTest@Mogitter@@3P$AAVAzukiControl@WinForms@Azuki@Sgry@@$AA
  00067	72 00 00 00 00	 ldstr $StringLiteralTok$??_C@_11LOCGONAA@?$AA?$AA@
  0006c	6f 00 00 00 00	 callvirt ?set@Text@AzukiControl@WinForms@Azuki@Sgry@@$$FU$AAMXP$AAVString@System@@@Z

; 827  : 					 answerStrings[seleNum-1] = ansMe;

  00071	02		 ldarg.0 	; this$
  00072	7b 00 00 00 00	 ldfld ?answerStrings@MogiTest@Mogitter@@3P$AAV?$List@P$AAVString@System@@@Generic@Collections@System@@$AA
  00077	09		 ldloc.3 	; seleNum$
  00078	17		 ldc.i.1 1	; i32 0x1
  00079	59		 sub 
  0007a	08		 ldloc.2 	; ansMe$2
  0007b	6f 00 00 00 00	 callvirt ?set@default@?$List@P$AAVString@System@@@Generic@Collections@System@@$$FU$AAMXHP$AAVString@5@@Z

; 828  : 					 String^ buff = "";

  00080	72 00 00 00 00	 ldstr $StringLiteralTok$??_C@_11LOCGONAA@?$AA?$AA@
  00085	0b		 stloc.1 	; buff$3

; 829  : 					 for(int i = 0;i<answerStrings->Count;i++){

  00086	16		 ldc.i.0 0	; i32 0x0
  00087	0a		 stloc.0 	; i$4
  00088	16		 ldc.i.0 0	; i32 0x0
  00089	02		 ldarg.0 	; this$
  0008a	7b 00 00 00 00	 ldfld ?answerStrings@MogiTest@Mogitter@@3P$AAV?$List@P$AAVString@System@@@Generic@Collections@System@@$AA
  0008f	6f 00 00 00 00	 callvirt ?get@Count@?$List@P$AAVString@System@@@Generic@Collections@System@@$$FU$AAMHXZ
  00094	2f 2f		 bge.s $LN1@sentakushi
$LL3@sentakushi:

; 830  : 						 buff += answerStrings[i] + "\n";

  00096	07		 ldloc.1 	; buff$3
  00097	02		 ldarg.0 	; this$
  00098	7b 00 00 00 00	 ldfld ?answerStrings@MogiTest@Mogitter@@3P$AAV?$List@P$AAVString@System@@@Generic@Collections@System@@$AA
  0009d	06		 ldloc.0 	; i$4
  0009e	6f 00 00 00 00	 callvirt ?get@default@?$List@P$AAVString@System@@@Generic@Collections@System@@$$FU$AAMP$AAVString@5@H@Z
  000a3	72 00 00 00 00	 ldstr $StringLiteralTok$??_C@_13LBAGMAIH@?$AA?6?$AA?$AA@
  000a8	28 00 00 00 00	 call ?Concat@String@System@@$$FSMP$AAV12@P$AAV12@0@Z
  000ad	28 00 00 00 00	 call ?Concat@String@System@@$$FSMP$AAV12@P$AAV12@0@Z
  000b2	0b		 stloc.1 	; buff$3

; 829  : 					 for(int i = 0;i<answerStrings->Count;i++){

  000b3	06		 ldloc.0 	; i$4
  000b4	17		 ldc.i.1 1	; i32 0x1
  000b5	58		 add 
  000b6	0a		 stloc.0 	; i$4
  000b7	06		 ldloc.0 	; i$4
  000b8	02		 ldarg.0 	; this$
  000b9	7b 00 00 00 00	 ldfld ?answerStrings@MogiTest@Mogitter@@3P$AAV?$List@P$AAVString@System@@@Generic@Collections@System@@$AA
  000be	6f 00 00 00 00	 callvirt ?get@Count@?$List@P$AAVString@System@@@Generic@Collections@System@@$$FU$AAMHXZ
  000c3	32 d1		 blt.s $LL3@sentakushi
$LN1@sentakushi:

; 831  : 					 }
; 832  : 					 userAnswerArea->Text = buff;

  000c5	02		 ldarg.0 	; this$
  000c6	7b 00 00 00 00	 ldfld ?userAnswerArea@MogiTest@Mogitter@@3P$AAVAzukiControl@WinForms@Azuki@Sgry@@$AA
  000cb	07		 ldloc.1 	; buff$3
  000cc	6f 00 00 00 00	 callvirt ?set@Text@AzukiControl@WinForms@Azuki@Sgry@@$$FU$AAMXP$AAVString@System@@@Z
$LN5@sentakushi:

; 833  : 				 }
; 834  : 			 }

  000d1	2a		 ret 
 .end ?sentakushiCombo_SelectionChangeCommitted@MogiTest@Mogitter@@$$FA$AAMXP$AAVObject@System@@P$AAVEventArgs@4@@Z ; Mogitter::MogiTest::sentakushiCombo_SelectionChangeCommitted
;	.proc.end.void
.global	
	.bss
.local	,4
.local	$T1,0
; Function compile flags: /Ogsp
; File f:\meijin4\c++\mogitter\mogitter\mogitest.h
	.text
	.comdat	any, ?getLineText@MogiTest@Mogitter@@$$FA$AAMP$AAVString@System@@P$AAVAzukiControl@WinForms@Azuki@Sgry@@H@Z
.global	?getLineText@MogiTest@Mogitter@@$$FA$AAMP$AAVString@System@@P$AAVAzukiControl@WinForms@Azuki@Sgry@@H@Z ; Mogitter::MogiTest::getLineText
?getLineText@MogiTest@Mogitter@@$$FA$AAMP$AAVString@System@@P$AAVAzukiControl@WinForms@Azuki@Sgry@@H@Z: ; Mogitter::MogiTest::getLineText
;	.proc.def	D:P(PI)

; Function Header:
; max stack depth = 4
; function size = 30 bytes
; local varsig tk = 0x11000028 
; Exception Information:
; 0 handlers, each consisting of filtered handlers

;	.formal.i4 2,"lineNum$" SIG: i4
;	.formal.mptr 1,"azuki$" SIG: class (token:0x3D7DA5D)
;	.local.i4 0,"$T2" SIG: i4

;	.proc.beg

; 836  : 				 return azuki->Text->Substring(azuki->GetLineHeadIndex(lineNum-1),azuki->GetLineLength(lineNum-1));

  0000b	04		 ldarg.2 	; lineNum$
  0000c	17		 ldc.i.1 1	; i32 0x1
  0000d	59		 sub 
  0000e	0a		 stloc.0 	; $T2
  0000f	03		 ldarg.1 	; azuki$
  00010	6f 00 00 00 00	 callvirt ?get@Text@AzukiControl@WinForms@Azuki@Sgry@@$$FU$AAMP$AAVString@System@@XZ
  00015	03		 ldarg.1 	; azuki$
  00016	06		 ldloc.0 	; $T2
  00017	6f 00 00 00 00	 callvirt ?GetLineHeadIndex@AzukiControl@WinForms@Azuki@Sgry@@$$FU$AAMHH@Z
  0001c	03		 ldarg.1 	; azuki$
  0001d	06		 ldloc.0 	; $T2
  0001e	6f 00 00 00 00	 callvirt ?GetLineLength@AzukiControl@WinForms@Azuki@Sgry@@$$FU$AAMHH@Z
  00023	28 00 00 00 00	 call ?Substring@String@System@@$$FQ$AAMP$AAV12@HH@Z
  00028	2a		 ret 
 .end ?getLineText@MogiTest@Mogitter@@$$FA$AAMP$AAVString@System@@P$AAVAzukiControl@WinForms@Azuki@Sgry@@H@Z ; Mogitter::MogiTest::getLineText
;	.proc.end.mptr
.global	?questStrings@MogiTest@Mogitter@@3P$AAV?$List@P$AAVString@System@@@Generic@Collections@System@@$AA ; Mogitter::MogiTest::questStrings
	.bss
.local	?questStrings@MogiTest@Mogitter@@3P$AAV?$List@P$AAVString@System@@@Generic@Collections@System@@$AA,4 ; Mogitter::MogiTest::questStrings
.local	$T1,0
; Function compile flags: /Ogsp
; File f:\meijin4\c++\mogitter\mogitter\mogitest.h
	.text
	.comdat	any, ?qnumDoing@MogiTest@Mogitter@@$$FA$AAMXXZ
.global	?qnumDoing@MogiTest@Mogitter@@$$FA$AAMXXZ	; Mogitter::MogiTest::qnumDoing
?qnumDoing@MogiTest@Mogitter@@$$FA$AAMXXZ:		; Mogitter::MogiTest::qnumDoing
;	.proc.def	D:V()

; Function Header:
; max stack depth = 4
; function size = 463 bytes
; local varsig tk = 0x11000029 
; Exception Information:
; 0 handlers, each consisting of filtered handlers

;	.formal.mptr 0,"this$" SIG: Optional C Binding Modifier(token:0x3D121A5).class (token:0x3D121A8)
;	.local.i4 3,"seleNum$" SIG: i4
;	.local.mptr 2,"spliters$2" SIG: szarray (token:0x3D1C00D)
;	.local.mptr 6,"splStrs$3" SIG: szarray (token:0x3D1E3B5)
;	.local.mptr 4,"items$4" SIG: szarray (token:0x3D1E3B5)
;	.local.i4 1,"$I$5" SIG: i4
;	.local.mptr 0,"item$6" SIG: string
;	.local.mptr 5,"alreadyAns$7" SIG: string

;	.proc.beg

; 846  : 				  int seleNum = Decimal::ToInt32(QNumUpDown->Value);

  0000b	02		 ldarg.0 	; this$
  0000c	7b 00 00 00 00	 ldfld ?QNumUpDown@MogiTest@Mogitter@@3P$AAVNumericUpDown@Forms@Windows@System@@$AA
  00011	28 00 00 00 00	 call ?get@Value@NumericUpDown@Forms@Windows@System@@$$FQ$AAM?AVDecimal@5@XZ
  00016	28 00 00 00 00	 call ?ToInt32@Decimal@System@@$$FSMHV12@@Z
  0001b	0d		 stloc.3 	; seleNum$

; 847  : 				 if(seleNum == 0){

  0001c	09		 ldloc.3 	; seleNum$
  0001d	2d 1e		 brtrue.s $LN10@qnumDoing

; 848  : 					 anaumeGroup->Enabled = false;

  0001f	02		 ldarg.0 	; this$
  00020	7b 00 00 00 00	 ldfld ?anaumeGroup@MogiTest@Mogitter@@3P$AAVGroupBox@Forms@Windows@System@@$AA
  00025	16		 ldc.i.0 0	; u8 0x0
  00026	28 00 00 00 00	 call ?set@Enabled@Control@Forms@Windows@System@@$$FQ$AAMX_N@Z

; 849  : 					 sentakuGroup->Enabled = false;

  0002b	02		 ldarg.0 	; this$
  0002c	7b 00 00 00 00	 ldfld ?sentakuGroup@MogiTest@Mogitter@@3P$AAVGroupBox@Forms@Windows@System@@$AA
  00031	16		 ldc.i.0 0	; u8 0x0
  00032	28 00 00 00 00	 call ?set@Enabled@Control@Forms@Windows@System@@$$FQ$AAMX_N@Z

; 850  : 				 }else{

  00037	38 9e 01 00 00	 br $LN1@qnumDoing
$LN10@qnumDoing:

; 851  : 					 String^ seleCombo = escapeSet(questStrings[seleNum-1]);

  0003d	02		 ldarg.0 	; this$
  0003e	7b 00 00 00 00	 ldfld ?questStrings@MogiTest@Mogitter@@3P$AAV?$List@P$AAVString@System@@@Generic@Collections@System@@$AA
  00043	09		 ldloc.3 	; seleNum$
  00044	17		 ldc.i.1 1	; i32 0x1
  00045	59		 sub 
  00046	6f 00 00 00 00	 callvirt ?get@default@?$List@P$AAVString@System@@@Generic@Collections@System@@$$FU$AAMP$AAVString@5@H@Z
  0004b	28 00 00 00 00	 call ?escapeSet@MogiTest@Mogitter@@$$FSMP$AAVString@System@@P$AAV34@@Z

; 852  : 					 array<wchar_t> ^spliters={','};

  00050	17		 ldc.i.1 1	; i32 0x1
  00051	8d 00 00 00 00	 newarr $TypeTok$11003218$
  00056	0c		 stloc.2 	; spliters$2
  00057	08		 ldloc.2 	; spliters$2
  00058	16		 ldc.i.0 0	; i32 0x0
  00059	8f 00 00 00 00	 ldelema $va_argTok$_W
  0005e	1f 2c		 ldc.i4.s 44	; u16 0x2c
  00060	53		 stind.i2 

; 853  : 					 array<String^>^ splStrs = seleCombo->Split(spliters);

  00061	08		 ldloc.2 	; spliters$2
  00062	28 00 00 00 00	 call ?Split@String@System@@$$FQ$AAMP$01AP$AAV12@P$01A_W@Z
  00067	13 06		 stloc.s 6	; splStrs$3

; 854  : 			 //書式："1,(answer)"
; 855  : 			 //書式："4,(ansNum),aaa:bbb:ccc:ddd"
; 856  : 					 if(splStrs->Length>2){

  00069	11 06		 ldloc.s 6	; splStrs$3
  0006b	8e		 ldlen 
  0006c	18		 ldc.i.2 2	; i32 0x2
  0006d	3e e6 00 00 00	 ble $LN8@qnumDoing

; 857  : 						 anaumeGroup->Enabled = false;

  00072	02		 ldarg.0 	; this$
  00073	7b 00 00 00 00	 ldfld ?anaumeGroup@MogiTest@Mogitter@@3P$AAVGroupBox@Forms@Windows@System@@$AA
  00078	16		 ldc.i.0 0	; u8 0x0
  00079	28 00 00 00 00	 call ?set@Enabled@Control@Forms@Windows@System@@$$FQ$AAMX_N@Z

; 858  : 						 sentakuGroup->Enabled = true;

  0007e	02		 ldarg.0 	; this$
  0007f	7b 00 00 00 00	 ldfld ?sentakuGroup@MogiTest@Mogitter@@3P$AAVGroupBox@Forms@Windows@System@@$AA
  00084	17		 ldc.i.1 1	; u8 0x1
  00085	28 00 00 00 00	 call ?set@Enabled@Control@Forms@Windows@System@@$$FQ$AAMX_N@Z

; 859  : 						 anaumeAnsBox->Text = "";//?????						 

  0008a	02		 ldarg.0 	; this$
  0008b	7b 00 00 00 00	 ldfld ?anaumeAnsBox@MogiTest@Mogitter@@3P$AAVRichTextBox@Forms@Windows@System@@$AA
  00090	72 00 00 00 00	 ldstr $StringLiteralTok$??_C@_11LOCGONAA@?$AA?$AA@
  00095	6f 00 00 00 00	 callvirt ?set@Text@RichTextBox@Forms@Windows@System@@$$FU$AAMXP$AAVString@5@@Z

; 860  : 						 spliters[0] = ':';

  0009a	08		 ldloc.2 	; spliters$2
  0009b	16		 ldc.i.0 0	; i32 0x0
  0009c	8f 00 00 00 00	 ldelema $va_argTok$_W
  000a1	1f 3a		 ldc.i4.s 58	; u16 0x3a
  000a3	53		 stind.i2 

; 861  : 						 array<String^>^ items = splStrs[2]->Split(spliters);

  000a4	11 06		 ldloc.s 6	; splStrs$3
  000a6	18		 ldc.i.2 2	; i32 0x2
  000a7	9a		 ldelem.ref 
  000a8	08		 ldloc.2 	; spliters$2
  000a9	28 00 00 00 00	 call ?Split@String@System@@$$FQ$AAMP$01AP$AAV12@P$01A_W@Z
  000ae	13 04		 stloc.s 4	; items$4

; 862  : 						 sentakushiCombo->Items->Clear();

  000b0	02		 ldarg.0 	; this$
  000b1	7b 00 00 00 00	 ldfld ?sentakushiCombo@MogiTest@Mogitter@@3P$AAVComboBox@Forms@Windows@System@@$AA
  000b6	28 00 00 00 00	 call ?get@Items@ComboBox@Forms@Windows@System@@$$FQ$AAMP$AAVObjectCollection@2345@XZ
  000bb	6f 00 00 00 00	 callvirt ?Clear@ObjectCollection@ComboBox@Forms@Windows@System@@$$FU$AAMXXZ

; 863  : 						 sentakushiCombo->Items->Add("(none)");

  000c0	02		 ldarg.0 	; this$
  000c1	7b 00 00 00 00	 ldfld ?sentakushiCombo@MogiTest@Mogitter@@3P$AAVComboBox@Forms@Windows@System@@$AA
  000c6	28 00 00 00 00	 call ?get@Items@ComboBox@Forms@Windows@System@@$$FQ$AAMP$AAVObjectCollection@2345@XZ
  000cb	72 00 00 00 00	 ldstr $StringLiteralTok$??_C@_1O@HBJEMMOJ@?$AA?$CI?$AAn?$AAo?$AAn?$AAe?$AA?$CJ?$AA?$AA@
  000d0	28 00 00 00 00	 call ?Add@ObjectCollection@ComboBox@Forms@Windows@System@@$$FQ$AAMHP$AAVObject@5@@Z
  000d5	26		 pop 

; 864  : 						 for each(String^ item in items){

  000d6	16		 ldc.i.0 0	; i32 0x0
  000d7	0b		 stloc.1 	; $I$5
  000d8	16		 ldc.i.0 0	; i32 0x0
  000d9	11 04		 ldloc.s 4	; items$4
  000db	8e		 ldlen 
  000dc	2f 31		 bge.s $LN5@qnumDoing
$LL7@qnumDoing:
  000de	11 04		 ldloc.s 4	; items$4
  000e0	07		 ldloc.1 	; $I$5
  000e1	9a		 ldelem.ref 
  000e2	0a		 stloc.0 	; item$6

; 865  : 							 item = escapeReSet(item);

  000e3	06		 ldloc.0 	; item$6
  000e4	28 00 00 00 00	 call ?escapeReSet@MogiTest@Mogitter@@$$FSMP$AAVString@System@@P$AAV34@@Z
  000e9	0a		 stloc.0 	; item$6

; 866  : 							 if(item->Length>0)

  000ea	06		 ldloc.0 	; item$6
  000eb	28 00 00 00 00	 call ?get@Length@String@System@@$$FQ$AAMHXZ
  000f0	16		 ldc.i.0 0	; i32 0x0
  000f1	31 12		 ble.s $LN6@qnumDoing

; 867  : 								 sentakushiCombo->Items->Add(item);

  000f3	02		 ldarg.0 	; this$
  000f4	7b 00 00 00 00	 ldfld ?sentakushiCombo@MogiTest@Mogitter@@3P$AAVComboBox@Forms@Windows@System@@$AA
  000f9	28 00 00 00 00	 call ?get@Items@ComboBox@Forms@Windows@System@@$$FQ$AAMP$AAVObjectCollection@2345@XZ
  000fe	06		 ldloc.0 	; item$6
  000ff	28 00 00 00 00	 call ?Add@ObjectCollection@ComboBox@Forms@Windows@System@@$$FQ$AAMHP$AAVObject@5@@Z
  00104	26		 pop 
$LN6@qnumDoing:

; 864  : 						 for each(String^ item in items){

  00105	07		 ldloc.1 	; $I$5
  00106	17		 ldc.i.1 1	; i32 0x1
  00107	58		 add 
  00108	0b		 stloc.1 	; $I$5
  00109	07		 ldloc.1 	; $I$5
  0010a	11 04		 ldloc.s 4	; items$4
  0010c	8e		 ldlen 
  0010d	32 cf		 blt.s $LL7@qnumDoing
$LN5@qnumDoing:

; 868  : 						 }
; 869  : 						 String^ alreadyAns = getLineText(userAnswerArea,seleNum)->Trim();

  0010f	02		 ldarg.0 	; this$
  00110	25		 dup 
  00111	7b 00 00 00 00	 ldfld ?userAnswerArea@MogiTest@Mogitter@@3P$AAVAzukiControl@WinForms@Azuki@Sgry@@$AA
  00116	09		 ldloc.3 	; seleNum$
  00117	28 00 00 00 00	 call ?getLineText@MogiTest@Mogitter@@$$FA$AAMP$AAVString@System@@P$AAVAzukiControl@WinForms@Azuki@Sgry@@H@Z
  0011c	28 00 00 00 00	 call ?Trim@String@System@@$$FQ$AAMP$AAV12@XZ
  00121	13 05		 stloc.s 5	; alreadyAns$7

; 870  : 						 if(alreadyAns->Length == 0)

  00123	11 05		 ldloc.s 5	; alreadyAns$7
  00125	28 00 00 00 00	 call ?get@Length@String@System@@$$FQ$AAMHXZ
  0012a	2d 0e		 brtrue.s $LN3@qnumDoing

; 871  : 							 sentakushiCombo->SelectedIndex = 0;

  0012c	02		 ldarg.0 	; this$
  0012d	7b 00 00 00 00	 ldfld ?sentakushiCombo@MogiTest@Mogitter@@3P$AAVComboBox@Forms@Windows@System@@$AA
  00132	16		 ldc.i.0 0	; i32 0x0
  00133	6f 00 00 00 00	 callvirt ?set@SelectedIndex@ComboBox@Forms@Windows@System@@$$FU$AAMXH@Z

; 872  : 						 else

  00138	2b 0d		 br.s $LN2@qnumDoing
$LN3@qnumDoing:

; 873  : 							 sentakushiCombo->SelectedItem = alreadyAns;

  0013a	02		 ldarg.0 	; this$
  0013b	7b 00 00 00 00	 ldfld ?sentakushiCombo@MogiTest@Mogitter@@3P$AAVComboBox@Forms@Windows@System@@$AA
  00140	11 05		 ldloc.s 5	; alreadyAns$7
  00142	28 00 00 00 00	 call ?set@SelectedItem@ComboBox@Forms@Windows@System@@$$FQ$AAMXP$AAVObject@5@@Z
$LN2@qnumDoing:

; 874  : 						 sentakushiCombo->Focus();

  00147	02		 ldarg.0 	; this$
  00148	7b 00 00 00 00	 ldfld ?sentakushiCombo@MogiTest@Mogitter@@3P$AAVComboBox@Forms@Windows@System@@$AA
  0014d	28 00 00 00 00	 call ?Focus@Control@Forms@Windows@System@@$$FQ$AAM_NXZ
  00152	26		 pop 

; 875  : 					 }else{

  00153	38 82 00 00 00	 br $LN1@qnumDoing
$LN8@qnumDoing:

; 876  : 						 sentakushiCombo->Items->Clear();

  00158	02		 ldarg.0 	; this$
  00159	7b 00 00 00 00	 ldfld ?sentakushiCombo@MogiTest@Mogitter@@3P$AAVComboBox@Forms@Windows@System@@$AA
  0015e	28 00 00 00 00	 call ?get@Items@ComboBox@Forms@Windows@System@@$$FQ$AAMP$AAVObjectCollection@2345@XZ
  00163	6f 00 00 00 00	 callvirt ?Clear@ObjectCollection@ComboBox@Forms@Windows@System@@$$FU$AAMXXZ

; 877  : 
; 878  : 						 sentakuGroup->Enabled = false;

  00168	02		 ldarg.0 	; this$
  00169	7b 00 00 00 00	 ldfld ?sentakuGroup@MogiTest@Mogitter@@3P$AAVGroupBox@Forms@Windows@System@@$AA
  0016e	16		 ldc.i.0 0	; u8 0x0
  0016f	28 00 00 00 00	 call ?set@Enabled@Control@Forms@Windows@System@@$$FQ$AAMX_N@Z

; 879  : 						 anaumeGroup->Enabled = true;

  00174	02		 ldarg.0 	; this$
  00175	7b 00 00 00 00	 ldfld ?anaumeGroup@MogiTest@Mogitter@@3P$AAVGroupBox@Forms@Windows@System@@$AA
  0017a	17		 ldc.i.1 1	; u8 0x1
  0017b	28 00 00 00 00	 call ?set@Enabled@Control@Forms@Windows@System@@$$FQ$AAMX_N@Z

; 880  : 						 anaumeAnsBox->Text = getLineText(userAnswerArea,seleNum)->Trim();

  00180	02		 ldarg.0 	; this$
  00181	7b 00 00 00 00	 ldfld ?anaumeAnsBox@MogiTest@Mogitter@@3P$AAVRichTextBox@Forms@Windows@System@@$AA
  00186	02		 ldarg.0 	; this$
  00187	25		 dup 
  00188	7b 00 00 00 00	 ldfld ?userAnswerArea@MogiTest@Mogitter@@3P$AAVAzukiControl@WinForms@Azuki@Sgry@@$AA
  0018d	09		 ldloc.3 	; seleNum$
  0018e	28 00 00 00 00	 call ?getLineText@MogiTest@Mogitter@@$$FA$AAMP$AAVString@System@@P$AAVAzukiControl@WinForms@Azuki@Sgry@@H@Z
  00193	28 00 00 00 00	 call ?Trim@String@System@@$$FQ$AAMP$AAV12@XZ
  00198	6f 00 00 00 00	 callvirt ?set@Text@RichTextBox@Forms@Windows@System@@$$FU$AAMXP$AAVString@5@@Z

; 881  : 						 anaumeAnsBox->SelectAll();

  0019d	02		 ldarg.0 	; this$
  0019e	7b 00 00 00 00	 ldfld ?anaumeAnsBox@MogiTest@Mogitter@@3P$AAVRichTextBox@Forms@Windows@System@@$AA
  001a3	28 00 00 00 00	 call ?SelectAll@TextBoxBase@Forms@Windows@System@@$$FQ$AAMXXZ

; 882  : //						 if(anaumeAnsBox->Text->Trim()->Length == 0)
; 883  : //							 anaumeAnsBox->Text = "";
; 884  : 						 sentakushiCombo->Items->Clear();

  001a8	02		 ldarg.0 	; this$
  001a9	7b 00 00 00 00	 ldfld ?sentakushiCombo@MogiTest@Mogitter@@3P$AAVComboBox@Forms@Windows@System@@$AA
  001ae	28 00 00 00 00	 call ?get@Items@ComboBox@Forms@Windows@System@@$$FQ$AAMP$AAVObjectCollection@2345@XZ
  001b3	6f 00 00 00 00	 callvirt ?Clear@ObjectCollection@ComboBox@Forms@Windows@System@@$$FU$AAMXXZ

; 885  : 						 sentakushiCombo->Items->Add("(none)");

  001b8	02		 ldarg.0 	; this$
  001b9	7b 00 00 00 00	 ldfld ?sentakushiCombo@MogiTest@Mogitter@@3P$AAVComboBox@Forms@Windows@System@@$AA
  001be	28 00 00 00 00	 call ?get@Items@ComboBox@Forms@Windows@System@@$$FQ$AAMP$AAVObjectCollection@2345@XZ
  001c3	72 00 00 00 00	 ldstr $StringLiteralTok$??_C@_1O@HBJEMMOJ@?$AA?$CI?$AAn?$AAo?$AAn?$AAe?$AA?$CJ?$AA?$AA@
  001c8	28 00 00 00 00	 call ?Add@ObjectCollection@ComboBox@Forms@Windows@System@@$$FQ$AAMHP$AAVObject@5@@Z
  001cd	26		 pop 

; 886  : 						 anaumeAnsBox->Focus();

  001ce	02		 ldarg.0 	; this$
  001cf	7b 00 00 00 00	 ldfld ?anaumeAnsBox@MogiTest@Mogitter@@3P$AAVRichTextBox@Forms@Windows@System@@$AA
  001d4	28 00 00 00 00	 call ?Focus@Control@Forms@Windows@System@@$$FQ$AAM_NXZ
  001d9	26		 pop 
$LN1@qnumDoing:

; 887  : 					 }
; 888  : 				 }
; 889  : 			 }

  001da	2a		 ret 
 .end ?qnumDoing@MogiTest@Mogitter@@$$FA$AAMXXZ		; Mogitter::MogiTest::qnumDoing
;	.proc.end.void
.global	?score@MogiTest@Mogitter@@3HA			; Mogitter::MogiTest::score
.global	?collects@MogiTest@Mogitter@@3P$01AP$AAVString@System@@A ; Mogitter::MogiTest::collects
.global	?qCountField@MogiTest@Mogitter@@3HA		; Mogitter::MogiTest::qCountField
.global	?countUp@MogiTest@Mogitter@@3HA			; Mogitter::MogiTest::countUp
.global	?timer1@MogiTest@Mogitter@@3P$AAVTimer@Forms@Windows@System@@$AA ; Mogitter::MogiTest::timer1
	.bss
.local	?score@MogiTest@Mogitter@@3HA,4			; Mogitter::MogiTest::score
.local	?collects@MogiTest@Mogitter@@3P$01AP$AAVString@System@@A,4 ; Mogitter::MogiTest::collects
.local	?qCountField@MogiTest@Mogitter@@3HA,4		; Mogitter::MogiTest::qCountField
.local	?countUp@MogiTest@Mogitter@@3HA,4		; Mogitter::MogiTest::countUp
.local	$StringLiteralTok$??_C@_13HOIJIPNN@?$AA?5?$AA?$AA@,4
.local	?timer1@MogiTest@Mogitter@@3P$AAVTimer@Forms@Windows@System@@$AA,4 ; Mogitter::MogiTest::timer1
.local	$T1,0
; Function compile flags: /Ogsp
; File f:\meijin4\c++\mogitter\mogitter\mogitest.h
	.text
	.comdat	any, ?marking@MogiTest@Mogitter@@$$FA$AAMXXZ
.global	?marking@MogiTest@Mogitter@@$$FA$AAMXXZ		; Mogitter::MogiTest::marking
?marking@MogiTest@Mogitter@@$$FA$AAMXXZ:		; Mogitter::MogiTest::marking
;	.proc.def	D:V()

; Function Header:
; max stack depth = 6
; function size = 337 bytes
; local varsig tk = 0x1100002A 
; Exception Information:
; 0 handlers, each consisting of filtered handlers

;	.formal.mptr 0,"this$" SIG: Optional C Binding Modifier(token:0x3D121A5).class (token:0x3D121A8)
;	.local.i4 3,"qCount$" SIG: i4
;	.local.i4 0,"i$2" SIG: i4
;	.local.mptr 5,"ans$3" SIG: string
;	.local.mptr 7,"spliters$4" SIG: szarray (token:0x3D1C00D)
;	.local.mptr 2,"kugirin$5" SIG: szarray (token:0x3D1E3B5)
;	.local.mptr 6,"spliters2$6" SIG: szarray (token:0x3D1C00D)
;	.local.i4 1,"i$7" SIG: i4
;	.local.mptr 4,"colKwd$8" SIG: szarray (token:0x3D1E3B5)

;	.proc.beg

; 898  : 				 score = 0;

  0000b	02		 ldarg.0 	; this$
  0000c	16		 ldc.i.0 0	; i32 0x0
  0000d	7d 00 00 00 00	 stfld ?score@MogiTest@Mogitter@@3HA

; 899  : 				 int qCount = questStrings->Count;

  00012	02		 ldarg.0 	; this$
  00013	7b 00 00 00 00	 ldfld ?questStrings@MogiTest@Mogitter@@3P$AAV?$List@P$AAVString@System@@@Generic@Collections@System@@$AA
  00018	6f 00 00 00 00	 callvirt ?get@Count@?$List@P$AAVString@System@@@Generic@Collections@System@@$$FU$AAMHXZ
  0001d	0d		 stloc.3 	; qCount$

; 900  : 				 collects = gcnew array<String^>(qCount);

  0001e	02		 ldarg.0 	; this$
  0001f	09		 ldloc.3 	; qCount$
  00020	8d 00 00 00 00	 newarr $TypeTok$110E9D94$
  00025	7d 00 00 00 00	 stfld ?collects@MogiTest@Mogitter@@3P$01AP$AAVString@System@@A

; 901  : 				 for(int i=0;i<qCount;i++){

  0002a	16		 ldc.i.0 0	; i32 0x0
  0002b	0a		 stloc.0 	; i$2
  0002c	16		 ldc.i.0 0	; i32 0x0
  0002d	09		 ldloc.3 	; qCount$
  0002e	3c 87 00 00 00	 bge $LN6@marking
$LL8@marking:

; 902  : 					 String ^ans="";
; 903  : 					 array<wchar_t> ^spliters = {','};

  00034	17		 ldc.i.1 1	; i32 0x1
  00035	8d 00 00 00 00	 newarr $TypeTok$11003218$
  0003a	13 07		 stloc.s 7	; spliters$4
  0003c	11 07		 ldloc.s 7	; spliters$4
  0003e	16		 ldc.i.0 0	; i32 0x0
  0003f	8f 00 00 00 00	 ldelema $va_argTok$_W
  00044	1f 2c		 ldc.i4.s 44	; u16 0x2c
  00046	53		 stind.i2 

; 904  : 					 array<String^>^ kugirin = escapeSet(questStrings[i])->Split(spliters);

  00047	02		 ldarg.0 	; this$
  00048	7b 00 00 00 00	 ldfld ?questStrings@MogiTest@Mogitter@@3P$AAV?$List@P$AAVString@System@@@Generic@Collections@System@@$AA
  0004d	06		 ldloc.0 	; i$2
  0004e	6f 00 00 00 00	 callvirt ?get@default@?$List@P$AAVString@System@@@Generic@Collections@System@@$$FU$AAMP$AAVString@5@H@Z
  00053	28 00 00 00 00	 call ?escapeSet@MogiTest@Mogitter@@$$FSMP$AAVString@System@@P$AAV34@@Z
  00058	11 07		 ldloc.s 7	; spliters$4
  0005a	28 00 00 00 00	 call ?Split@String@System@@$$FQ$AAMP$01AP$AAV12@P$01A_W@Z
  0005f	0c		 stloc.2 	; kugirin$5

; 905  : 					 if(kugirin->Length > 2){//選択問題

  00060	08		 ldloc.2 	; kugirin$5
  00061	8e		 ldlen 
  00062	18		 ldc.i.2 2	; i32 0x2
  00063	31 36		 ble.s $LN5@marking

; 906  : 						 array<wchar_t> ^spliters2 = {':'};

  00065	17		 ldc.i.1 1	; i32 0x1
  00066	8d 00 00 00 00	 newarr $TypeTok$11003218$
  0006b	13 06		 stloc.s 6	; spliters2$6
  0006d	11 06		 ldloc.s 6	; spliters2$6
  0006f	16		 ldc.i.0 0	; i32 0x0
  00070	8f 00 00 00 00	 ldelema $va_argTok$_W
  00075	1f 3a		 ldc.i4.s 58	; u16 0x3a
  00077	53		 stind.i2 

; 907  : 						 array<String^>^ items = escapeReSet(kugirin[2])->Split(spliters2);

  00078	08		 ldloc.2 	; kugirin$5
  00079	18		 ldc.i.2 2	; i32 0x2
  0007a	9a		 ldelem.ref 
  0007b	28 00 00 00 00	 call ?escapeReSet@MogiTest@Mogitter@@$$FSMP$AAVString@System@@P$AAV34@@Z
  00080	11 06		 ldloc.s 6	; spliters2$6
  00082	28 00 00 00 00	 call ?Split@String@System@@$$FQ$AAMP$01AP$AAV12@P$01A_W@Z

; 908  : 						 ans = items[int::Parse(escapeReSet(kugirin[1]))-1];

  00087	08		 ldloc.2 	; kugirin$5
  00088	17		 ldc.i.1 1	; i32 0x1
  00089	9a		 ldelem.ref 
  0008a	28 00 00 00 00	 call ?escapeReSet@MogiTest@Mogitter@@$$FSMP$AAVString@System@@P$AAV34@@Z
  0008f	28 00 00 00 00	 call ?Parse@Int32@System@@$$FSMHP$AAVString@2@@Z
  00094	17		 ldc.i.1 1	; i32 0x1
  00095	59		 sub 
  00096	9a		 ldelem.ref 
  00097	13 05		 stloc.s 5	; ans$3

; 909  : 					 }else{

  00099	2b 0a		 br.s $LN4@marking
$LN5@marking:

; 910  : 						 ans = escapeReSet(kugirin[1]);

  0009b	08		 ldloc.2 	; kugirin$5
  0009c	17		 ldc.i.1 1	; i32 0x1
  0009d	9a		 ldelem.ref 
  0009e	28 00 00 00 00	 call ?escapeReSet@MogiTest@Mogitter@@$$FSMP$AAVString@System@@P$AAV34@@Z
  000a3	13 05		 stloc.s 5	; ans$3
$LN4@marking:

; 911  : 					 }
; 912  : 					 collects[i] = ans;

  000a5	02		 ldarg.0 	; this$
  000a6	7b 00 00 00 00	 ldfld ?collects@MogiTest@Mogitter@@3P$01AP$AAVString@System@@A
  000ab	06		 ldloc.0 	; i$2
  000ac	11 05		 ldloc.s 5	; ans$3
  000ae	a2		 stelem.ref 

; 901  : 				 for(int i=0;i<qCount;i++){

  000af	06		 ldloc.0 	; i$2
  000b0	17		 ldc.i.1 1	; i32 0x1
  000b1	58		 add 
  000b2	0a		 stloc.0 	; i$2
  000b3	06		 ldloc.0 	; i$2
  000b4	09		 ldloc.3 	; qCount$
  000b5	3f 7a ff ff ff	 blt $LL8@marking
$LN6@marking:

; 913  : 				 }
; 914  : 				 qCountField = qCount;

  000ba	02		 ldarg.0 	; this$
  000bb	09		 ldloc.3 	; qCount$
  000bc	7d 00 00 00 00	 stfld ?qCountField@MogiTest@Mogitter@@3HA

; 915  : 				 countUp = 0;

  000c1	02		 ldarg.0 	; this$
  000c2	16		 ldc.i.0 0	; i32 0x0
  000c3	7d 00 00 00 00	 stfld ?countUp@MogiTest@Mogitter@@3HA

; 916  : 				 userAnswerArea->Font = (gcnew System::Drawing::Font(userAnswerArea->Font->FontFamily, userAnswerArea->Font->Size, FontStyle::Bold, System::Drawing::GraphicsUnit::Point, 
; 917  : 				static_cast<System::Byte>(128)));

  000c8	02		 ldarg.0 	; this$
  000c9	7b 00 00 00 00	 ldfld ?userAnswerArea@MogiTest@Mogitter@@3P$AAVAzukiControl@WinForms@Azuki@Sgry@@$AA
  000ce	02		 ldarg.0 	; this$
  000cf	7b 00 00 00 00	 ldfld ?userAnswerArea@MogiTest@Mogitter@@3P$AAVAzukiControl@WinForms@Azuki@Sgry@@$AA
  000d4	6f 00 00 00 00	 callvirt ?get@Font@AzukiControl@WinForms@Azuki@Sgry@@$$FU$AAMP$AAV1Drawing@System@@XZ
  000d9	28 00 00 00 00	 call ?get@FontFamily@Font@Drawing@System@@$$FQ$AAMP$AAV134@XZ
  000de	02		 ldarg.0 	; this$
  000df	7b 00 00 00 00	 ldfld ?userAnswerArea@MogiTest@Mogitter@@3P$AAVAzukiControl@WinForms@Azuki@Sgry@@$AA
  000e4	6f 00 00 00 00	 callvirt ?get@Font@AzukiControl@WinForms@Azuki@Sgry@@$$FU$AAMP$AAV1Drawing@System@@XZ
  000e9	28 00 00 00 00	 call ?get@Size@Font@Drawing@System@@$$FQ$AAMMXZ
  000ee	17		 ldc.i.1 1	; i32 0x1
  000ef	19		 ldc.i.3 3	; i32 0x3
  000f0	20 80 00 00 00	 ldc.i4 128	; u8 0x80
  000f5	73 00 00 00 00	 newobj ??0Font@Drawing@System@@$$FQ$AAM@P$AAVFontFamily@12@MW4FontStyle@12@W4GraphicsUnit@12@E@Z
  000fa	6f 00 00 00 00	 callvirt ?set@Font@AzukiControl@WinForms@Azuki@Sgry@@$$FU$AAMXP$AAV1Drawing@System@@@Z

; 918  : 				 for(int i=0;i<collects->Length;i++){

  000ff	16		 ldc.i.0 0	; i32 0x0
  00100	0b		 stloc.1 	; i$7
  00101	16		 ldc.i.0 0	; i32 0x0
  00102	02		 ldarg.0 	; this$
  00103	7b 00 00 00 00	 ldfld ?collects@MogiTest@Mogitter@@3P$01AP$AAVString@System@@A
  00108	8e		 ldlen 
  00109	2f 3b		 bge.s $LN1@marking
$LL3@marking:

; 919  : 					 array<String^>^ colKwd = gcnew array<String^>(1);

  0010b	17		 ldc.i.1 1	; i32 0x1
  0010c	8d 00 00 00 00	 newarr $TypeTok$110E9D94$
  00111	13 04		 stloc.s 4	; colKwd$8

; 920  : 					 colKwd[0] = collects[i]+" ";

  00113	11 04		 ldloc.s 4	; colKwd$8
  00115	16		 ldc.i.0 0	; i32 0x0
  00116	02		 ldarg.0 	; this$
  00117	7b 00 00 00 00	 ldfld ?collects@MogiTest@Mogitter@@3P$01AP$AAVString@System@@A
  0011c	07		 ldloc.1 	; i$7
  0011d	9a		 ldelem.ref 
  0011e	72 00 00 00 00	 ldstr $StringLiteralTok$??_C@_13HOIJIPNN@?$AA?5?$AA?$AA@
  00123	28 00 00 00 00	 call ?Concat@String@System@@$$FSMP$AAV12@P$AAV12@0@Z
  00128	a2		 stelem.ref 

; 921  : 					 marubatsu->AddKeywordSet(colKwd,Sgry::Azuki::CharClass::Function);

  00129	02		 ldarg.0 	; this$
  0012a	7b 00 00 00 00	 ldfld ?marubatsu@MogiTest@Mogitter@@3P$AAVKeywordHighlighter@Highlighter@Azuki@Sgry@@$AA
  0012f	11 04		 ldloc.s 4	; colKwd$8
  00131	1f 21		 ldc.i4.s 33	; u8 0x21
  00133	28 00 00 00 00	 call ?AddKeywordSet@KeywordHighlighter@Highlighter@Azuki@Sgry@@$$FQ$AAMXP$01AP$AAVString@System@@W4CharClass@34@@Z

; 918  : 				 for(int i=0;i<collects->Length;i++){

  00138	07		 ldloc.1 	; i$7
  00139	17		 ldc.i.1 1	; i32 0x1
  0013a	58		 add 
  0013b	0b		 stloc.1 	; i$7
  0013c	07		 ldloc.1 	; i$7
  0013d	02		 ldarg.0 	; this$
  0013e	7b 00 00 00 00	 ldfld ?collects@MogiTest@Mogitter@@3P$01AP$AAVString@System@@A
  00143	8e		 ldlen 
  00144	32 c5		 blt.s $LL3@marking
$LN1@marking:

; 922  : 				 }
; 923  : 				 //System::Array::Sort(colKwd);
; 924  : 				 keikajikan->Stop();

  00146	02		 ldarg.0 	; this$
  00147	7b 00 00 00 00	 ldfld ?keikajikan@MogiTest@Mogitter@@3P$AAVTimer@Forms@Windows@System@@$AA
  0014c	28 00 00 00 00	 call ?Stop@Timer@Forms@Windows@System@@$$FQ$AAMXXZ

; 925  : 				 timer1->Start();

  00151	02		 ldarg.0 	; this$
  00152	7b 00 00 00 00	 ldfld ?timer1@MogiTest@Mogitter@@3P$AAVTimer@Forms@Windows@System@@$AA
  00157	28 00 00 00 00	 call ?Start@Timer@Forms@Windows@System@@$$FQ$AAMXXZ

; 926  : 				 return;
; 927  : 			 }

  0015c	2a		 ret 
 .end ?marking@MogiTest@Mogitter@@$$FA$AAMXXZ		; Mogitter::MogiTest::marking
;	.proc.end.void
; Function compile flags: /Ogsp
; File f:\meijin4\c++\mogitter\mogitter\mogitest.h
	.text
	.comdat	any, ?keikajikan_Tick@MogiTest@Mogitter@@$$FA$AAMXP$AAVObject@System@@P$AAVEventArgs@4@@Z
.global	?keikajikan_Tick@MogiTest@Mogitter@@$$FA$AAMXP$AAVObject@System@@P$AAVEventArgs@4@@Z ; Mogitter::MogiTest::keikajikan_Tick
?keikajikan_Tick@MogiTest@Mogitter@@$$FA$AAMXP$AAVObject@System@@P$AAVEventArgs@4@@Z: ; Mogitter::MogiTest::keikajikan_Tick
;	.proc.def	D:V(PP)

; Function Header:
; max stack depth = 3
; function size = 15 bytes
; local varsig tk = 0x0 
; Exception Information:
; 0 handlers, each consisting of filtered handlers

;	.formal.mptr 0,"this$" SIG: Optional C Binding Modifier(token:0x3D121A5).class (token:0x3D121A8)

;	.proc.beg

; 982  : 				 keikaSec++;

  0000b	02		 ldarg.0 	; this$
  0000c	25		 dup 
  0000d	7b 00 00 00 00	 ldfld ?keikaSec@MogiTest@Mogitter@@3HA
  00012	17		 ldc.i.1 1	; i32 0x1
  00013	58		 add 
  00014	7d 00 00 00 00	 stfld ?keikaSec@MogiTest@Mogitter@@3HA

; 983  : 			 }

  00019	2a		 ret 
 .end ?keikajikan_Tick@MogiTest@Mogitter@@$$FA$AAMXP$AAVObject@System@@P$AAVEventArgs@4@@Z ; Mogitter::MogiTest::keikajikan_Tick
;	.proc.end.void
	.bss
.local	$T1,0
; Function compile flags: /Ogsp
; File f:\meijin4\c++\mogitter\mogitter\mogitest.h
	.text
	.comdat	any, ?QuestSentence_SizeChanged@MogiTest@Mogitter@@$$FA$AAMXP$AAVObject@System@@P$AAVEventArgs@4@@Z
.global	?QuestSentence_SizeChanged@MogiTest@Mogitter@@$$FA$AAMXP$AAVObject@System@@P$AAVEventArgs@4@@Z ; Mogitter::MogiTest::QuestSentence_SizeChanged
?QuestSentence_SizeChanged@MogiTest@Mogitter@@$$FA$AAMXP$AAVObject@System@@P$AAVEventArgs@4@@Z: ; Mogitter::MogiTest::QuestSentence_SizeChanged
;	.proc.def	D:V(PP)

; Function Header:
; max stack depth = 2
; function size = 31 bytes
; local varsig tk = 0x1100002B 
; Exception Information:
; 0 handlers, each consisting of filtered handlers

;	.formal.mptr 0,"this$" SIG: Optional C Binding Modifier(token:0x3D121A5).class (token:0x3D121A8)
;	.local.mb8   0,"$T2" SIG: valueType (token:0x3D1E7AD)

;	.proc.beg

; 998  : 				 QuestSentence->ViewWidth = QuestSentence->ClientSize.Width;

  0000b	02		 ldarg.0 	; this$
  0000c	7b 00 00 00 00	 ldfld ?QuestSentence@MogiTest@Mogitter@@3P$AAVAzukiControl@WinForms@Azuki@Sgry@@$AA
  00011	28 00 00 00 00	 call ?get@ClientSize@Control@Forms@Windows@System@@$$FQ$AAM?AVSize@Drawing@5@XZ
  00016	0a		 stloc.0 	; $T2
  00017	02		 ldarg.0 	; this$
  00018	7b 00 00 00 00	 ldfld ?QuestSentence@MogiTest@Mogitter@@3P$AAVAzukiControl@WinForms@Azuki@Sgry@@$AA
  0001d	12 00		 ldloca.s 0	; $T2
  0001f	28 00 00 00 00	 call ?get@Width@Size@Drawing@System@@$$FQ$CAMHXZ
  00024	6f 00 00 00 00	 callvirt ?set@ViewWidth@AzukiControl@WinForms@Azuki@Sgry@@$$FU$AAMXH@Z

; 999  : 			 }

  00029	2a		 ret 
 .end ?QuestSentence_SizeChanged@MogiTest@Mogitter@@$$FA$AAMXP$AAVObject@System@@P$AAVEventArgs@4@@Z ; Mogitter::MogiTest::QuestSentence_SizeChanged
;	.proc.end.void
; Function compile flags: /Ogsp
; File f:\meijin4\c++\mogitter\mogitter\mogitest.h
	.text
	.comdat	any, ?endMenuItem_Click@MogiTest@Mogitter@@$$FA$AAMXP$AAVObject@System@@P$AAVEventArgs@4@@Z
.global	?endMenuItem_Click@MogiTest@Mogitter@@$$FA$AAMXP$AAVObject@System@@P$AAVEventArgs@4@@Z ; Mogitter::MogiTest::endMenuItem_Click
?endMenuItem_Click@MogiTest@Mogitter@@$$FA$AAMXP$AAVObject@System@@P$AAVEventArgs@4@@Z: ; Mogitter::MogiTest::endMenuItem_Click
;	.proc.def	D:V(PP)

; Function Header:
; max stack depth = 1
; function size = 7 bytes
; local varsig tk = 0x0 
; Exception Information:
; 0 handlers, each consisting of filtered handlers

;	.formal.mptr 0,"this$" SIG: Optional C Binding Modifier(token:0x3D121A5).class (token:0x3D121A8)

;	.proc.beg

; 1001 : 				 this->Close();

  0000b	02		 ldarg.0 	; this$
  0000c	28 00 00 00 00	 call ?Close@Form@Forms@Windows@System@@$$FQ$AAMXXZ

; 1002 : 			 }

  00011	2a		 ret 
 .end ?endMenuItem_Click@MogiTest@Mogitter@@$$FA$AAMXP$AAVObject@System@@P$AAVEventArgs@4@@Z ; Mogitter::MogiTest::endMenuItem_Click
;	.proc.end.void
; Function compile flags: /Ogsp
; File f:\meijin4\c++\mogitter\mogitter\mogitest.h
	.text
	.comdat	any, ?exportMenuItem_Click@MogiTest@Mogitter@@$$FA$AAMXP$AAVObject@System@@P$AAVEventArgs@4@@Z
.global	?exportMenuItem_Click@MogiTest@Mogitter@@$$FA$AAMXP$AAVObject@System@@P$AAVEventArgs@4@@Z ; Mogitter::MogiTest::exportMenuItem_Click
?exportMenuItem_Click@MogiTest@Mogitter@@$$FA$AAMXP$AAVObject@System@@P$AAVEventArgs@4@@Z: ; Mogitter::MogiTest::exportMenuItem_Click
;	.proc.def	D:V(PP)

; Function Header:
; max stack depth = 0
; function size = 1 bytes
; local varsig tk = 0x0 
; Exception Information:
; 0 handlers, each consisting of filtered handlers


;	.proc.beg

; 1014 : 			 }

  0000b	2a		 ret 
 .end ?exportMenuItem_Click@MogiTest@Mogitter@@$$FA$AAMXP$AAVObject@System@@P$AAVEventArgs@4@@Z ; Mogitter::MogiTest::exportMenuItem_Click
;	.proc.end.void
.global	
.global	
.global	?cancel@QBuild@Mogitter@@3P$AAVButton@Forms@Windows@System@@$AA ; Mogitter::QBuild::cancel
.global	?okButton@QBuild@Mogitter@@3P$AAVButton@Forms@Windows@System@@$AA ; Mogitter::QBuild::okButton
.global	?label1@QBuild@Mogitter@@3P$AAVLabel@Forms@Windows@System@@$AA ; Mogitter::QBuild::label1
.global	?sentakuGroup@QBuild@Mogitter@@3P$AAVGroupBox@Forms@Windows@System@@$AA ; Mogitter::QBuild::sentakuGroup
.global	?label5@QBuild@Mogitter@@3P$AAVLabel@Forms@Windows@System@@$AA ; Mogitter::QBuild::label5
.global	?label4@QBuild@Mogitter@@3P$AAVLabel@Forms@Windows@System@@$AA ; Mogitter::QBuild::label4
.global	?label3@QBuild@Mogitter@@3P$AAVLabel@Forms@Windows@System@@$AA ; Mogitter::QBuild::label3
.global	?katakana_abc@QBuild@Mogitter@@3P$AAVRadioButton@Forms@Windows@System@@$AA ; Mogitter::QBuild::katakana_abc
.global	?kana_abc@QBuild@Mogitter@@3P$AAVRadioButton@Forms@Windows@System@@$AA ; Mogitter::QBuild::kana_abc
.global	?ABC_@QBuild@Mogitter@@3P$AAVRadioButton@Forms@Windows@System@@$AA ; Mogitter::QBuild::ABC_
.global	?abc@QBuild@Mogitter@@3P$AAVRadioButton@Forms@Windows@System@@$AA ; Mogitter::QBuild::abc
.global	?label2@QBuild@Mogitter@@3P$AAVLabel@Forms@Windows@System@@$AA ; Mogitter::QBuild::label2
.global	?panel1@QBuild@Mogitter@@3P$AAVPanel@Forms@Windows@System@@$AA ; Mogitter::QBuild::panel1
	.bss
.local	,4
.local	,4
.local	?cancel@QBuild@Mogitter@@3P$AAVButton@Forms@Windows@System@@$AA,4 ; Mogitter::QBuild::cancel
.local	?okButton@QBuild@Mogitter@@3P$AAVButton@Forms@Windows@System@@$AA,4 ; Mogitter::QBuild::okButton
.local	?label1@QBuild@Mogitter@@3P$AAVLabel@Forms@Windows@System@@$AA,4 ; Mogitter::QBuild::label1
.local	?sentakuGroup@QBuild@Mogitter@@3P$AAVGroupBox@Forms@Windows@System@@$AA,4 ; Mogitter::QBuild::sentakuGroup
.local	?label5@QBuild@Mogitter@@3P$AAVLabel@Forms@Windows@System@@$AA,4 ; Mogitter::QBuild::label5
.local	?label4@QBuild@Mogitter@@3P$AAVLabel@Forms@Windows@System@@$AA,4 ; Mogitter::QBuild::label4
.local	?label3@QBuild@Mogitter@@3P$AAVLabel@Forms@Windows@System@@$AA,4 ; Mogitter::QBuild::label3
.local	?katakana_abc@QBuild@Mogitter@@3P$AAVRadioButton@Forms@Windows@System@@$AA,4 ; Mogitter::QBuild::katakana_abc
.local	?kana_abc@QBuild@Mogitter@@3P$AAVRadioButton@Forms@Windows@System@@$AA,4 ; Mogitter::QBuild::kana_abc
.local	?ABC_@QBuild@Mogitter@@3P$AAVRadioButton@Forms@Windows@System@@$AA,4 ; Mogitter::QBuild::ABC_
.local	?abc@QBuild@Mogitter@@3P$AAVRadioButton@Forms@Windows@System@@$AA,4 ; Mogitter::QBuild::abc
.local	?label2@QBuild@Mogitter@@3P$AAVLabel@Forms@Windows@System@@$AA,4 ; Mogitter::QBuild::label2
.local	?panel1@QBuild@Mogitter@@3P$AAVPanel@Forms@Windows@System@@$AA,4 ; Mogitter::QBuild::panel1
.local	$StringLiteralTok$??_C@_19HMEDOBKD@0?a0?$KE0?j0?$KK?$AA?$AA@,4
.local	$StringLiteralTok$??_C@_1O@NFIMEJGE@?$AAc?$AAa?$AAn?$AAc?$AAe?$AAl?$AA?$AA@,4
.local	$StringLiteralTok$??_C@_1M@JFEDHPLI@0?$KN0?c0?s0?$LL0?k?$AA?$AA@,4
.local	$StringLiteralTok$??_C@_1BC@DBHLIDP@?$AAo?$AAk?$AAB?$AAu?$AAt?$AAt?$AAo?$AAn?$AA?$AA@,4
.local	$StringLiteralTok$??_C@_15PMCGDJNJ@?$AAO?$AAK?$AA?$AA@,4
.local	$StringLiteralTok$??_C@_1BE@EDHPNFEP@?$AAa?$AAn?$AAs?$AAw?$AAe?$AAr?$AAB?$AAo?$AAx?$AA?$AA@,4
.local	$StringLiteralTok$??_C@_1O@EBCDJCCM@?$AAl?$AAa?$AAb?$AAe?$AAl?$AA1?$AA?$AA@,4
.local	$StringLiteralTok$??_C@_17BCCNLFBM@?$IJ?c?$HLT?$PP?$BK?$AA?$AA@,4
.local	$StringLiteralTok$??_C@_1BK@PBOPCCAN@?$AAs?$AAe?$AAn?$AAt?$AAa?$AAk?$AAu?$AAG?$AAr?$AAo?$AAu?$AAp?$AA?$AA@,4
.local	$StringLiteralTok$??_C@_1DK@LEKCMHN@?$JAxb?$JOUO?$JIL0?$KK0?W0?$LH0?g0?s?$AA?$CIztW?K0?$IBUO?$JIL0?$JCO?2b?$BA0Y0?$IL0h0M0o?$IK?$BIQeN?$AN?$IJ?$IB?$AA?$CJ?$AA?$AA@,4
.local	$StringLiteralTok$??_C@_1BG@KMJDFGBH@?$AAs?$AAe?$AAn?$AAt?$AAa?$AAk?$AAu?$AAs?$AAh?$AAi?$AA?$AA@,4
.local	$TypeTok$110E9E58$,4
.local	$StringLiteralTok$??_C@_1BK@HHEMDAEM@?$AAs?$AAe?$AAi?$AAk?$AAa?$AAi?$AAN?$AAu?$AAm?$AAb?$AAe?$AAr?$AA?$AA@,4
.local	$StringLiteralTok$??_C@_1O@MOEBAFHL@?$AAl?$AAa?$AAb?$AAe?$AAl?$AA5?$AA?$AA@,4
.local	$StringLiteralTok$??_C@_1CA@NAKEPKNH@kc?$IJ?cN?eY?$BG0n?$JAxb?$JO?$IA?$KC?$AA?$CIT?$AE?$IIL0k?$PP?$BB0d?$AA?$CJ?$AA?$AA@,4
.local	$StringLiteralTok$??_C@_1O@HGPNGCBO@?$AAl?$AAa?$AAb?$AAe?$AAl?$AA4?$AA?$AA@,4
.local	$StringLiteralTok$??_C@_1M@NCNJOIHJ@ujv?n0k0Y0?$IL?$AA?$AA@,4
.local	$StringLiteralTok$??_C@_1O@OLCKFKKH@?$AAl?$AAa?$AAb?$AAe?$AAl?$AA3?$AA?$AA@,4
.local	$StringLiteralTok$??_C@_17FCAMOIKB@kc?$IJ?c0?$JC?$AA?$AA@,4
.local	$StringLiteralTok$??_C@_1BK@FJNMECFH@?$AAk?$AAa?$AAt?$AAa?$AAk?$AAa?$AAn?$AAa?$AA_?$AAa?$AAb?$AAc?$AA?$AA@,4
.local	$StringLiteralTok$??_C@_1BE@ELJFCLDL@0?$KC?$AA?00?$KE?$AA?00?$KG?$AA?0?$PPe?$PPe?$PPe?$AA?$AA@,4
.local	$StringLiteralTok$??_C@_1BC@NJJBOGAI@?$AAk?$AAa?$AAn?$AAa?$AA_?$AAa?$AAb?$AAc?$AA?$AA@,4
.local	$StringLiteralTok$??_C@_1BE@CCEJPIJB@0B?$AA?00D?$AA?00F?$AA?0?$PPe?$PPe?$PPe?$AA?$AA@,4
.local	$StringLiteralTok$??_C@_19BMBHFJLB@?$AAA?$AAB?$AAC?$AA_?$AA?$AA@,4
.local	$StringLiteralTok$??_C@_1BE@JHNJAMHM@?$AAA?$AA?0?$AAB?$AA?0?$AAC?$AA?0?$PPe?$PPe?$PPe?$AA?$AA@,4
.local	$StringLiteralTok$??_C@_17OKDDHGAP@?$AAa?$AAb?$AAc?$AA?$AA@,4
.local	$StringLiteralTok$??_C@_1BE@ICCLPMPC@?$AAa?$AA?0?$AAb?$AA?0?$AAc?$AA?0?$PPe?$PPe?$PPe?$AA?$AA@,4
.local	$StringLiteralTok$??_C@_1O@FDJGDNMC@?$AAl?$AAa?$AAb?$AAe?$AAl?$AA2?$AA?$AA@,4
.local	$StringLiteralTok$??_C@_17OPPNKABI@?$IK?$BIS?w?$PP?$BK?$AA?$AA@,4
.local	$StringLiteralTok$??_C@_1O@BHFINPOD@?$AAp?$AAa?$AAn?$AAe?$AAl?$AA1?$AA?$AA@,4
.local	$StringLiteralTok$??_C@_1O@FMKONPIF@?$AAQ?$AAB?$AAu?$AAi?$AAl?$AAd?$AA?$AA@,4
.local	$StringLiteralTok$??_C@_19FDLBGPKB@UO?$JILO?2b?$BA?$AA?$AA@,4
.local	$T1,0
; Function compile flags: /Ogsp
; File f:\meijin4\c++\mogitter\mogitter\qbuild.h
	.text
	.comdat	any, ?InitializeComponent@QBuild@Mogitter@@$$FA$AAMXXZ
.global	?InitializeComponent@QBuild@Mogitter@@$$FA$AAMXXZ ; Mogitter::QBuild::InitializeComponent
?InitializeComponent@QBuild@Mogitter@@$$FA$AAMXXZ:	; Mogitter::QBuild::InitializeComponent
;	.proc.def	D:V()

; Function Header:
; max stack depth = 6
; function size = 3451 bytes
; local varsig tk = 0x1100002E 
; Exception Information:
; 0 handlers, each consisting of filtered handlers

;	.formal.mptr 0,"this$" SIG: Optional C Binding Modifier(token:0x3D19CDD).class (token:0x3D19CE0)
;	.local.mptr 3,"fontInfo2$" SIG: class (token:0x3D1E795)
;	.local.mb8   47,"$S1$" SIG: valueType (token:0x3D1E7B5)
;	.local.mb8   46,"$S2$" SIG: valueType (token:0x3D1E7AD)
;	.local.mb20  45,"$T2" SIG: valueType (token:0x3D28D25)
;	.local.mb8   44,"$S3$" SIG: valueType (token:0x3D1E7B5)
;	.local.mb8   43,"$S4$" SIG: valueType (token:0x3D1E7AD)
;	.local.mb8   42,"$S5$" SIG: valueType (token:0x3D1E7B5)
;	.local.mb8   41,"$S6$" SIG: valueType (token:0x3D1E7AD)
;	.local.mb8   40,"$S7$" SIG: valueType (token:0x3D1E7B5)
;	.local.mb8   39,"$S8$" SIG: valueType (token:0x3D1E7AD)
;	.local.mb8   38,"$S9$" SIG: valueType (token:0x3D1E7B5)
;	.local.mb8   37,"$S10$" SIG: valueType (token:0x3D1E7AD)
;	.local.mb20  36,"$T3" SIG: valueType (token:0x3D28D25)
;	.local.mb20  35,"$T4" SIG: valueType (token:0x3D28D25)
;	.local.mb8   34,"$S11$" SIG: valueType (token:0x3D1E7B5)
;	.local.mb8   33,"$S12$" SIG: valueType (token:0x3D1E7B5)
;	.local.mb8   32,"$S13$" SIG: valueType (token:0x3D1E7AD)
;	.local.mb20  31,"$T5" SIG: valueType (token:0x3D28D25)
;	.local.mb20  30,"$T6" SIG: valueType (token:0x3D28D25)
;	.local.mb8   29,"$S14$" SIG: valueType (token:0x3D1E7B5)
;	.local.mptr 2,"$S15$" SIG: szarray (token:0x3D1EB2D)
;	.local.mb16  28,"$T7" SIG: valueType (token:0x3D226AD)
;	.local.mptr 1,"$S16$" SIG: szarray (token:0x3D1EB2D)
;	.local.mb16  27,"$T8" SIG: valueType (token:0x3D226AD)
;	.local.mb8   26,"$S17$" SIG: valueType (token:0x3D1E7AD)
;	.local.mptr 0,"$S18$" SIG: szarray (token:0x3D1EB2D)
;	.local.mb16  25,"$T9" SIG: valueType (token:0x3D226AD)
;	.local.mb8   24,"$S19$" SIG: valueType (token:0x3D1E7B5)
;	.local.mb8   23,"$S20$" SIG: valueType (token:0x3D1E7AD)
;	.local.mb8   22,"$S21$" SIG: valueType (token:0x3D1E7B5)
;	.local.mb8   21,"$S22$" SIG: valueType (token:0x3D1E7AD)
;	.local.mb8   20,"$S23$" SIG: valueType (token:0x3D1E7B5)
;	.local.mb8   19,"$S24$" SIG: valueType (token:0x3D1E7AD)
;	.local.mb8   18,"$S25$" SIG: valueType (token:0x3D1E7B5)
;	.local.mb8   17,"$S26$" SIG: valueType (token:0x3D1E7AD)
;	.local.mb8   16,"$S27$" SIG: valueType (token:0x3D1E7B5)
;	.local.mb8   15,"$S28$" SIG: valueType (token:0x3D1E7AD)
;	.local.mb8   14,"$S29$" SIG: valueType (token:0x3D1E7B5)
;	.local.mb8   13,"$S30$" SIG: valueType (token:0x3D1E7AD)
;	.local.mb8   12,"$S31$" SIG: valueType (token:0x3D1E7B5)
;	.local.mb8   11,"$S32$" SIG: valueType (token:0x3D1E7AD)
;	.local.mb8   10,"$S33$" SIG: valueType (token:0x3D1E7B5)
;	.local.mb8   9,"$S34$" SIG: valueType (token:0x3D1E7AD)
;	.local.mb20  8,"$T10" SIG: valueType (token:0x3D28D25)
;	.local.mb8   7,"$S35$" SIG: valueType (token:0x3D1E7B5)
;	.local.mb8   6,"$S36$" SIG: valueType (token:0x3D1E7AD)
;	.local.mb8   5,"$S37$" SIG: valueType (token:0x3D1EBAD)
;	.local.mb8   4,"$S38$" SIG: valueType (token:0x3D1E7AD)

;	.proc.beg

; 107  : 			Sgry::Azuki::FontInfo^  fontInfo2 = (gcnew Sgry::Azuki::FontInfo());

  0000b	73 00 00 00 00	 newobj ??0FontInfo@Azuki@Sgry@@$$FQ$AAM@XZ
  00010	0d		 stloc.3 	; fontInfo2$

; 108  : 			this->cancel = (gcnew System::Windows::Forms::Button());

  00011	02		 ldarg.0 	; this$
  00012	73 00 00 00 00	 newobj ??0Button@Forms@Windows@System@@$$FQ$AAM@XZ
  00017	7d 00 00 00 00	 stfld ?cancel@QBuild@Mogitter@@3P$AAVButton@Forms@Windows@System@@$AA

; 109  : 			this->okButton = (gcnew System::Windows::Forms::Button());

  0001c	02		 ldarg.0 	; this$
  0001d	73 00 00 00 00	 newobj ??0Button@Forms@Windows@System@@$$FQ$AAM@XZ
  00022	7d 00 00 00 00	 stfld ?okButton@QBuild@Mogitter@@3P$AAVButton@Forms@Windows@System@@$AA

; 110  : 			this->answerBox = (gcnew System::Windows::Forms::TextBox());

  00027	02		 ldarg.0 	; this$
  00028	73 00 00 00 00	 newobj ??0TextBox@Forms@Windows@System@@$$FQ$AAM@XZ
  0002d	7d 00 00 00 00	 stfld ?answerBox@QBuild@Mogitter@@3P$AAVTextBox@Forms@Windows@System@@$AA

; 111  : 			this->label1 = (gcnew System::Windows::Forms::Label());

  00032	02		 ldarg.0 	; this$
  00033	73 00 00 00 00	 newobj ??0Label@Forms@Windows@System@@$$FQ$AAM@XZ
  00038	7d 00 00 00 00	 stfld ?label1@QBuild@Mogitter@@3P$AAVLabel@Forms@Windows@System@@$AA

; 112  : 			this->sentakuGroup = (gcnew System::Windows::Forms::GroupBox());

  0003d	02		 ldarg.0 	; this$
  0003e	73 00 00 00 00	 newobj ??0GroupBox@Forms@Windows@System@@$$FQ$AAM@XZ
  00043	7d 00 00 00 00	 stfld ?sentakuGroup@QBuild@Mogitter@@3P$AAVGroupBox@Forms@Windows@System@@$AA

; 113  : 			this->sentakushi = (gcnew Sgry::Azuki::WinForms::AzukiControl());

  00048	02		 ldarg.0 	; this$
  00049	73 00 00 00 00	 newobj ??0AzukiControl@WinForms@Azuki@Sgry@@$$FQ$AAM@XZ
  0004e	7d 00 00 00 00	 stfld ?sentakushi@QBuild@Mogitter@@3P$AAVAzukiControl@WinForms@Azuki@Sgry@@$AA

; 114  : 			this->seikaiNumber = (gcnew System::Windows::Forms::NumericUpDown());

  00053	02		 ldarg.0 	; this$
  00054	73 00 00 00 00	 newobj ??0NumericUpDown@Forms@Windows@System@@$$FQ$AAM@XZ
  00059	7d 00 00 00 00	 stfld ?seikaiNumber@QBuild@Mogitter@@3P$AAVNumericUpDown@Forms@Windows@System@@$AA

; 115  : 			this->label5 = (gcnew System::Windows::Forms::Label());

  0005e	02		 ldarg.0 	; this$
  0005f	73 00 00 00 00	 newobj ??0Label@Forms@Windows@System@@$$FQ$AAM@XZ
  00064	7d 00 00 00 00	 stfld ?label5@QBuild@Mogitter@@3P$AAVLabel@Forms@Windows@System@@$AA

; 116  : 			this->label4 = (gcnew System::Windows::Forms::Label());

  00069	02		 ldarg.0 	; this$
  0006a	73 00 00 00 00	 newobj ??0Label@Forms@Windows@System@@$$FQ$AAM@XZ
  0006f	7d 00 00 00 00	 stfld ?label4@QBuild@Mogitter@@3P$AAVLabel@Forms@Windows@System@@$AA

; 117  : 			this->label3 = (gcnew System::Windows::Forms::Label());

  00074	02		 ldarg.0 	; this$
  00075	73 00 00 00 00	 newobj ??0Label@Forms@Windows@System@@$$FQ$AAM@XZ
  0007a	7d 00 00 00 00	 stfld ?label3@QBuild@Mogitter@@3P$AAVLabel@Forms@Windows@System@@$AA

; 118  : 			this->katakana_abc = (gcnew System::Windows::Forms::RadioButton());

  0007f	02		 ldarg.0 	; this$
  00080	73 00 00 00 00	 newobj ??0RadioButton@Forms@Windows@System@@$$FQ$AAM@XZ
  00085	7d 00 00 00 00	 stfld ?katakana_abc@QBuild@Mogitter@@3P$AAVRadioButton@Forms@Windows@System@@$AA

; 119  : 			this->kana_abc = (gcnew System::Windows::Forms::RadioButton());

  0008a	02		 ldarg.0 	; this$
  0008b	73 00 00 00 00	 newobj ??0RadioButton@Forms@Windows@System@@$$FQ$AAM@XZ
  00090	7d 00 00 00 00	 stfld ?kana_abc@QBuild@Mogitter@@3P$AAVRadioButton@Forms@Windows@System@@$AA

; 120  : 			this->ABC_ = (gcnew System::Windows::Forms::RadioButton());

  00095	02		 ldarg.0 	; this$
  00096	73 00 00 00 00	 newobj ??0RadioButton@Forms@Windows@System@@$$FQ$AAM@XZ
  0009b	7d 00 00 00 00	 stfld ?ABC_@QBuild@Mogitter@@3P$AAVRadioButton@Forms@Windows@System@@$AA

; 121  : 			this->abc = (gcnew System::Windows::Forms::RadioButton());

  000a0	02		 ldarg.0 	; this$
  000a1	73 00 00 00 00	 newobj ??0RadioButton@Forms@Windows@System@@$$FQ$AAM@XZ
  000a6	7d 00 00 00 00	 stfld ?abc@QBuild@Mogitter@@3P$AAVRadioButton@Forms@Windows@System@@$AA

; 122  : 			this->label2 = (gcnew System::Windows::Forms::Label());

  000ab	02		 ldarg.0 	; this$
  000ac	73 00 00 00 00	 newobj ??0Label@Forms@Windows@System@@$$FQ$AAM@XZ
  000b1	7d 00 00 00 00	 stfld ?label2@QBuild@Mogitter@@3P$AAVLabel@Forms@Windows@System@@$AA

; 123  : 			this->panel1 = (gcnew System::Windows::Forms::Panel());

  000b6	02		 ldarg.0 	; this$
  000b7	73 00 00 00 00	 newobj ??0Panel@Forms@Windows@System@@$$FQ$AAM@XZ
  000bc	7d 00 00 00 00	 stfld ?panel1@QBuild@Mogitter@@3P$AAVPanel@Forms@Windows@System@@$AA

; 124  : 			this->sentakuGroup->SuspendLayout();

  000c1	02		 ldarg.0 	; this$
  000c2	7b 00 00 00 00	 ldfld ?sentakuGroup@QBuild@Mogitter@@3P$AAVGroupBox@Forms@Windows@System@@$AA
  000c7	28 00 00 00 00	 call ?SuspendLayout@Control@Forms@Windows@System@@$$FQ$AAMXXZ

; 125  : 			(cli::safe_cast<System::ComponentModel::ISupportInitialize^  >(this->seikaiNumber))->BeginInit();

  000cc	02		 ldarg.0 	; this$
  000cd	7b 00 00 00 00	 ldfld ?seikaiNumber@QBuild@Mogitter@@3P$AAVNumericUpDown@Forms@Windows@System@@$AA
  000d2	6f 00 00 00 00	 callvirt ?BeginInit@ISupportInitialize@ComponentModel@System@@$$FU$AAMXXZ

; 126  : 			this->SuspendLayout();

  000d7	02		 ldarg.0 	; this$
  000d8	28 00 00 00 00	 call ?SuspendLayout@Control@Forms@Windows@System@@$$FQ$AAMXXZ

; 127  : 			// 
; 128  : 			// cancel
; 129  : 			// 
; 130  : 			this->cancel->DialogResult = System::Windows::Forms::DialogResult::Cancel;

  000dd	02		 ldarg.0 	; this$
  000de	7b 00 00 00 00	 ldfld ?cancel@QBuild@Mogitter@@3P$AAVButton@Forms@Windows@System@@$AA
  000e3	18		 ldc.i.2 2	; i32 0x2
  000e4	6f 00 00 00 00	 callvirt ?set@DialogResult@Button@Forms@Windows@System@@$$FU$AAMXW41345@@Z

; 131  : 			this->cancel->Font = (gcnew System::Drawing::Font(L"メイリオ", 11.25F, System::Drawing::FontStyle::Regular, System::Drawing::GraphicsUnit::Point, 
; 132  : 				static_cast<System::Byte>(128)));

  000e9	02		 ldarg.0 	; this$
  000ea	7b 00 00 00 00	 ldfld ?cancel@QBuild@Mogitter@@3P$AAVButton@Forms@Windows@System@@$AA
  000ef	72 00 00 00 00	 ldstr $StringLiteralTok$??_C@_19HMEDOBKD@0?a0?$KE0?j0?$KK?$AA?$AA@
  000f4	22 00 00 34 41	 ldc.r4 11.250000
  000f9	16		 ldc.i.0 0	; i32 0x0
  000fa	19		 ldc.i.3 3	; i32 0x3
  000fb	20 80 00 00 00	 ldc.i4 128	; u8 0x80
  00100	73 00 00 00 00	 newobj ??0Font@Drawing@System@@$$FQ$AAM@P$AAVString@2@MW4FontStyle@12@W4GraphicsUnit@12@E@Z
  00105	6f 00 00 00 00	 callvirt ?set@Font@Control@Forms@Windows@System@@$$FU$AAMXP$AAV1Drawing@5@@Z

; 133  : 			this->cancel->Location = System::Drawing::Point(235, 318);

  0010a	12 2f		 ldloca.s 47	; $S1$
  0010c	20 eb 00 00 00	 ldc.i4 235	; i32 0xeb
  00111	20 3e 01 00 00	 ldc.i4 318	; i32 0x13e
  00116	28 00 00 00 00	 call ??0Point@Drawing@System@@$$FQ$CAM@HH@Z
  0011b	02		 ldarg.0 	; this$
  0011c	7b 00 00 00 00	 ldfld ?cancel@QBuild@Mogitter@@3P$AAVButton@Forms@Windows@System@@$AA
  00121	11 2f		 ldloc.s 47	; $S1$
  00123	28 00 00 00 00	 call ?set@Location@Control@Forms@Windows@System@@$$FQ$AAMXVPoint@Drawing@5@@Z

; 134  : 			this->cancel->Name = L"cancel";

  00128	02		 ldarg.0 	; this$
  00129	7b 00 00 00 00	 ldfld ?cancel@QBuild@Mogitter@@3P$AAVButton@Forms@Windows@System@@$AA
  0012e	72 00 00 00 00	 ldstr $StringLiteralTok$??_C@_1O@NFIMEJGE@?$AAc?$AAa?$AAn?$AAc?$AAe?$AAl?$AA?$AA@
  00133	28 00 00 00 00	 call ?set@Name@Control@Forms@Windows@System@@$$FQ$AAMXP$AAVString@5@@Z

; 135  : 			this->cancel->Size = System::Drawing::Size(115, 32);

  00138	12 2e		 ldloca.s 46	; $S2$
  0013a	1f 73		 ldc.i4.s 115	; i32 0x73
  0013c	1f 20		 ldc.i4.s 32	; i32 0x20
  0013e	28 00 00 00 00	 call ??0Size@Drawing@System@@$$FQ$CAM@HH@Z
  00143	02		 ldarg.0 	; this$
  00144	7b 00 00 00 00	 ldfld ?cancel@QBuild@Mogitter@@3P$AAVButton@Forms@Windows@System@@$AA
  00149	11 2e		 ldloc.s 46	; $S2$
  0014b	28 00 00 00 00	 call ?set@Size@Control@Forms@Windows@System@@$$FQ$AAMXV1Drawing@5@@Z

; 136  : 			this->cancel->TabIndex = 2;

  00150	02		 ldarg.0 	; this$
  00151	7b 00 00 00 00	 ldfld ?cancel@QBuild@Mogitter@@3P$AAVButton@Forms@Windows@System@@$AA
  00156	18		 ldc.i.2 2	; i32 0x2
  00157	28 00 00 00 00	 call ?set@TabIndex@Control@Forms@Windows@System@@$$FQ$AAMXH@Z

; 137  : 			this->cancel->Text = L"キャンセル";

  0015c	02		 ldarg.0 	; this$
  0015d	7b 00 00 00 00	 ldfld ?cancel@QBuild@Mogitter@@3P$AAVButton@Forms@Windows@System@@$AA
  00162	72 00 00 00 00	 ldstr $StringLiteralTok$??_C@_1M@JFEDHPLI@0?$KN0?c0?s0?$LL0?k?$AA?$AA@
  00167	6f 00 00 00 00	 callvirt ?set@Text@ButtonBase@Forms@Windows@System@@$$FU$AAMXP$AAVString@5@@Z

; 138  : 			this->cancel->UseVisualStyleBackColor = true;

  0016c	02		 ldarg.0 	; this$
  0016d	7b 00 00 00 00	 ldfld ?cancel@QBuild@Mogitter@@3P$AAVButton@Forms@Windows@System@@$AA
  00172	17		 ldc.i.1 1	; u8 0x1
  00173	28 00 00 00 00	 call ?set@UseVisualStyleBackColor@ButtonBase@Forms@Windows@System@@$$FQ$AAMX_N@Z

; 139  : 			this->cancel->Click += gcnew System::EventHandler(this, &QBuild::cancel_Click);

  00178	02		 ldarg.0 	; this$
  00179	7b 00 00 00 00	 ldfld ?cancel@QBuild@Mogitter@@3P$AAVButton@Forms@Windows@System@@$AA
  0017e	02		 ldarg.0 	; this$
  0017f	fe 06 00 00 00
	00		 ldftn ?cancel_Click@QBuild@Mogitter@@$$FA$AAMXP$AAVObject@System@@P$AAVEventArgs@4@@Z
  00185	73 00 00 00 00	 newobj ??0EventHandler@System@@$$FQ$AAM@P$AAVObject@1@VIntPtr@1@@Z
  0018a	28 00 00 00 00	 call ?add@Click@Control@Forms@Windows@System@@$$FQ$AAMXP$AAVEventHandler@5@@Z

; 140  : 			// 
; 141  : 			// okButton
; 142  : 			// 
; 143  : 			this->okButton->BackColor = System::Drawing::SystemColors::Control;

  0018f	28 00 00 00 00	 call ?get@Control@SystemColors@Drawing@System@@$$FSM?AVColor@34@XZ
  00194	13 2d		 stloc.s 45	; $T2
  00196	02		 ldarg.0 	; this$
  00197	7b 00 00 00 00	 ldfld ?okButton@QBuild@Mogitter@@3P$AAVButton@Forms@Windows@System@@$AA
  0019c	11 2d		 ldloc.s 45	; $T2
  0019e	6f 00 00 00 00	 callvirt ?set@BackColor@ButtonBase@Forms@Windows@System@@$$FU$AAMXVColor@Drawing@5@@Z

; 144  : 			this->okButton->DialogResult = System::Windows::Forms::DialogResult::OK;

  001a3	02		 ldarg.0 	; this$
  001a4	7b 00 00 00 00	 ldfld ?okButton@QBuild@Mogitter@@3P$AAVButton@Forms@Windows@System@@$AA
  001a9	17		 ldc.i.1 1	; i32 0x1
  001aa	6f 00 00 00 00	 callvirt ?set@DialogResult@Button@Forms@Windows@System@@$$FU$AAMXW41345@@Z

; 145  : 			this->okButton->Font = (gcnew System::Drawing::Font(L"メイリオ", 12, System::Drawing::FontStyle::Regular, System::Drawing::GraphicsUnit::Point, 
; 146  : 				static_cast<System::Byte>(128)));

  001af	02		 ldarg.0 	; this$
  001b0	7b 00 00 00 00	 ldfld ?okButton@QBuild@Mogitter@@3P$AAVButton@Forms@Windows@System@@$AA
  001b5	72 00 00 00 00	 ldstr $StringLiteralTok$??_C@_19HMEDOBKD@0?a0?$KE0?j0?$KK?$AA?$AA@
  001ba	22 00 00 40 41	 ldc.r4 12.000000
  001bf	16		 ldc.i.0 0	; i32 0x0
  001c0	19		 ldc.i.3 3	; i32 0x3
  001c1	20 80 00 00 00	 ldc.i4 128	; u8 0x80
  001c6	73 00 00 00 00	 newobj ??0Font@Drawing@System@@$$FQ$AAM@P$AAVString@2@MW4FontStyle@12@W4GraphicsUnit@12@E@Z
  001cb	6f 00 00 00 00	 callvirt ?set@Font@Control@Forms@Windows@System@@$$FU$AAMXP$AAV1Drawing@5@@Z

; 147  : 			this->okButton->Location = System::Drawing::Point(123, 318);

  001d0	12 2c		 ldloca.s 44	; $S3$
  001d2	1f 7b		 ldc.i4.s 123	; i32 0x7b
  001d4	20 3e 01 00 00	 ldc.i4 318	; i32 0x13e
  001d9	28 00 00 00 00	 call ??0Point@Drawing@System@@$$FQ$CAM@HH@Z
  001de	02		 ldarg.0 	; this$
  001df	7b 00 00 00 00	 ldfld ?okButton@QBuild@Mogitter@@3P$AAVButton@Forms@Windows@System@@$AA
  001e4	11 2c		 ldloc.s 44	; $S3$
  001e6	28 00 00 00 00	 call ?set@Location@Control@Forms@Windows@System@@$$FQ$AAMXVPoint@Drawing@5@@Z

; 148  : 			this->okButton->Name = L"okButton";

  001eb	02		 ldarg.0 	; this$
  001ec	7b 00 00 00 00	 ldfld ?okButton@QBuild@Mogitter@@3P$AAVButton@Forms@Windows@System@@$AA
  001f1	72 00 00 00 00	 ldstr $StringLiteralTok$??_C@_1BC@DBHLIDP@?$AAo?$AAk?$AAB?$AAu?$AAt?$AAt?$AAo?$AAn?$AA?$AA@
  001f6	28 00 00 00 00	 call ?set@Name@Control@Forms@Windows@System@@$$FQ$AAMXP$AAVString@5@@Z

; 149  : 			this->okButton->Size = System::Drawing::Size(75, 32);

  001fb	12 2b		 ldloca.s 43	; $S4$
  001fd	1f 4b		 ldc.i4.s 75	; i32 0x4b
  001ff	1f 20		 ldc.i4.s 32	; i32 0x20
  00201	28 00 00 00 00	 call ??0Size@Drawing@System@@$$FQ$CAM@HH@Z
  00206	02		 ldarg.0 	; this$
  00207	7b 00 00 00 00	 ldfld ?okButton@QBuild@Mogitter@@3P$AAVButton@Forms@Windows@System@@$AA
  0020c	11 2b		 ldloc.s 43	; $S4$
  0020e	28 00 00 00 00	 call ?set@Size@Control@Forms@Windows@System@@$$FQ$AAMXV1Drawing@5@@Z

; 150  : 			this->okButton->TabIndex = 1;

  00213	02		 ldarg.0 	; this$
  00214	7b 00 00 00 00	 ldfld ?okButton@QBuild@Mogitter@@3P$AAVButton@Forms@Windows@System@@$AA
  00219	17		 ldc.i.1 1	; i32 0x1
  0021a	28 00 00 00 00	 call ?set@TabIndex@Control@Forms@Windows@System@@$$FQ$AAMXH@Z

; 151  : 			this->okButton->Text = L"OK";

  0021f	02		 ldarg.0 	; this$
  00220	7b 00 00 00 00	 ldfld ?okButton@QBuild@Mogitter@@3P$AAVButton@Forms@Windows@System@@$AA
  00225	72 00 00 00 00	 ldstr $StringLiteralTok$??_C@_15PMCGDJNJ@?$AAO?$AAK?$AA?$AA@
  0022a	6f 00 00 00 00	 callvirt ?set@Text@ButtonBase@Forms@Windows@System@@$$FU$AAMXP$AAVString@5@@Z

; 152  : 			this->okButton->UseVisualStyleBackColor = true;

  0022f	02		 ldarg.0 	; this$
  00230	7b 00 00 00 00	 ldfld ?okButton@QBuild@Mogitter@@3P$AAVButton@Forms@Windows@System@@$AA
  00235	17		 ldc.i.1 1	; u8 0x1
  00236	28 00 00 00 00	 call ?set@UseVisualStyleBackColor@ButtonBase@Forms@Windows@System@@$$FQ$AAMX_N@Z

; 153  : 			// 
; 154  : 			// answerBox
; 155  : 			// 
; 156  : 			this->answerBox->Font = (gcnew System::Drawing::Font(L"メイリオ", 11.25F, System::Drawing::FontStyle::Regular, System::Drawing::GraphicsUnit::Point, 
; 157  : 				static_cast<System::Byte>(128)));

  0023b	02		 ldarg.0 	; this$
  0023c	7b 00 00 00 00	 ldfld ?answerBox@QBuild@Mogitter@@3P$AAVTextBox@Forms@Windows@System@@$AA
  00241	72 00 00 00 00	 ldstr $StringLiteralTok$??_C@_19HMEDOBKD@0?a0?$KE0?j0?$KK?$AA?$AA@
  00246	22 00 00 34 41	 ldc.r4 11.250000
  0024b	16		 ldc.i.0 0	; i32 0x0
  0024c	19		 ldc.i.3 3	; i32 0x3
  0024d	20 80 00 00 00	 ldc.i4 128	; u8 0x80
  00252	73 00 00 00 00	 newobj ??0Font@Drawing@System@@$$FQ$AAM@P$AAVString@2@MW4FontStyle@12@W4GraphicsUnit@12@E@Z
  00257	6f 00 00 00 00	 callvirt ?set@Font@Control@Forms@Windows@System@@$$FU$AAMXP$AAV1Drawing@5@@Z

; 158  : 			this->answerBox->Location = System::Drawing::Point(73, 13);

  0025c	12 2a		 ldloca.s 42	; $S5$
  0025e	1f 49		 ldc.i4.s 73	; i32 0x49
  00260	1f 0d		 ldc.i4.s 13	; i32 0xd
  00262	28 00 00 00 00	 call ??0Point@Drawing@System@@$$FQ$CAM@HH@Z
  00267	02		 ldarg.0 	; this$
  00268	7b 00 00 00 00	 ldfld ?answerBox@QBuild@Mogitter@@3P$AAVTextBox@Forms@Windows@System@@$AA
  0026d	11 2a		 ldloc.s 42	; $S5$
  0026f	28 00 00 00 00	 call ?set@Location@Control@Forms@Windows@System@@$$FQ$AAMXVPoint@Drawing@5@@Z

; 159  : 			this->answerBox->Name = L"answerBox";

  00274	02		 ldarg.0 	; this$
  00275	7b 00 00 00 00	 ldfld ?answerBox@QBuild@Mogitter@@3P$AAVTextBox@Forms@Windows@System@@$AA
  0027a	72 00 00 00 00	 ldstr $StringLiteralTok$??_C@_1BE@EDHPNFEP@?$AAa?$AAn?$AAs?$AAw?$AAe?$AAr?$AAB?$AAo?$AAx?$AA?$AA@
  0027f	28 00 00 00 00	 call ?set@Name@Control@Forms@Windows@System@@$$FQ$AAMXP$AAVString@5@@Z

; 160  : 			this->answerBox->Size = System::Drawing::Size(389, 30);

  00284	12 29		 ldloca.s 41	; $S6$
  00286	20 85 01 00 00	 ldc.i4 389	; i32 0x185
  0028b	1f 1e		 ldc.i4.s 30	; i32 0x1e
  0028d	28 00 00 00 00	 call ??0Size@Drawing@System@@$$FQ$CAM@HH@Z
  00292	02		 ldarg.0 	; this$
  00293	7b 00 00 00 00	 ldfld ?answerBox@QBuild@Mogitter@@3P$AAVTextBox@Forms@Windows@System@@$AA
  00298	11 29		 ldloc.s 41	; $S6$
  0029a	28 00 00 00 00	 call ?set@Size@Control@Forms@Windows@System@@$$FQ$AAMXV1Drawing@5@@Z

; 161  : 			this->answerBox->TabIndex = 3;

  0029f	02		 ldarg.0 	; this$
  002a0	7b 00 00 00 00	 ldfld ?answerBox@QBuild@Mogitter@@3P$AAVTextBox@Forms@Windows@System@@$AA
  002a5	19		 ldc.i.3 3	; i32 0x3
  002a6	28 00 00 00 00	 call ?set@TabIndex@Control@Forms@Windows@System@@$$FQ$AAMXH@Z

; 162  : 			// 
; 163  : 			// label1
; 164  : 			// 
; 165  : 			this->label1->AutoSize = true;

  002ab	02		 ldarg.0 	; this$
  002ac	7b 00 00 00 00	 ldfld ?label1@QBuild@Mogitter@@3P$AAVLabel@Forms@Windows@System@@$AA
  002b1	17		 ldc.i.1 1	; u8 0x1
  002b2	6f 00 00 00 00	 callvirt ?set@AutoSize@Label@Forms@Windows@System@@$$FU$AAMX_N@Z

; 166  : 			this->label1->Font = (gcnew System::Drawing::Font(L"メイリオ", 11.25F, System::Drawing::FontStyle::Regular, System::Drawing::GraphicsUnit::Point, 
; 167  : 				static_cast<System::Byte>(128)));

  002b7	02		 ldarg.0 	; this$
  002b8	7b 00 00 00 00	 ldfld ?label1@QBuild@Mogitter@@3P$AAVLabel@Forms@Windows@System@@$AA
  002bd	72 00 00 00 00	 ldstr $StringLiteralTok$??_C@_19HMEDOBKD@0?a0?$KE0?j0?$KK?$AA?$AA@
  002c2	22 00 00 34 41	 ldc.r4 11.250000
  002c7	16		 ldc.i.0 0	; i32 0x0
  002c8	19		 ldc.i.3 3	; i32 0x3
  002c9	20 80 00 00 00	 ldc.i4 128	; u8 0x80
  002ce	73 00 00 00 00	 newobj ??0Font@Drawing@System@@$$FQ$AAM@P$AAVString@2@MW4FontStyle@12@W4GraphicsUnit@12@E@Z
  002d3	6f 00 00 00 00	 callvirt ?set@Font@Control@Forms@Windows@System@@$$FU$AAMXP$AAV1Drawing@5@@Z

; 168  : 			this->label1->Location = System::Drawing::Point(12, 16);

  002d8	12 28		 ldloca.s 40	; $S7$
  002da	1f 0c		 ldc.i4.s 12	; i32 0xc
  002dc	1f 10		 ldc.i4.s 16	; i32 0x10
  002de	28 00 00 00 00	 call ??0Point@Drawing@System@@$$FQ$CAM@HH@Z
  002e3	02		 ldarg.0 	; this$
  002e4	7b 00 00 00 00	 ldfld ?label1@QBuild@Mogitter@@3P$AAVLabel@Forms@Windows@System@@$AA
  002e9	11 28		 ldloc.s 40	; $S7$
  002eb	28 00 00 00 00	 call ?set@Location@Control@Forms@Windows@System@@$$FQ$AAMXVPoint@Drawing@5@@Z

; 169  : 			this->label1->Name = L"label1";

  002f0	02		 ldarg.0 	; this$
  002f1	7b 00 00 00 00	 ldfld ?label1@QBuild@Mogitter@@3P$AAVLabel@Forms@Windows@System@@$AA
  002f6	72 00 00 00 00	 ldstr $StringLiteralTok$??_C@_1O@EBCDJCCM@?$AAl?$AAa?$AAb?$AAe?$AAl?$AA1?$AA?$AA@
  002fb	28 00 00 00 00	 call ?set@Name@Control@Forms@Windows@System@@$$FQ$AAMXP$AAVString@5@@Z

; 170  : 			this->label1->Size = System::Drawing::Size(55, 23);

  00300	12 27		 ldloca.s 39	; $S8$
  00302	1f 37		 ldc.i4.s 55	; i32 0x37
  00304	1f 17		 ldc.i4.s 23	; i32 0x17
  00306	28 00 00 00 00	 call ??0Size@Drawing@System@@$$FQ$CAM@HH@Z
  0030b	02		 ldarg.0 	; this$
  0030c	7b 00 00 00 00	 ldfld ?label1@QBuild@Mogitter@@3P$AAVLabel@Forms@Windows@System@@$AA
  00311	11 27		 ldloc.s 39	; $S8$
  00313	28 00 00 00 00	 call ?set@Size@Control@Forms@Windows@System@@$$FQ$AAMXV1Drawing@5@@Z

; 171  : 			this->label1->TabIndex = 4;

  00318	02		 ldarg.0 	; this$
  00319	7b 00 00 00 00	 ldfld ?label1@QBuild@Mogitter@@3P$AAVLabel@Forms@Windows@System@@$AA
  0031e	1a		 ldc.i.4 4	; i32 0x4
  0031f	28 00 00 00 00	 call ?set@TabIndex@Control@Forms@Windows@System@@$$FQ$AAMXH@Z

; 172  : 			this->label1->Text = L"解答：";

  00324	02		 ldarg.0 	; this$
  00325	7b 00 00 00 00	 ldfld ?label1@QBuild@Mogitter@@3P$AAVLabel@Forms@Windows@System@@$AA
  0032a	72 00 00 00 00	 ldstr $StringLiteralTok$??_C@_17BCCNLFBM@?$IJ?c?$HLT?$PP?$BK?$AA?$AA@
  0032f	6f 00 00 00 00	 callvirt ?set@Text@Label@Forms@Windows@System@@$$FU$AAMXP$AAVString@5@@Z

; 173  : 			// 
; 174  : 			// sentakuGroup
; 175  : 			// 
; 176  : 			this->sentakuGroup->Controls->Add(this->sentakushi);

  00334	02		 ldarg.0 	; this$
  00335	7b 00 00 00 00	 ldfld ?sentakuGroup@QBuild@Mogitter@@3P$AAVGroupBox@Forms@Windows@System@@$AA
  0033a	28 00 00 00 00	 call ?get@Controls@Control@Forms@Windows@System@@$$FQ$AAMP$AAVControlCollection@2345@XZ
  0033f	02		 ldarg.0 	; this$
  00340	7b 00 00 00 00	 ldfld ?sentakushi@QBuild@Mogitter@@3P$AAVAzukiControl@WinForms@Azuki@Sgry@@$AA
  00345	6f 00 00 00 00	 callvirt ?Add@ControlCollection@Control@Forms@Windows@System@@$$FU$AAMXP$AAV2345@@Z

; 177  : 			this->sentakuGroup->Controls->Add(this->seikaiNumber);

  0034a	02		 ldarg.0 	; this$
  0034b	7b 00 00 00 00	 ldfld ?sentakuGroup@QBuild@Mogitter@@3P$AAVGroupBox@Forms@Windows@System@@$AA
  00350	28 00 00 00 00	 call ?get@Controls@Control@Forms@Windows@System@@$$FQ$AAMP$AAVControlCollection@2345@XZ
  00355	02		 ldarg.0 	; this$
  00356	7b 00 00 00 00	 ldfld ?seikaiNumber@QBuild@Mogitter@@3P$AAVNumericUpDown@Forms@Windows@System@@$AA
  0035b	6f 00 00 00 00	 callvirt ?Add@ControlCollection@Control@Forms@Windows@System@@$$FU$AAMXP$AAV2345@@Z

; 178  : 			this->sentakuGroup->Controls->Add(this->label5);

  00360	02		 ldarg.0 	; this$
  00361	7b 00 00 00 00	 ldfld ?sentakuGroup@QBuild@Mogitter@@3P$AAVGroupBox@Forms@Windows@System@@$AA
  00366	28 00 00 00 00	 call ?get@Controls@Control@Forms@Windows@System@@$$FQ$AAMP$AAVControlCollection@2345@XZ
  0036b	02		 ldarg.0 	; this$
  0036c	7b 00 00 00 00	 ldfld ?label5@QBuild@Mogitter@@3P$AAVLabel@Forms@Windows@System@@$AA
  00371	6f 00 00 00 00	 callvirt ?Add@ControlCollection@Control@Forms@Windows@System@@$$FU$AAMXP$AAV2345@@Z

; 179  : 			this->sentakuGroup->Controls->Add(this->label4);

  00376	02		 ldarg.0 	; this$
  00377	7b 00 00 00 00	 ldfld ?sentakuGroup@QBuild@Mogitter@@3P$AAVGroupBox@Forms@Windows@System@@$AA
  0037c	28 00 00 00 00	 call ?get@Controls@Control@Forms@Windows@System@@$$FQ$AAMP$AAVControlCollection@2345@XZ
  00381	02		 ldarg.0 	; this$
  00382	7b 00 00 00 00	 ldfld ?label4@QBuild@Mogitter@@3P$AAVLabel@Forms@Windows@System@@$AA
  00387	6f 00 00 00 00	 callvirt ?Add@ControlCollection@Control@Forms@Windows@System@@$$FU$AAMXP$AAV2345@@Z

; 180  : 			this->sentakuGroup->Controls->Add(this->label3);

  0038c	02		 ldarg.0 	; this$
  0038d	7b 00 00 00 00	 ldfld ?sentakuGroup@QBuild@Mogitter@@3P$AAVGroupBox@Forms@Windows@System@@$AA
  00392	28 00 00 00 00	 call ?get@Controls@Control@Forms@Windows@System@@$$FQ$AAMP$AAVControlCollection@2345@XZ
  00397	02		 ldarg.0 	; this$
  00398	7b 00 00 00 00	 ldfld ?label3@QBuild@Mogitter@@3P$AAVLabel@Forms@Windows@System@@$AA
  0039d	6f 00 00 00 00	 callvirt ?Add@ControlCollection@Control@Forms@Windows@System@@$$FU$AAMXP$AAV2345@@Z

; 181  : 			this->sentakuGroup->Controls->Add(this->katakana_abc);

  003a2	02		 ldarg.0 	; this$
  003a3	7b 00 00 00 00	 ldfld ?sentakuGroup@QBuild@Mogitter@@3P$AAVGroupBox@Forms@Windows@System@@$AA
  003a8	28 00 00 00 00	 call ?get@Controls@Control@Forms@Windows@System@@$$FQ$AAMP$AAVControlCollection@2345@XZ
  003ad	02		 ldarg.0 	; this$
  003ae	7b 00 00 00 00	 ldfld ?katakana_abc@QBuild@Mogitter@@3P$AAVRadioButton@Forms@Windows@System@@$AA
  003b3	6f 00 00 00 00	 callvirt ?Add@ControlCollection@Control@Forms@Windows@System@@$$FU$AAMXP$AAV2345@@Z

; 182  : 			this->sentakuGroup->Controls->Add(this->kana_abc);

  003b8	02		 ldarg.0 	; this$
  003b9	7b 00 00 00 00	 ldfld ?sentakuGroup@QBuild@Mogitter@@3P$AAVGroupBox@Forms@Windows@System@@$AA
  003be	28 00 00 00 00	 call ?get@Controls@Control@Forms@Windows@System@@$$FQ$AAMP$AAVControlCollection@2345@XZ
  003c3	02		 ldarg.0 	; this$
  003c4	7b 00 00 00 00	 ldfld ?kana_abc@QBuild@Mogitter@@3P$AAVRadioButton@Forms@Windows@System@@$AA
  003c9	6f 00 00 00 00	 callvirt ?Add@ControlCollection@Control@Forms@Windows@System@@$$FU$AAMXP$AAV2345@@Z

; 183  : 			this->sentakuGroup->Controls->Add(this->ABC_);

  003ce	02		 ldarg.0 	; this$
  003cf	7b 00 00 00 00	 ldfld ?sentakuGroup@QBuild@Mogitter@@3P$AAVGroupBox@Forms@Windows@System@@$AA
  003d4	28 00 00 00 00	 call ?get@Controls@Control@Forms@Windows@System@@$$FQ$AAMP$AAVControlCollection@2345@XZ
  003d9	02		 ldarg.0 	; this$
  003da	7b 00 00 00 00	 ldfld ?ABC_@QBuild@Mogitter@@3P$AAVRadioButton@Forms@Windows@System@@$AA
  003df	6f 00 00 00 00	 callvirt ?Add@ControlCollection@Control@Forms@Windows@System@@$$FU$AAMXP$AAV2345@@Z

; 184  : 			this->sentakuGroup->Controls->Add(this->abc);

  003e4	02		 ldarg.0 	; this$
  003e5	7b 00 00 00 00	 ldfld ?sentakuGroup@QBuild@Mogitter@@3P$AAVGroupBox@Forms@Windows@System@@$AA
  003ea	28 00 00 00 00	 call ?get@Controls@Control@Forms@Windows@System@@$$FQ$AAMP$AAVControlCollection@2345@XZ
  003ef	02		 ldarg.0 	; this$
  003f0	7b 00 00 00 00	 ldfld ?abc@QBuild@Mogitter@@3P$AAVRadioButton@Forms@Windows@System@@$AA
  003f5	6f 00 00 00 00	 callvirt ?Add@ControlCollection@Control@Forms@Windows@System@@$$FU$AAMXP$AAV2345@@Z

; 185  : 			this->sentakuGroup->Controls->Add(this->label2);

  003fa	02		 ldarg.0 	; this$
  003fb	7b 00 00 00 00	 ldfld ?sentakuGroup@QBuild@Mogitter@@3P$AAVGroupBox@Forms@Windows@System@@$AA
  00400	28 00 00 00 00	 call ?get@Controls@Control@Forms@Windows@System@@$$FQ$AAMP$AAVControlCollection@2345@XZ
  00405	02		 ldarg.0 	; this$
  00406	7b 00 00 00 00	 ldfld ?label2@QBuild@Mogitter@@3P$AAVLabel@Forms@Windows@System@@$AA
  0040b	6f 00 00 00 00	 callvirt ?Add@ControlCollection@Control@Forms@Windows@System@@$$FU$AAMXP$AAV2345@@Z

; 186  : 			this->sentakuGroup->Font = (gcnew System::Drawing::Font(L"メイリオ", 9.75F, System::Drawing::FontStyle::Regular, System::Drawing::GraphicsUnit::Point, 
; 187  : 				static_cast<System::Byte>(128)));

  00410	02		 ldarg.0 	; this$
  00411	7b 00 00 00 00	 ldfld ?sentakuGroup@QBuild@Mogitter@@3P$AAVGroupBox@Forms@Windows@System@@$AA
  00416	72 00 00 00 00	 ldstr $StringLiteralTok$??_C@_19HMEDOBKD@0?a0?$KE0?j0?$KK?$AA?$AA@
  0041b	22 00 00 1c 41	 ldc.r4 9.750000
  00420	16		 ldc.i.0 0	; i32 0x0
  00421	19		 ldc.i.3 3	; i32 0x3
  00422	20 80 00 00 00	 ldc.i4 128	; u8 0x80
  00427	73 00 00 00 00	 newobj ??0Font@Drawing@System@@$$FQ$AAM@P$AAVString@2@MW4FontStyle@12@W4GraphicsUnit@12@E@Z
  0042c	6f 00 00 00 00	 callvirt ?set@Font@Control@Forms@Windows@System@@$$FU$AAMXP$AAV1Drawing@5@@Z

; 188  : 			this->sentakuGroup->Location = System::Drawing::Point(12, 49);

  00431	12 26		 ldloca.s 38	; $S9$
  00433	1f 0c		 ldc.i4.s 12	; i32 0xc
  00435	1f 31		 ldc.i4.s 49	; i32 0x31
  00437	28 00 00 00 00	 call ??0Point@Drawing@System@@$$FQ$CAM@HH@Z
  0043c	02		 ldarg.0 	; this$
  0043d	7b 00 00 00 00	 ldfld ?sentakuGroup@QBuild@Mogitter@@3P$AAVGroupBox@Forms@Windows@System@@$AA
  00442	11 26		 ldloc.s 38	; $S9$
  00444	28 00 00 00 00	 call ?set@Location@Control@Forms@Windows@System@@$$FQ$AAMXVPoint@Drawing@5@@Z

; 189  : 			this->sentakuGroup->Name = L"sentakuGroup";

  00449	02		 ldarg.0 	; this$
  0044a	7b 00 00 00 00	 ldfld ?sentakuGroup@QBuild@Mogitter@@3P$AAVGroupBox@Forms@Windows@System@@$AA
  0044f	72 00 00 00 00	 ldstr $StringLiteralTok$??_C@_1BK@PBOPCCAN@?$AAs?$AAe?$AAn?$AAt?$AAa?$AAk?$AAu?$AAG?$AAr?$AAo?$AAu?$AAp?$AA?$AA@
  00454	28 00 00 00 00	 call ?set@Name@Control@Forms@Windows@System@@$$FQ$AAMXP$AAVString@5@@Z

; 190  : 			this->sentakuGroup->Size = System::Drawing::Size(449, 259);

  00459	12 25		 ldloca.s 37	; $S10$
  0045b	20 c1 01 00 00	 ldc.i4 449	; i32 0x1c1
  00460	20 03 01 00 00	 ldc.i4 259	; i32 0x103
  00465	28 00 00 00 00	 call ??0Size@Drawing@System@@$$FQ$CAM@HH@Z
  0046a	02		 ldarg.0 	; this$
  0046b	7b 00 00 00 00	 ldfld ?sentakuGroup@QBuild@Mogitter@@3P$AAVGroupBox@Forms@Windows@System@@$AA
  00470	11 25		 ldloc.s 37	; $S10$
  00472	28 00 00 00 00	 call ?set@Size@Control@Forms@Windows@System@@$$FQ$AAMXV1Drawing@5@@Z

; 191  : 			this->sentakuGroup->TabIndex = 8;

  00477	02		 ldarg.0 	; this$
  00478	7b 00 00 00 00	 ldfld ?sentakuGroup@QBuild@Mogitter@@3P$AAVGroupBox@Forms@Windows@System@@$AA
  0047d	1e		 ldc.i.8 8	; i32 0x8
  0047e	28 00 00 00 00	 call ?set@TabIndex@Control@Forms@Windows@System@@$$FQ$AAMXH@Z

; 192  : 			this->sentakuGroup->TabStop = false;

  00483	02		 ldarg.0 	; this$
  00484	7b 00 00 00 00	 ldfld ?sentakuGroup@QBuild@Mogitter@@3P$AAVGroupBox@Forms@Windows@System@@$AA
  00489	16		 ldc.i.0 0	; u8 0x0
  0048a	28 00 00 00 00	 call ?set@TabStop@GroupBox@Forms@Windows@System@@$$FQ$AAMX_N@Z

; 193  : 			this->sentakuGroup->Text = L"選択問題オプション(穴埋め問題を作成するときは記入不要)";

  0048f	02		 ldarg.0 	; this$
  00490	7b 00 00 00 00	 ldfld ?sentakuGroup@QBuild@Mogitter@@3P$AAVGroupBox@Forms@Windows@System@@$AA
  00495	72 00 00 00 00	 ldstr $StringLiteralTok$??_C@_1DK@LEKCMHN@?$JAxb?$JOUO?$JIL0?$KK0?W0?$LH0?g0?s?$AA?$CIztW?K0?$IBUO?$JIL0?$JCO?2b?$BA0Y0?$IL0h0M0o?$IK?$BIQeN?$AN?$IJ?$IB?$AA?$CJ?$AA?$AA@
  0049a	6f 00 00 00 00	 callvirt ?set@Text@GroupBox@Forms@Windows@System@@$$FU$AAMXP$AAVString@5@@Z

; 194  : 			// 
; 195  : 			// sentakushi
; 196  : 			// 
; 197  : 			this->sentakushi->BackColor = System::Drawing::Color::White;

  0049f	28 00 00 00 00	 call ?get@White@Color@Drawing@System@@$$FSM?AV234@XZ
  004a4	13 24		 stloc.s 36	; $T3
  004a6	02		 ldarg.0 	; this$
  004a7	7b 00 00 00 00	 ldfld ?sentakushi@QBuild@Mogitter@@3P$AAVAzukiControl@WinForms@Azuki@Sgry@@$AA
  004ac	11 24		 ldloc.s 36	; $T3
  004ae	6f 00 00 00 00	 callvirt ?set@BackColor@AzukiControl@WinForms@Azuki@Sgry@@$$FU$AAMXVColor@Drawing@System@@@Z

; 198  : 			this->sentakushi->Cursor = System::Windows::Forms::Cursors::IBeam;

  004b3	02		 ldarg.0 	; this$
  004b4	7b 00 00 00 00	 ldfld ?sentakushi@QBuild@Mogitter@@3P$AAVAzukiControl@WinForms@Azuki@Sgry@@$AA
  004b9	28 00 00 00 00	 call ?get@IBeam@Cursors@Forms@Windows@System@@$$FSMP$AAVCursor@345@XZ
  004be	6f 00 00 00 00	 callvirt ?set@Cursor@Control@Forms@Windows@System@@$$FU$AAMXP$AAV1345@@Z

; 199  : 			this->sentakushi->DrawingOption = static_cast<Sgry::Azuki::DrawingOption>(((((Sgry::Azuki::DrawingOption::DrawsFullWidthSpace | Sgry::Azuki::DrawingOption::DrawsTab) 
; 200  : 				| Sgry::Azuki::DrawingOption::HighlightCurrentLine) 
; 201  : 				| Sgry::Azuki::DrawingOption::ShowsLineNumber) 
; 202  : 				| Sgry::Azuki::DrawingOption::HighlightsMatchedBracket));

  004c3	02		 ldarg.0 	; this$
  004c4	7b 00 00 00 00	 ldfld ?sentakushi@QBuild@Mogitter@@3P$AAVAzukiControl@WinForms@Azuki@Sgry@@$AA
  004c9	20 36 02 00 00	 ldc.i4 566	; i32 0x236
  004ce	6f 00 00 00 00	 callvirt ?set@DrawingOption@AzukiControl@WinForms@Azuki@Sgry@@$$FU$AAMXW4145@@Z

; 203  : 			this->sentakushi->DrawsEolCode = false;

  004d3	02		 ldarg.0 	; this$
  004d4	7b 00 00 00 00	 ldfld ?sentakushi@QBuild@Mogitter@@3P$AAVAzukiControl@WinForms@Azuki@Sgry@@$AA
  004d9	16		 ldc.i.0 0	; u8 0x0
  004da	6f 00 00 00 00	 callvirt ?set@DrawsEolCode@AzukiControl@WinForms@Azuki@Sgry@@$$FU$AAMX_N@Z

; 204  : 			this->sentakushi->FirstVisibleLine = 0;

  004df	02		 ldarg.0 	; this$
  004e0	7b 00 00 00 00	 ldfld ?sentakushi@QBuild@Mogitter@@3P$AAVAzukiControl@WinForms@Azuki@Sgry@@$AA
  004e5	16		 ldc.i.0 0	; i32 0x0
  004e6	28 00 00 00 00	 call ?set@FirstVisibleLine@AzukiControl@WinForms@Azuki@Sgry@@$$FQ$AAMXH@Z

; 205  : 			this->sentakushi->Font = (gcnew System::Drawing::Font(L"メイリオ", 11));

  004eb	02		 ldarg.0 	; this$
  004ec	7b 00 00 00 00	 ldfld ?sentakushi@QBuild@Mogitter@@3P$AAVAzukiControl@WinForms@Azuki@Sgry@@$AA
  004f1	72 00 00 00 00	 ldstr $StringLiteralTok$??_C@_19HMEDOBKD@0?a0?$KE0?j0?$KK?$AA?$AA@
  004f6	22 00 00 30 41	 ldc.r4 11.000000
  004fb	73 00 00 00 00	 newobj ??0Font@Drawing@System@@$$FQ$AAM@P$AAVString@2@M@Z
  00500	6f 00 00 00 00	 callvirt ?set@Font@AzukiControl@WinForms@Azuki@Sgry@@$$FU$AAMXP$AAV1Drawing@System@@@Z

; 206  : 			fontInfo2->Name = L"メイリオ";

  00505	09		 ldloc.3 	; fontInfo2$
  00506	72 00 00 00 00	 ldstr $StringLiteralTok$??_C@_19HMEDOBKD@0?a0?$KE0?j0?$KK?$AA?$AA@
  0050b	28 00 00 00 00	 call ?set@Name@FontInfo@Azuki@Sgry@@$$FQ$AAMXP$AAVString@System@@@Z

; 207  : 			fontInfo2->Size = 11;

  00510	09		 ldloc.3 	; fontInfo2$
  00511	1f 0b		 ldc.i4.s 11	; i32 0xb
  00513	28 00 00 00 00	 call ?set@Size@FontInfo@Azuki@Sgry@@$$FQ$AAMXH@Z

; 208  : 			fontInfo2->Style = System::Drawing::FontStyle::Regular;

  00518	09		 ldloc.3 	; fontInfo2$
  00519	16		 ldc.i.0 0	; i32 0x0
  0051a	28 00 00 00 00	 call ?set@Style@FontInfo@Azuki@Sgry@@$$FQ$AAMXW4FontStyle@Drawing@System@@@Z

; 209  : 			this->sentakushi->FontInfo = fontInfo2;

  0051f	02		 ldarg.0 	; this$
  00520	7b 00 00 00 00	 ldfld ?sentakushi@QBuild@Mogitter@@3P$AAVAzukiControl@WinForms@Azuki@Sgry@@$AA
  00525	09		 ldloc.3 	; fontInfo2$
  00526	6f 00 00 00 00	 callvirt ?set@FontInfo@AzukiControl@WinForms@Azuki@Sgry@@$$FU$AAMXP$AAV145@@Z

; 210  : 			this->sentakushi->ForeColor = System::Drawing::Color::Black;

  0052b	28 00 00 00 00	 call ?get@Black@Color@Drawing@System@@$$FSM?AV234@XZ
  00530	13 23		 stloc.s 35	; $T4
  00532	02		 ldarg.0 	; this$
  00533	7b 00 00 00 00	 ldfld ?sentakushi@QBuild@Mogitter@@3P$AAVAzukiControl@WinForms@Azuki@Sgry@@$AA
  00538	11 23		 ldloc.s 35	; $T4
  0053a	6f 00 00 00 00	 callvirt ?set@ForeColor@AzukiControl@WinForms@Azuki@Sgry@@$$FU$AAMXVColor@Drawing@System@@@Z

; 211  : 			this->sentakushi->Location = System::Drawing::Point(6, 59);

  0053f	12 22		 ldloca.s 34	; $S11$
  00541	1c		 ldc.i.6 6	; i32 0x6
  00542	1f 3b		 ldc.i4.s 59	; i32 0x3b
  00544	28 00 00 00 00	 call ??0Point@Drawing@System@@$$FQ$CAM@HH@Z
  00549	02		 ldarg.0 	; this$
  0054a	7b 00 00 00 00	 ldfld ?sentakushi@QBuild@Mogitter@@3P$AAVAzukiControl@WinForms@Azuki@Sgry@@$AA
  0054f	11 22		 ldloc.s 34	; $S11$
  00551	28 00 00 00 00	 call ?set@Location@Control@Forms@Windows@System@@$$FQ$AAMXVPoint@Drawing@5@@Z

; 212  : 			this->sentakushi->Name = L"sentakushi";

  00556	02		 ldarg.0 	; this$
  00557	7b 00 00 00 00	 ldfld ?sentakushi@QBuild@Mogitter@@3P$AAVAzukiControl@WinForms@Azuki@Sgry@@$AA
  0055c	72 00 00 00 00	 ldstr $StringLiteralTok$??_C@_1BG@KMJDFGBH@?$AAs?$AAe?$AAn?$AAt?$AAa?$AAk?$AAu?$AAs?$AAh?$AAi?$AA?$AA@
  00561	28 00 00 00 00	 call ?set@Name@Control@Forms@Windows@System@@$$FQ$AAMXP$AAVString@5@@Z

; 213  : 			this->sentakushi->ScrollPos = System::Drawing::Point(0, 0);

  00566	12 21		 ldloca.s 33	; $S12$
  00568	16		 ldc.i.0 0	; i32 0x0
  00569	16		 ldc.i.0 0	; i32 0x0
  0056a	28 00 00 00 00	 call ??0Point@Drawing@System@@$$FQ$CAM@HH@Z
  0056f	02		 ldarg.0 	; this$
  00570	7b 00 00 00 00	 ldfld ?sentakushi@QBuild@Mogitter@@3P$AAVAzukiControl@WinForms@Azuki@Sgry@@$AA
  00575	11 21		 ldloc.s 33	; $S12$
  00577	6f 00 00 00 00	 callvirt ?set@ScrollPos@AzukiControl@WinForms@Azuki@Sgry@@$$FU$AAMXVPoint@Drawing@System@@@Z

; 214  : 			this->sentakushi->ScrollsBeyondLastLine = false;

  0057c	02		 ldarg.0 	; this$
  0057d	7b 00 00 00 00	 ldfld ?sentakushi@QBuild@Mogitter@@3P$AAVAzukiControl@WinForms@Azuki@Sgry@@$AA
  00582	16		 ldc.i.0 0	; u8 0x0
  00583	28 00 00 00 00	 call ?set@ScrollsBeyondLastLine@AzukiControl@WinForms@Azuki@Sgry@@$$FQ$AAMX_N@Z

; 215  : 			this->sentakushi->ShowsDirtBar = false;

  00588	02		 ldarg.0 	; this$
  00589	7b 00 00 00 00	 ldfld ?sentakushi@QBuild@Mogitter@@3P$AAVAzukiControl@WinForms@Azuki@Sgry@@$AA
  0058e	16		 ldc.i.0 0	; u8 0x0
  0058f	6f 00 00 00 00	 callvirt ?set@ShowsDirtBar@AzukiControl@WinForms@Azuki@Sgry@@$$FU$AAMX_N@Z

; 216  : 			this->sentakushi->ShowsHScrollBar = false;

  00594	02		 ldarg.0 	; this$
  00595	7b 00 00 00 00	 ldfld ?sentakushi@QBuild@Mogitter@@3P$AAVAzukiControl@WinForms@Azuki@Sgry@@$AA
  0059a	16		 ldc.i.0 0	; u8 0x0
  0059b	6f 00 00 00 00	 callvirt ?set@ShowsHScrollBar@AzukiControl@WinForms@Azuki@Sgry@@$$FU$AAMX_N@Z

; 217  : 			this->sentakushi->Size = System::Drawing::Size(229, 194);

  005a0	12 20		 ldloca.s 32	; $S13$
  005a2	20 e5 00 00 00	 ldc.i4 229	; i32 0xe5
  005a7	20 c2 00 00 00	 ldc.i4 194	; i32 0xc2
  005ac	28 00 00 00 00	 call ??0Size@Drawing@System@@$$FQ$CAM@HH@Z
  005b1	02		 ldarg.0 	; this$
  005b2	7b 00 00 00 00	 ldfld ?sentakushi@QBuild@Mogitter@@3P$AAVAzukiControl@WinForms@Azuki@Sgry@@$AA
  005b7	11 20		 ldloc.s 32	; $S13$
  005b9	28 00 00 00 00	 call ?set@Size@Control@Forms@Windows@System@@$$FQ$AAMXV1Drawing@5@@Z

; 218  : 			this->sentakushi->TabIndex = 8;

  005be	02		 ldarg.0 	; this$
  005bf	7b 00 00 00 00	 ldfld ?sentakushi@QBuild@Mogitter@@3P$AAVAzukiControl@WinForms@Azuki@Sgry@@$AA
  005c4	1e		 ldc.i.8 8	; i32 0x8
  005c5	28 00 00 00 00	 call ?set@TabIndex@Control@Forms@Windows@System@@$$FQ$AAMXH@Z

; 219  : 			this->sentakushi->ViewType = Sgry::Azuki::ViewType::WrappedProportional;

  005ca	02		 ldarg.0 	; this$
  005cb	7b 00 00 00 00	 ldfld ?sentakushi@QBuild@Mogitter@@3P$AAVAzukiControl@WinForms@Azuki@Sgry@@$AA
  005d0	17		 ldc.i.1 1	; i32 0x1
  005d1	6f 00 00 00 00	 callvirt ?set@ViewType@AzukiControl@WinForms@Azuki@Sgry@@$$FU$AAMXW4145@@Z

; 220  : 			this->sentakushi->ViewWidth = 207;

  005d6	02		 ldarg.0 	; this$
  005d7	7b 00 00 00 00	 ldfld ?sentakushi@QBuild@Mogitter@@3P$AAVAzukiControl@WinForms@Azuki@Sgry@@$AA
  005dc	20 cf 00 00 00	 ldc.i4 207	; i32 0xcf
  005e1	6f 00 00 00 00	 callvirt ?set@ViewWidth@AzukiControl@WinForms@Azuki@Sgry@@$$FU$AAMXH@Z

; 221  : 			this->sentakushi->TextChanged += gcnew System::EventHandler(this, &QBuild::sentakushi_TextChanged);

  005e6	02		 ldarg.0 	; this$
  005e7	7b 00 00 00 00	 ldfld ?sentakushi@QBuild@Mogitter@@3P$AAVAzukiControl@WinForms@Azuki@Sgry@@$AA
  005ec	02		 ldarg.0 	; this$
  005ed	fe 06 00 00 00
	00		 ldftn ?sentakushi_TextChanged@QBuild@Mogitter@@$$FA$AAMXP$AAVObject@System@@P$AAVEventArgs@4@@Z
  005f3	73 00 00 00 00	 newobj ??0EventHandler@System@@$$FQ$AAM@P$AAVObject@1@VIntPtr@1@@Z
  005f8	28 00 00 00 00	 call ?add@TextChanged@Control@Forms@Windows@System@@$$FQ$AAMXP$AAVEventHandler@5@@Z

; 222  : 			// 
; 223  : 			// seikaiNumber
; 224  : 			// 
; 225  : 			this->seikaiNumber->BackColor = System::Drawing::Color::FromArgb(static_cast<System::Int32>(static_cast<System::Byte>(255)), static_cast<System::Int32>(static_cast<System::Byte>(255)), 
; 226  : 				static_cast<System::Int32>(static_cast<System::Byte>(192)));

  005fd	20 ff 00 00 00	 ldc.i4 255	; i32 0xff
  00602	20 ff 00 00 00	 ldc.i4 255	; i32 0xff
  00607	20 c0 00 00 00	 ldc.i4 192	; i32 0xc0
  0060c	28 00 00 00 00	 call ?FromArgb@Color@Drawing@System@@$$FSM?AV123@HHH@Z
  00611	13 1f		 stloc.s 31	; $T5
  00613	02		 ldarg.0 	; this$
  00614	7b 00 00 00 00	 ldfld ?seikaiNumber@QBuild@Mogitter@@3P$AAVNumericUpDown@Forms@Windows@System@@$AA
  00619	11 1f		 ldloc.s 31	; $T5
  0061b	6f 00 00 00 00	 callvirt ?set@BackColor@UpDownBase@Forms@Windows@System@@$$FU$AAMXVColor@Drawing@5@@Z

; 227  : 			this->seikaiNumber->Font = (gcnew System::Drawing::Font(L"メイリオ", 14.25F, System::Drawing::FontStyle::Bold, System::Drawing::GraphicsUnit::Point, 
; 228  : 				static_cast<System::Byte>(128)));

  00620	02		 ldarg.0 	; this$
  00621	7b 00 00 00 00	 ldfld ?seikaiNumber@QBuild@Mogitter@@3P$AAVNumericUpDown@Forms@Windows@System@@$AA
  00626	72 00 00 00 00	 ldstr $StringLiteralTok$??_C@_19HMEDOBKD@0?a0?$KE0?j0?$KK?$AA?$AA@
  0062b	22 00 00 64 41	 ldc.r4 14.250000
  00630	17		 ldc.i.1 1	; i32 0x1
  00631	19		 ldc.i.3 3	; i32 0x3
  00632	20 80 00 00 00	 ldc.i4 128	; u8 0x80
  00637	73 00 00 00 00	 newobj ??0Font@Drawing@System@@$$FQ$AAM@P$AAVString@2@MW4FontStyle@12@W4GraphicsUnit@12@E@Z
  0063c	6f 00 00 00 00	 callvirt ?set@Font@Control@Forms@Windows@System@@$$FU$AAMXP$AAV1Drawing@5@@Z

; 229  : 			this->seikaiNumber->ForeColor = System::Drawing::Color::Red;

  00641	28 00 00 00 00	 call ?get@Red@Color@Drawing@System@@$$FSM?AV234@XZ
  00646	13 1e		 stloc.s 30	; $T6
  00648	02		 ldarg.0 	; this$
  00649	7b 00 00 00 00	 ldfld ?seikaiNumber@QBuild@Mogitter@@3P$AAVNumericUpDown@Forms@Windows@System@@$AA
  0064e	11 1e		 ldloc.s 30	; $T6
  00650	6f 00 00 00 00	 callvirt ?set@ForeColor@UpDownBase@Forms@Windows@System@@$$FU$AAMXVColor@Drawing@5@@Z

; 230  : 			this->seikaiNumber->Location = System::Drawing::Point(298, 52);

  00655	12 1d		 ldloca.s 29	; $S14$
  00657	20 2a 01 00 00	 ldc.i4 298	; i32 0x12a
  0065c	1f 34		 ldc.i4.s 52	; i32 0x34
  0065e	28 00 00 00 00	 call ??0Point@Drawing@System@@$$FQ$CAM@HH@Z
  00663	02		 ldarg.0 	; this$
  00664	7b 00 00 00 00	 ldfld ?seikaiNumber@QBuild@Mogitter@@3P$AAVNumericUpDown@Forms@Windows@System@@$AA
  00669	11 1d		 ldloc.s 29	; $S14$
  0066b	28 00 00 00 00	 call ?set@Location@Control@Forms@Windows@System@@$$FQ$AAMXVPoint@Drawing@5@@Z

; 231  : 			this->seikaiNumber->Maximum = System::Decimal(gcnew cli::array< System::Int32 >(4) {1, 0, 0, 0});

  00670	1a		 ldc.i.4 4	; i32 0x4
  00671	8d 00 00 00 00	 newarr $TypeTok$110E9E58$
  00676	0c		 stloc.2 	; $S15$
  00677	08		 ldloc.2 	; $S15$
  00678	16		 ldc.i.0 0	; i32 0x0
  00679	17		 ldc.i.1 1	; i32 0x1
  0067a	9e		 stelem.i4 
  0067b	08		 ldloc.2 	; $S15$
  0067c	17		 ldc.i.1 1	; i32 0x1
  0067d	16		 ldc.i.0 0	; i32 0x0
  0067e	9e		 stelem.i4 
  0067f	08		 ldloc.2 	; $S15$
  00680	18		 ldc.i.2 2	; i32 0x2
  00681	16		 ldc.i.0 0	; i32 0x0
  00682	9e		 stelem.i4 
  00683	08		 ldloc.2 	; $S15$
  00684	19		 ldc.i.3 3	; i32 0x3
  00685	16		 ldc.i.0 0	; i32 0x0
  00686	9e		 stelem.i4 
  00687	12 1c		 ldloca.s 28	; $T7
  00689	08		 ldloc.2 	; $S15$
  0068a	28 00 00 00 00	 call ??0Decimal@System@@$$FQ$CAM@P$01AH@Z
  0068f	02		 ldarg.0 	; this$
  00690	7b 00 00 00 00	 ldfld ?seikaiNumber@QBuild@Mogitter@@3P$AAVNumericUpDown@Forms@Windows@System@@$AA
  00695	11 1c		 ldloc.s 28	; $T7
  00697	28 00 00 00 00	 call ?set@Maximum@NumericUpDown@Forms@Windows@System@@$$FQ$AAMXVDecimal@5@@Z

; 232  : 			this->seikaiNumber->Minimum = System::Decimal(gcnew cli::array< System::Int32 >(4) {1, 0, 0, 0});

  0069c	1a		 ldc.i.4 4	; i32 0x4
  0069d	8d 00 00 00 00	 newarr $TypeTok$110E9E58$
  006a2	0b		 stloc.1 	; $S16$
  006a3	07		 ldloc.1 	; $S16$
  006a4	16		 ldc.i.0 0	; i32 0x0
  006a5	17		 ldc.i.1 1	; i32 0x1
  006a6	9e		 stelem.i4 
  006a7	07		 ldloc.1 	; $S16$
  006a8	17		 ldc.i.1 1	; i32 0x1
  006a9	16		 ldc.i.0 0	; i32 0x0
  006aa	9e		 stelem.i4 
  006ab	07		 ldloc.1 	; $S16$
  006ac	18		 ldc.i.2 2	; i32 0x2
  006ad	16		 ldc.i.0 0	; i32 0x0
  006ae	9e		 stelem.i4 
  006af	07		 ldloc.1 	; $S16$
  006b0	19		 ldc.i.3 3	; i32 0x3
  006b1	16		 ldc.i.0 0	; i32 0x0
  006b2	9e		 stelem.i4 
  006b3	12 1b		 ldloca.s 27	; $T8
  006b5	07		 ldloc.1 	; $S16$
  006b6	28 00 00 00 00	 call ??0Decimal@System@@$$FQ$CAM@P$01AH@Z
  006bb	02		 ldarg.0 	; this$
  006bc	7b 00 00 00 00	 ldfld ?seikaiNumber@QBuild@Mogitter@@3P$AAVNumericUpDown@Forms@Windows@System@@$AA
  006c1	11 1b		 ldloc.s 27	; $T8
  006c3	28 00 00 00 00	 call ?set@Minimum@NumericUpDown@Forms@Windows@System@@$$FQ$AAMXVDecimal@5@@Z

; 233  : 			this->seikaiNumber->Name = L"seikaiNumber";

  006c8	02		 ldarg.0 	; this$
  006c9	7b 00 00 00 00	 ldfld ?seikaiNumber@QBuild@Mogitter@@3P$AAVNumericUpDown@Forms@Windows@System@@$AA
  006ce	72 00 00 00 00	 ldstr $StringLiteralTok$??_C@_1BK@HHEMDAEM@?$AAs?$AAe?$AAi?$AAk?$AAa?$AAi?$AAN?$AAu?$AAm?$AAb?$AAe?$AAr?$AA?$AA@
  006d3	28 00 00 00 00	 call ?set@Name@Control@Forms@Windows@System@@$$FQ$AAMXP$AAVString@5@@Z

; 234  : 			this->seikaiNumber->Size = System::Drawing::Size(51, 36);

  006d8	12 1a		 ldloca.s 26	; $S17$
  006da	1f 33		 ldc.i4.s 51	; i32 0x33
  006dc	1f 24		 ldc.i4.s 36	; i32 0x24
  006de	28 00 00 00 00	 call ??0Size@Drawing@System@@$$FQ$CAM@HH@Z
  006e3	02		 ldarg.0 	; this$
  006e4	7b 00 00 00 00	 ldfld ?seikaiNumber@QBuild@Mogitter@@3P$AAVNumericUpDown@Forms@Windows@System@@$AA
  006e9	11 1a		 ldloc.s 26	; $S17$
  006eb	28 00 00 00 00	 call ?set@Size@Control@Forms@Windows@System@@$$FQ$AAMXV1Drawing@5@@Z

; 235  : 			this->seikaiNumber->TabIndex = 10;

  006f0	02		 ldarg.0 	; this$
  006f1	7b 00 00 00 00	 ldfld ?seikaiNumber@QBuild@Mogitter@@3P$AAVNumericUpDown@Forms@Windows@System@@$AA
  006f6	1f 0a		 ldc.i4.s 10	; i32 0xa
  006f8	28 00 00 00 00	 call ?set@TabIndex@Control@Forms@Windows@System@@$$FQ$AAMXH@Z

; 236  : 			this->seikaiNumber->TextAlign = System::Windows::Forms::HorizontalAlignment::Right;

  006fd	02		 ldarg.0 	; this$
  006fe	7b 00 00 00 00	 ldfld ?seikaiNumber@QBuild@Mogitter@@3P$AAVNumericUpDown@Forms@Windows@System@@$AA
  00703	17		 ldc.i.1 1	; i32 0x1
  00704	28 00 00 00 00	 call ?set@TextAlign@UpDownBase@Forms@Windows@System@@$$FQ$AAMXW4HorizontalAlignment@345@@Z

; 237  : 			this->seikaiNumber->Value = System::Decimal(gcnew cli::array< System::Int32 >(4) {1, 0, 0, 0});

  00709	1a		 ldc.i.4 4	; i32 0x4
  0070a	8d 00 00 00 00	 newarr $TypeTok$110E9E58$
  0070f	0a		 stloc.0 	; $S18$
  00710	06		 ldloc.0 	; $S18$
  00711	16		 ldc.i.0 0	; i32 0x0
  00712	17		 ldc.i.1 1	; i32 0x1
  00713	9e		 stelem.i4 
  00714	06		 ldloc.0 	; $S18$
  00715	17		 ldc.i.1 1	; i32 0x1
  00716	16		 ldc.i.0 0	; i32 0x0
  00717	9e		 stelem.i4 
  00718	06		 ldloc.0 	; $S18$
  00719	18		 ldc.i.2 2	; i32 0x2
  0071a	16		 ldc.i.0 0	; i32 0x0
  0071b	9e		 stelem.i4 
  0071c	06		 ldloc.0 	; $S18$
  0071d	19		 ldc.i.3 3	; i32 0x3
  0071e	16		 ldc.i.0 0	; i32 0x0
  0071f	9e		 stelem.i4 
  00720	12 19		 ldloca.s 25	; $T9
  00722	06		 ldloc.0 	; $S18$
  00723	28 00 00 00 00	 call ??0Decimal@System@@$$FQ$CAM@P$01AH@Z
  00728	02		 ldarg.0 	; this$
  00729	7b 00 00 00 00	 ldfld ?seikaiNumber@QBuild@Mogitter@@3P$AAVNumericUpDown@Forms@Windows@System@@$AA
  0072e	11 19		 ldloc.s 25	; $T9
  00730	28 00 00 00 00	 call ?set@Value@NumericUpDown@Forms@Windows@System@@$$FQ$AAMXVDecimal@5@@Z

; 238  : 			// 
; 239  : 			// label5
; 240  : 			// 
; 241  : 			this->label5->AutoSize = true;

  00735	02		 ldarg.0 	; this$
  00736	7b 00 00 00 00	 ldfld ?label5@QBuild@Mogitter@@3P$AAVLabel@Forms@Windows@System@@$AA
  0073b	17		 ldc.i.1 1	; u8 0x1
  0073c	6f 00 00 00 00	 callvirt ?set@AutoSize@Label@Forms@Windows@System@@$$FU$AAMX_N@Z

; 242  : 			this->label5->Font = (gcnew System::Drawing::Font(L"メイリオ", 12, System::Drawing::FontStyle::Regular, System::Drawing::GraphicsUnit::Point, 
; 243  : 				static_cast<System::Byte>(128)));

  00741	02		 ldarg.0 	; this$
  00742	7b 00 00 00 00	 ldfld ?label5@QBuild@Mogitter@@3P$AAVLabel@Forms@Windows@System@@$AA
  00747	72 00 00 00 00	 ldstr $StringLiteralTok$??_C@_19HMEDOBKD@0?a0?$KE0?j0?$KK?$AA?$AA@
  0074c	22 00 00 40 41	 ldc.r4 12.000000
  00751	16		 ldc.i.0 0	; i32 0x0
  00752	19		 ldc.i.3 3	; i32 0x3
  00753	20 80 00 00 00	 ldc.i4 128	; u8 0x80
  00758	73 00 00 00 00	 newobj ??0Font@Drawing@System@@$$FQ$AAM@P$AAVString@2@MW4FontStyle@12@W4GraphicsUnit@12@E@Z
  0075d	6f 00 00 00 00	 callvirt ?set@Font@Control@Forms@Windows@System@@$$FU$AAMXP$AAV1Drawing@5@@Z

; 244  : 			this->label5->Location = System::Drawing::Point(3, 32);

  00762	12 18		 ldloca.s 24	; $S19$
  00764	19		 ldc.i.3 3	; i32 0x3
  00765	1f 20		 ldc.i4.s 32	; i32 0x20
  00767	28 00 00 00 00	 call ??0Point@Drawing@System@@$$FQ$CAM@HH@Z
  0076c	02		 ldarg.0 	; this$
  0076d	7b 00 00 00 00	 ldfld ?label5@QBuild@Mogitter@@3P$AAVLabel@Forms@Windows@System@@$AA
  00772	11 18		 ldloc.s 24	; $S19$
  00774	28 00 00 00 00	 call ?set@Location@Control@Forms@Windows@System@@$$FQ$AAMXVPoint@Drawing@5@@Z

; 245  : 			this->label5->Name = L"label5";

  00779	02		 ldarg.0 	; this$
  0077a	7b 00 00 00 00	 ldfld ?label5@QBuild@Mogitter@@3P$AAVLabel@Forms@Windows@System@@$AA
  0077f	72 00 00 00 00	 ldstr $StringLiteralTok$??_C@_1O@MOEBAFHL@?$AAl?$AAa?$AAb?$AAe?$AAl?$AA5?$AA?$AA@
  00784	28 00 00 00 00	 call ?set@Name@Control@Forms@Windows@System@@$$FQ$AAMXP$AAVString@5@@Z

; 246  : 			this->label5->Size = System::Drawing::Size(232, 24);

  00789	12 17		 ldloca.s 23	; $S20$
  0078b	20 e8 00 00 00	 ldc.i4 232	; i32 0xe8
  00790	1f 18		 ldc.i4.s 24	; i32 0x18
  00792	28 00 00 00 00	 call ??0Size@Drawing@System@@$$FQ$CAM@HH@Z
  00797	02		 ldarg.0 	; this$
  00798	7b 00 00 00 00	 ldfld ?label5@QBuild@Mogitter@@3P$AAVLabel@Forms@Windows@System@@$AA
  0079d	11 17		 ldloc.s 23	; $S20$
  0079f	28 00 00 00 00	 call ?set@Size@Control@Forms@Windows@System@@$$FQ$AAMXV1Drawing@5@@Z

; 247  : 			this->label5->TabIndex = 9;

  007a4	02		 ldarg.0 	; this$
  007a5	7b 00 00 00 00	 ldfld ?label5@QBuild@Mogitter@@3P$AAVLabel@Forms@Windows@System@@$AA
  007aa	1f 09		 ldc.i4.s 9	; i32 0x9
  007ac	28 00 00 00 00	 call ?set@TabIndex@Control@Forms@Windows@System@@$$FQ$AAMXH@Z

; 248  : 			this->label5->Text = L"正解以外の選択肢(各行に１つ)";

  007b1	02		 ldarg.0 	; this$
  007b2	7b 00 00 00 00	 ldfld ?label5@QBuild@Mogitter@@3P$AAVLabel@Forms@Windows@System@@$AA
  007b7	72 00 00 00 00	 ldstr $StringLiteralTok$??_C@_1CA@NAKEPKNH@kc?$IJ?cN?eY?$BG0n?$JAxb?$JO?$IA?$KC?$AA?$CIT?$AE?$IIL0k?$PP?$BB0d?$AA?$CJ?$AA?$AA@
  007bc	6f 00 00 00 00	 callvirt ?set@Text@Label@Forms@Windows@System@@$$FU$AAMXP$AAVString@5@@Z

; 249  : 			// 
; 250  : 			// label4
; 251  : 			// 
; 252  : 			this->label4->Font = (gcnew System::Drawing::Font(L"メイリオ", 11.25F, System::Drawing::FontStyle::Regular, System::Drawing::GraphicsUnit::Point, 
; 253  : 				static_cast<System::Byte>(128)));

  007c1	02		 ldarg.0 	; this$
  007c2	7b 00 00 00 00	 ldfld ?label4@QBuild@Mogitter@@3P$AAVLabel@Forms@Windows@System@@$AA
  007c7	72 00 00 00 00	 ldstr $StringLiteralTok$??_C@_19HMEDOBKD@0?a0?$KE0?j0?$KK?$AA?$AA@
  007cc	22 00 00 34 41	 ldc.r4 11.250000
  007d1	16		 ldc.i.0 0	; i32 0x0
  007d2	19		 ldc.i.3 3	; i32 0x3
  007d3	20 80 00 00 00	 ldc.i4 128	; u8 0x80
  007d8	73 00 00 00 00	 newobj ??0Font@Drawing@System@@$$FQ$AAM@P$AAVString@2@MW4FontStyle@12@W4GraphicsUnit@12@E@Z
  007dd	6f 00 00 00 00	 callvirt ?set@Font@Control@Forms@Windows@System@@$$FU$AAMXP$AAV1Drawing@5@@Z

; 254  : 			this->label4->Location = System::Drawing::Point(355, 59);

  007e2	12 16		 ldloca.s 22	; $S21$
  007e4	20 63 01 00 00	 ldc.i4 355	; i32 0x163
  007e9	1f 3b		 ldc.i4.s 59	; i32 0x3b
  007eb	28 00 00 00 00	 call ??0Point@Drawing@System@@$$FQ$CAM@HH@Z
  007f0	02		 ldarg.0 	; this$
  007f1	7b 00 00 00 00	 ldfld ?label4@QBuild@Mogitter@@3P$AAVLabel@Forms@Windows@System@@$AA
  007f6	11 16		 ldloc.s 22	; $S21$
  007f8	28 00 00 00 00	 call ?set@Location@Control@Forms@Windows@System@@$$FQ$AAMXVPoint@Drawing@5@@Z

; 255  : 			this->label4->Name = L"label4";

  007fd	02		 ldarg.0 	; this$
  007fe	7b 00 00 00 00	 ldfld ?label4@QBuild@Mogitter@@3P$AAVLabel@Forms@Windows@System@@$AA
  00803	72 00 00 00 00	 ldstr $StringLiteralTok$??_C@_1O@HGPNGCBO@?$AAl?$AAa?$AAb?$AAe?$AAl?$AA4?$AA?$AA@
  00808	28 00 00 00 00	 call ?set@Name@Control@Forms@Windows@System@@$$FQ$AAMXP$AAVString@5@@Z

; 256  : 			this->label4->Size = System::Drawing::Size(88, 29);

  0080d	12 15		 ldloca.s 21	; $S22$
  0080f	1f 58		 ldc.i4.s 88	; i32 0x58
  00811	1f 1d		 ldc.i4.s 29	; i32 0x1d
  00813	28 00 00 00 00	 call ??0Size@Drawing@System@@$$FQ$CAM@HH@Z
  00818	02		 ldarg.0 	; this$
  00819	7b 00 00 00 00	 ldfld ?label4@QBuild@Mogitter@@3P$AAVLabel@Forms@Windows@System@@$AA
  0081e	11 15		 ldloc.s 21	; $S22$
  00820	28 00 00 00 00	 call ?set@Size@Control@Forms@Windows@System@@$$FQ$AAMXV1Drawing@5@@Z

; 257  : 			this->label4->TabIndex = 6;

  00825	02		 ldarg.0 	; this$
  00826	7b 00 00 00 00	 ldfld ?label4@QBuild@Mogitter@@3P$AAVLabel@Forms@Windows@System@@$AA
  0082b	1c		 ldc.i.6 6	; i32 0x6
  0082c	28 00 00 00 00	 call ?set@TabIndex@Control@Forms@Windows@System@@$$FQ$AAMXH@Z

; 258  : 			this->label4->Text = L"番目にする";

  00831	02		 ldarg.0 	; this$
  00832	7b 00 00 00 00	 ldfld ?label4@QBuild@Mogitter@@3P$AAVLabel@Forms@Windows@System@@$AA
  00837	72 00 00 00 00	 ldstr $StringLiteralTok$??_C@_1M@NCNJOIHJ@ujv?n0k0Y0?$IL?$AA?$AA@
  0083c	6f 00 00 00 00	 callvirt ?set@Text@Label@Forms@Windows@System@@$$FU$AAMXP$AAVString@5@@Z

; 259  : 			// 
; 260  : 			// label3
; 261  : 			// 
; 262  : 			this->label3->Font = (gcnew System::Drawing::Font(L"メイリオ", 11.25F, System::Drawing::FontStyle::Regular, System::Drawing::GraphicsUnit::Point, 
; 263  : 				static_cast<System::Byte>(128)));

  00841	02		 ldarg.0 	; this$
  00842	7b 00 00 00 00	 ldfld ?label3@QBuild@Mogitter@@3P$AAVLabel@Forms@Windows@System@@$AA
  00847	72 00 00 00 00	 ldstr $StringLiteralTok$??_C@_19HMEDOBKD@0?a0?$KE0?j0?$KK?$AA?$AA@
  0084c	22 00 00 34 41	 ldc.r4 11.250000
  00851	16		 ldc.i.0 0	; i32 0x0
  00852	19		 ldc.i.3 3	; i32 0x3
  00853	20 80 00 00 00	 ldc.i4 128	; u8 0x80
  00858	73 00 00 00 00	 newobj ??0Font@Drawing@System@@$$FQ$AAM@P$AAVString@2@MW4FontStyle@12@W4GraphicsUnit@12@E@Z
  0085d	6f 00 00 00 00	 callvirt ?set@Font@Control@Forms@Windows@System@@$$FU$AAMXP$AAV1Drawing@5@@Z

; 264  : 			this->label3->Location = System::Drawing::Point(241, 59);

  00862	12 14		 ldloca.s 20	; $S23$
  00864	20 f1 00 00 00	 ldc.i4 241	; i32 0xf1
  00869	1f 3b		 ldc.i4.s 59	; i32 0x3b
  0086b	28 00 00 00 00	 call ??0Point@Drawing@System@@$$FQ$CAM@HH@Z
  00870	02		 ldarg.0 	; this$
  00871	7b 00 00 00 00	 ldfld ?label3@QBuild@Mogitter@@3P$AAVLabel@Forms@Windows@System@@$AA
  00876	11 14		 ldloc.s 20	; $S23$
  00878	28 00 00 00 00	 call ?set@Location@Control@Forms@Windows@System@@$$FQ$AAMXVPoint@Drawing@5@@Z

; 265  : 			this->label3->Name = L"label3";

  0087d	02		 ldarg.0 	; this$
  0087e	7b 00 00 00 00	 ldfld ?label3@QBuild@Mogitter@@3P$AAVLabel@Forms@Windows@System@@$AA
  00883	72 00 00 00 00	 ldstr $StringLiteralTok$??_C@_1O@OLCKFKKH@?$AAl?$AAa?$AAb?$AAe?$AAl?$AA3?$AA?$AA@
  00888	28 00 00 00 00	 call ?set@Name@Control@Forms@Windows@System@@$$FQ$AAMXP$AAVString@5@@Z

; 266  : 			this->label3->Size = System::Drawing::Size(62, 29);

  0088d	12 13		 ldloca.s 19	; $S24$
  0088f	1f 3e		 ldc.i4.s 62	; i32 0x3e
  00891	1f 1d		 ldc.i4.s 29	; i32 0x1d
  00893	28 00 00 00 00	 call ??0Size@Drawing@System@@$$FQ$CAM@HH@Z
  00898	02		 ldarg.0 	; this$
  00899	7b 00 00 00 00	 ldfld ?label3@QBuild@Mogitter@@3P$AAVLabel@Forms@Windows@System@@$AA
  0089e	11 13		 ldloc.s 19	; $S24$
  008a0	28 00 00 00 00	 call ?set@Size@Control@Forms@Windows@System@@$$FQ$AAMXV1Drawing@5@@Z

; 267  : 			this->label3->TabIndex = 5;

  008a5	02		 ldarg.0 	; this$
  008a6	7b 00 00 00 00	 ldfld ?label3@QBuild@Mogitter@@3P$AAVLabel@Forms@Windows@System@@$AA
  008ab	1b		 ldc.i.5 5	; i32 0x5
  008ac	28 00 00 00 00	 call ?set@TabIndex@Control@Forms@Windows@System@@$$FQ$AAMXH@Z

; 268  : 			this->label3->Text = L"正解を";

  008b1	02		 ldarg.0 	; this$
  008b2	7b 00 00 00 00	 ldfld ?label3@QBuild@Mogitter@@3P$AAVLabel@Forms@Windows@System@@$AA
  008b7	72 00 00 00 00	 ldstr $StringLiteralTok$??_C@_17FCAMOIKB@kc?$IJ?c0?$JC?$AA?$AA@
  008bc	6f 00 00 00 00	 callvirt ?set@Text@Label@Forms@Windows@System@@$$FU$AAMXP$AAVString@5@@Z

; 269  : 			// 
; 270  : 			// katakana_abc
; 271  : 			// 
; 272  : 			this->katakana_abc->AutoSize = true;

  008c1	02		 ldarg.0 	; this$
  008c2	7b 00 00 00 00	 ldfld ?katakana_abc@QBuild@Mogitter@@3P$AAVRadioButton@Forms@Windows@System@@$AA
  008c7	17		 ldc.i.1 1	; u8 0x1
  008c8	6f 00 00 00 00	 callvirt ?set@AutoSize@ButtonBase@Forms@Windows@System@@$$FU$AAMX_N@Z

; 273  : 			this->katakana_abc->Font = (gcnew System::Drawing::Font(L"メイリオ", 11.25F, System::Drawing::FontStyle::Regular, System::Drawing::GraphicsUnit::Point, 
; 274  : 				static_cast<System::Byte>(128)));

  008cd	02		 ldarg.0 	; this$
  008ce	7b 00 00 00 00	 ldfld ?katakana_abc@QBuild@Mogitter@@3P$AAVRadioButton@Forms@Windows@System@@$AA
  008d3	72 00 00 00 00	 ldstr $StringLiteralTok$??_C@_19HMEDOBKD@0?a0?$KE0?j0?$KK?$AA?$AA@
  008d8	22 00 00 34 41	 ldc.r4 11.250000
  008dd	16		 ldc.i.0 0	; i32 0x0
  008de	19		 ldc.i.3 3	; i32 0x3
  008df	20 80 00 00 00	 ldc.i4 128	; u8 0x80
  008e4	73 00 00 00 00	 newobj ??0Font@Drawing@System@@$$FQ$AAM@P$AAVString@2@MW4FontStyle@12@W4GraphicsUnit@12@E@Z
  008e9	6f 00 00 00 00	 callvirt ?set@Font@Control@Forms@Windows@System@@$$FU$AAMXP$AAV1Drawing@5@@Z

; 275  : 			this->katakana_abc->Location = System::Drawing::Point(298, 203);

  008ee	12 12		 ldloca.s 18	; $S25$
  008f0	20 2a 01 00 00	 ldc.i4 298	; i32 0x12a
  008f5	20 cb 00 00 00	 ldc.i4 203	; i32 0xcb
  008fa	28 00 00 00 00	 call ??0Point@Drawing@System@@$$FQ$CAM@HH@Z
  008ff	02		 ldarg.0 	; this$
  00900	7b 00 00 00 00	 ldfld ?katakana_abc@QBuild@Mogitter@@3P$AAVRadioButton@Forms@Windows@System@@$AA
  00905	11 12		 ldloc.s 18	; $S25$
  00907	28 00 00 00 00	 call ?set@Location@Control@Forms@Windows@System@@$$FQ$AAMXVPoint@Drawing@5@@Z

; 276  : 			this->katakana_abc->Name = L"katakana_abc";

  0090c	02		 ldarg.0 	; this$
  0090d	7b 00 00 00 00	 ldfld ?katakana_abc@QBuild@Mogitter@@3P$AAVRadioButton@Forms@Windows@System@@$AA
  00912	72 00 00 00 00	 ldstr $StringLiteralTok$??_C@_1BK@FJNMECFH@?$AAk?$AAa?$AAt?$AAa?$AAk?$AAa?$AAn?$AAa?$AA_?$AAa?$AAb?$AAc?$AA?$AA@
  00917	28 00 00 00 00	 call ?set@Name@Control@Forms@Windows@System@@$$FQ$AAMXP$AAVString@5@@Z

; 277  : 			this->katakana_abc->Size = System::Drawing::Size(112, 27);

  0091c	12 11		 ldloca.s 17	; $S26$
  0091e	1f 70		 ldc.i4.s 112	; i32 0x70
  00920	1f 1b		 ldc.i4.s 27	; i32 0x1b
  00922	28 00 00 00 00	 call ??0Size@Drawing@System@@$$FQ$CAM@HH@Z
  00927	02		 ldarg.0 	; this$
  00928	7b 00 00 00 00	 ldfld ?katakana_abc@QBuild@Mogitter@@3P$AAVRadioButton@Forms@Windows@System@@$AA
  0092d	11 11		 ldloc.s 17	; $S26$
  0092f	28 00 00 00 00	 call ?set@Size@Control@Forms@Windows@System@@$$FQ$AAMXV1Drawing@5@@Z

; 278  : 			this->katakana_abc->TabIndex = 4;

  00934	02		 ldarg.0 	; this$
  00935	7b 00 00 00 00	 ldfld ?katakana_abc@QBuild@Mogitter@@3P$AAVRadioButton@Forms@Windows@System@@$AA
  0093a	1a		 ldc.i.4 4	; i32 0x4
  0093b	28 00 00 00 00	 call ?set@TabIndex@Control@Forms@Windows@System@@$$FQ$AAMXH@Z

; 279  : 			this->katakana_abc->TabStop = true;

  00940	02		 ldarg.0 	; this$
  00941	7b 00 00 00 00	 ldfld ?katakana_abc@QBuild@Mogitter@@3P$AAVRadioButton@Forms@Windows@System@@$AA
  00946	17		 ldc.i.1 1	; u8 0x1
  00947	28 00 00 00 00	 call ?set@TabStop@RadioButton@Forms@Windows@System@@$$FQ$AAMX_N@Z

; 280  : 			this->katakana_abc->Text = L"ア,イ,ウ,･･･";

  0094c	02		 ldarg.0 	; this$
  0094d	7b 00 00 00 00	 ldfld ?katakana_abc@QBuild@Mogitter@@3P$AAVRadioButton@Forms@Windows@System@@$AA
  00952	72 00 00 00 00	 ldstr $StringLiteralTok$??_C@_1BE@ELJFCLDL@0?$KC?$AA?00?$KE?$AA?00?$KG?$AA?0?$PPe?$PPe?$PPe?$AA?$AA@
  00957	6f 00 00 00 00	 callvirt ?set@Text@ButtonBase@Forms@Windows@System@@$$FU$AAMXP$AAVString@5@@Z

; 281  : 			this->katakana_abc->UseVisualStyleBackColor = true;

  0095c	02		 ldarg.0 	; this$
  0095d	7b 00 00 00 00	 ldfld ?katakana_abc@QBuild@Mogitter@@3P$AAVRadioButton@Forms@Windows@System@@$AA
  00962	17		 ldc.i.1 1	; u8 0x1
  00963	28 00 00 00 00	 call ?set@UseVisualStyleBackColor@ButtonBase@Forms@Windows@System@@$$FQ$AAMX_N@Z

; 282  : 			// 
; 283  : 			// kana_abc
; 284  : 			// 
; 285  : 			this->kana_abc->AutoSize = true;

  00968	02		 ldarg.0 	; this$
  00969	7b 00 00 00 00	 ldfld ?kana_abc@QBuild@Mogitter@@3P$AAVRadioButton@Forms@Windows@System@@$AA
  0096e	17		 ldc.i.1 1	; u8 0x1
  0096f	6f 00 00 00 00	 callvirt ?set@AutoSize@ButtonBase@Forms@Windows@System@@$$FU$AAMX_N@Z

; 286  : 			this->kana_abc->Font = (gcnew System::Drawing::Font(L"メイリオ", 11.25F, System::Drawing::FontStyle::Regular, System::Drawing::GraphicsUnit::Point, 
; 287  : 				static_cast<System::Byte>(128)));

  00974	02		 ldarg.0 	; this$
  00975	7b 00 00 00 00	 ldfld ?kana_abc@QBuild@Mogitter@@3P$AAVRadioButton@Forms@Windows@System@@$AA
  0097a	72 00 00 00 00	 ldstr $StringLiteralTok$??_C@_19HMEDOBKD@0?a0?$KE0?j0?$KK?$AA?$AA@
  0097f	22 00 00 34 41	 ldc.r4 11.250000
  00984	16		 ldc.i.0 0	; i32 0x0
  00985	19		 ldc.i.3 3	; i32 0x3
  00986	20 80 00 00 00	 ldc.i4 128	; u8 0x80
  0098b	73 00 00 00 00	 newobj ??0Font@Drawing@System@@$$FQ$AAM@P$AAVString@2@MW4FontStyle@12@W4GraphicsUnit@12@E@Z
  00990	6f 00 00 00 00	 callvirt ?set@Font@Control@Forms@Windows@System@@$$FU$AAMXP$AAV1Drawing@5@@Z

; 288  : 			this->kana_abc->Location = System::Drawing::Point(298, 170);

  00995	12 10		 ldloca.s 16	; $S27$
  00997	20 2a 01 00 00	 ldc.i4 298	; i32 0x12a
  0099c	20 aa 00 00 00	 ldc.i4 170	; i32 0xaa
  009a1	28 00 00 00 00	 call ??0Point@Drawing@System@@$$FQ$CAM@HH@Z
  009a6	02		 ldarg.0 	; this$
  009a7	7b 00 00 00 00	 ldfld ?kana_abc@QBuild@Mogitter@@3P$AAVRadioButton@Forms@Windows@System@@$AA
  009ac	11 10		 ldloc.s 16	; $S27$
  009ae	28 00 00 00 00	 call ?set@Location@Control@Forms@Windows@System@@$$FQ$AAMXVPoint@Drawing@5@@Z

; 289  : 			this->kana_abc->Name = L"kana_abc";

  009b3	02		 ldarg.0 	; this$
  009b4	7b 00 00 00 00	 ldfld ?kana_abc@QBuild@Mogitter@@3P$AAVRadioButton@Forms@Windows@System@@$AA
  009b9	72 00 00 00 00	 ldstr $StringLiteralTok$??_C@_1BC@NJJBOGAI@?$AAk?$AAa?$AAn?$AAa?$AA_?$AAa?$AAb?$AAc?$AA?$AA@
  009be	28 00 00 00 00	 call ?set@Name@Control@Forms@Windows@System@@$$FQ$AAMXP$AAVString@5@@Z

; 290  : 			this->kana_abc->Size = System::Drawing::Size(112, 27);

  009c3	12 0f		 ldloca.s 15	; $S28$
  009c5	1f 70		 ldc.i4.s 112	; i32 0x70
  009c7	1f 1b		 ldc.i4.s 27	; i32 0x1b
  009c9	28 00 00 00 00	 call ??0Size@Drawing@System@@$$FQ$CAM@HH@Z
  009ce	02		 ldarg.0 	; this$
  009cf	7b 00 00 00 00	 ldfld ?kana_abc@QBuild@Mogitter@@3P$AAVRadioButton@Forms@Windows@System@@$AA
  009d4	11 0f		 ldloc.s 15	; $S28$
  009d6	28 00 00 00 00	 call ?set@Size@Control@Forms@Windows@System@@$$FQ$AAMXV1Drawing@5@@Z

; 291  : 			this->kana_abc->TabIndex = 3;

  009db	02		 ldarg.0 	; this$
  009dc	7b 00 00 00 00	 ldfld ?kana_abc@QBuild@Mogitter@@3P$AAVRadioButton@Forms@Windows@System@@$AA
  009e1	19		 ldc.i.3 3	; i32 0x3
  009e2	28 00 00 00 00	 call ?set@TabIndex@Control@Forms@Windows@System@@$$FQ$AAMXH@Z

; 292  : 			this->kana_abc->TabStop = true;

  009e7	02		 ldarg.0 	; this$
  009e8	7b 00 00 00 00	 ldfld ?kana_abc@QBuild@Mogitter@@3P$AAVRadioButton@Forms@Windows@System@@$AA
  009ed	17		 ldc.i.1 1	; u8 0x1
  009ee	28 00 00 00 00	 call ?set@TabStop@RadioButton@Forms@Windows@System@@$$FQ$AAMX_N@Z

; 293  : 			this->kana_abc->Text = L"あ,い,う,･･･";

  009f3	02		 ldarg.0 	; this$
  009f4	7b 00 00 00 00	 ldfld ?kana_abc@QBuild@Mogitter@@3P$AAVRadioButton@Forms@Windows@System@@$AA
  009f9	72 00 00 00 00	 ldstr $StringLiteralTok$??_C@_1BE@CCEJPIJB@0B?$AA?00D?$AA?00F?$AA?0?$PPe?$PPe?$PPe?$AA?$AA@
  009fe	6f 00 00 00 00	 callvirt ?set@Text@ButtonBase@Forms@Windows@System@@$$FU$AAMXP$AAVString@5@@Z

; 294  : 			this->kana_abc->UseVisualStyleBackColor = true;

  00a03	02		 ldarg.0 	; this$
  00a04	7b 00 00 00 00	 ldfld ?kana_abc@QBuild@Mogitter@@3P$AAVRadioButton@Forms@Windows@System@@$AA
  00a09	17		 ldc.i.1 1	; u8 0x1
  00a0a	28 00 00 00 00	 call ?set@UseVisualStyleBackColor@ButtonBase@Forms@Windows@System@@$$FQ$AAMX_N@Z

; 295  : 			// 
; 296  : 			// ABC_
; 297  : 			// 
; 298  : 			this->ABC_->AutoSize = true;

  00a0f	02		 ldarg.0 	; this$
  00a10	7b 00 00 00 00	 ldfld ?ABC_@QBuild@Mogitter@@3P$AAVRadioButton@Forms@Windows@System@@$AA
  00a15	17		 ldc.i.1 1	; u8 0x1
  00a16	6f 00 00 00 00	 callvirt ?set@AutoSize@ButtonBase@Forms@Windows@System@@$$FU$AAMX_N@Z

; 299  : 			this->ABC_->Font = (gcnew System::Drawing::Font(L"メイリオ", 11.25F, System::Drawing::FontStyle::Regular, System::Drawing::GraphicsUnit::Point, 
; 300  : 				static_cast<System::Byte>(128)));

  00a1b	02		 ldarg.0 	; this$
  00a1c	7b 00 00 00 00	 ldfld ?ABC_@QBuild@Mogitter@@3P$AAVRadioButton@Forms@Windows@System@@$AA
  00a21	72 00 00 00 00	 ldstr $StringLiteralTok$??_C@_19HMEDOBKD@0?a0?$KE0?j0?$KK?$AA?$AA@
  00a26	22 00 00 34 41	 ldc.r4 11.250000
  00a2b	16		 ldc.i.0 0	; i32 0x0
  00a2c	19		 ldc.i.3 3	; i32 0x3
  00a2d	20 80 00 00 00	 ldc.i4 128	; u8 0x80
  00a32	73 00 00 00 00	 newobj ??0Font@Drawing@System@@$$FQ$AAM@P$AAVString@2@MW4FontStyle@12@W4GraphicsUnit@12@E@Z
  00a37	6f 00 00 00 00	 callvirt ?set@Font@Control@Forms@Windows@System@@$$FU$AAMXP$AAV1Drawing@5@@Z

; 301  : 			this->ABC_->Location = System::Drawing::Point(298, 137);

  00a3c	12 0e		 ldloca.s 14	; $S29$
  00a3e	20 2a 01 00 00	 ldc.i4 298	; i32 0x12a
  00a43	20 89 00 00 00	 ldc.i4 137	; i32 0x89
  00a48	28 00 00 00 00	 call ??0Point@Drawing@System@@$$FQ$CAM@HH@Z
  00a4d	02		 ldarg.0 	; this$
  00a4e	7b 00 00 00 00	 ldfld ?ABC_@QBuild@Mogitter@@3P$AAVRadioButton@Forms@Windows@System@@$AA
  00a53	11 0e		 ldloc.s 14	; $S29$
  00a55	28 00 00 00 00	 call ?set@Location@Control@Forms@Windows@System@@$$FQ$AAMXVPoint@Drawing@5@@Z

; 302  : 			this->ABC_->Name = L"ABC_";

  00a5a	02		 ldarg.0 	; this$
  00a5b	7b 00 00 00 00	 ldfld ?ABC_@QBuild@Mogitter@@3P$AAVRadioButton@Forms@Windows@System@@$AA
  00a60	72 00 00 00 00	 ldstr $StringLiteralTok$??_C@_19BMBHFJLB@?$AAA?$AAB?$AAC?$AA_?$AA?$AA@
  00a65	28 00 00 00 00	 call ?set@Name@Control@Forms@Windows@System@@$$FQ$AAMXP$AAVString@5@@Z

; 303  : 			this->ABC_->Size = System::Drawing::Size(97, 27);

  00a6a	12 0d		 ldloca.s 13	; $S30$
  00a6c	1f 61		 ldc.i4.s 97	; i32 0x61
  00a6e	1f 1b		 ldc.i4.s 27	; i32 0x1b
  00a70	28 00 00 00 00	 call ??0Size@Drawing@System@@$$FQ$CAM@HH@Z
  00a75	02		 ldarg.0 	; this$
  00a76	7b 00 00 00 00	 ldfld ?ABC_@QBuild@Mogitter@@3P$AAVRadioButton@Forms@Windows@System@@$AA
  00a7b	11 0d		 ldloc.s 13	; $S30$
  00a7d	28 00 00 00 00	 call ?set@Size@Control@Forms@Windows@System@@$$FQ$AAMXV1Drawing@5@@Z

; 304  : 			this->ABC_->TabIndex = 2;

  00a82	02		 ldarg.0 	; this$
  00a83	7b 00 00 00 00	 ldfld ?ABC_@QBuild@Mogitter@@3P$AAVRadioButton@Forms@Windows@System@@$AA
  00a88	18		 ldc.i.2 2	; i32 0x2
  00a89	28 00 00 00 00	 call ?set@TabIndex@Control@Forms@Windows@System@@$$FQ$AAMXH@Z

; 305  : 			this->ABC_->TabStop = true;

  00a8e	02		 ldarg.0 	; this$
  00a8f	7b 00 00 00 00	 ldfld ?ABC_@QBuild@Mogitter@@3P$AAVRadioButton@Forms@Windows@System@@$AA
  00a94	17		 ldc.i.1 1	; u8 0x1
  00a95	28 00 00 00 00	 call ?set@TabStop@RadioButton@Forms@Windows@System@@$$FQ$AAMX_N@Z

; 306  : 			this->ABC_->Text = L"A,B,C,･･･";

  00a9a	02		 ldarg.0 	; this$
  00a9b	7b 00 00 00 00	 ldfld ?ABC_@QBuild@Mogitter@@3P$AAVRadioButton@Forms@Windows@System@@$AA
  00aa0	72 00 00 00 00	 ldstr $StringLiteralTok$??_C@_1BE@JHNJAMHM@?$AAA?$AA?0?$AAB?$AA?0?$AAC?$AA?0?$PPe?$PPe?$PPe?$AA?$AA@
  00aa5	6f 00 00 00 00	 callvirt ?set@Text@ButtonBase@Forms@Windows@System@@$$FU$AAMXP$AAVString@5@@Z

; 307  : 			this->ABC_->UseVisualStyleBackColor = true;

  00aaa	02		 ldarg.0 	; this$
  00aab	7b 00 00 00 00	 ldfld ?ABC_@QBuild@Mogitter@@3P$AAVRadioButton@Forms@Windows@System@@$AA
  00ab0	17		 ldc.i.1 1	; u8 0x1
  00ab1	28 00 00 00 00	 call ?set@UseVisualStyleBackColor@ButtonBase@Forms@Windows@System@@$$FQ$AAMX_N@Z

; 308  : 			// 
; 309  : 			// abc
; 310  : 			// 
; 311  : 			this->abc->AutoSize = true;

  00ab6	02		 ldarg.0 	; this$
  00ab7	7b 00 00 00 00	 ldfld ?abc@QBuild@Mogitter@@3P$AAVRadioButton@Forms@Windows@System@@$AA
  00abc	17		 ldc.i.1 1	; u8 0x1
  00abd	6f 00 00 00 00	 callvirt ?set@AutoSize@ButtonBase@Forms@Windows@System@@$$FU$AAMX_N@Z

; 312  : 			this->abc->Checked = true;

  00ac2	02		 ldarg.0 	; this$
  00ac3	7b 00 00 00 00	 ldfld ?abc@QBuild@Mogitter@@3P$AAVRadioButton@Forms@Windows@System@@$AA
  00ac8	17		 ldc.i.1 1	; u8 0x1
  00ac9	28 00 00 00 00	 call ?set@Checked@RadioButton@Forms@Windows@System@@$$FQ$AAMX_N@Z

; 313  : 			this->abc->Font = (gcnew System::Drawing::Font(L"メイリオ", 11.25F, System::Drawing::FontStyle::Regular, System::Drawing::GraphicsUnit::Point, 
; 314  : 				static_cast<System::Byte>(128)));

  00ace	02		 ldarg.0 	; this$
  00acf	7b 00 00 00 00	 ldfld ?abc@QBuild@Mogitter@@3P$AAVRadioButton@Forms@Windows@System@@$AA
  00ad4	72 00 00 00 00	 ldstr $StringLiteralTok$??_C@_19HMEDOBKD@0?a0?$KE0?j0?$KK?$AA?$AA@
  00ad9	22 00 00 34 41	 ldc.r4 11.250000
  00ade	16		 ldc.i.0 0	; i32 0x0
  00adf	19		 ldc.i.3 3	; i32 0x3
  00ae0	20 80 00 00 00	 ldc.i4 128	; u8 0x80
  00ae5	73 00 00 00 00	 newobj ??0Font@Drawing@System@@$$FQ$AAM@P$AAVString@2@MW4FontStyle@12@W4GraphicsUnit@12@E@Z
  00aea	6f 00 00 00 00	 callvirt ?set@Font@Control@Forms@Windows@System@@$$FU$AAMXP$AAV1Drawing@5@@Z

; 315  : 			this->abc->Location = System::Drawing::Point(298, 104);

  00aef	12 0c		 ldloca.s 12	; $S31$
  00af1	20 2a 01 00 00	 ldc.i4 298	; i32 0x12a
  00af6	1f 68		 ldc.i4.s 104	; i32 0x68
  00af8	28 00 00 00 00	 call ??0Point@Drawing@System@@$$FQ$CAM@HH@Z
  00afd	02		 ldarg.0 	; this$
  00afe	7b 00 00 00 00	 ldfld ?abc@QBuild@Mogitter@@3P$AAVRadioButton@Forms@Windows@System@@$AA
  00b03	11 0c		 ldloc.s 12	; $S31$
  00b05	28 00 00 00 00	 call ?set@Location@Control@Forms@Windows@System@@$$FQ$AAMXVPoint@Drawing@5@@Z

; 316  : 			this->abc->Name = L"abc";

  00b0a	02		 ldarg.0 	; this$
  00b0b	7b 00 00 00 00	 ldfld ?abc@QBuild@Mogitter@@3P$AAVRadioButton@Forms@Windows@System@@$AA
  00b10	72 00 00 00 00	 ldstr $StringLiteralTok$??_C@_17OKDDHGAP@?$AAa?$AAb?$AAc?$AA?$AA@
  00b15	28 00 00 00 00	 call ?set@Name@Control@Forms@Windows@System@@$$FQ$AAMXP$AAVString@5@@Z

; 317  : 			this->abc->Size = System::Drawing::Size(93, 27);

  00b1a	12 0b		 ldloca.s 11	; $S32$
  00b1c	1f 5d		 ldc.i4.s 93	; i32 0x5d
  00b1e	1f 1b		 ldc.i4.s 27	; i32 0x1b
  00b20	28 00 00 00 00	 call ??0Size@Drawing@System@@$$FQ$CAM@HH@Z
  00b25	02		 ldarg.0 	; this$
  00b26	7b 00 00 00 00	 ldfld ?abc@QBuild@Mogitter@@3P$AAVRadioButton@Forms@Windows@System@@$AA
  00b2b	11 0b		 ldloc.s 11	; $S32$
  00b2d	28 00 00 00 00	 call ?set@Size@Control@Forms@Windows@System@@$$FQ$AAMXV1Drawing@5@@Z

; 318  : 			this->abc->TabIndex = 1;

  00b32	02		 ldarg.0 	; this$
  00b33	7b 00 00 00 00	 ldfld ?abc@QBuild@Mogitter@@3P$AAVRadioButton@Forms@Windows@System@@$AA
  00b38	17		 ldc.i.1 1	; i32 0x1
  00b39	28 00 00 00 00	 call ?set@TabIndex@Control@Forms@Windows@System@@$$FQ$AAMXH@Z

; 319  : 			this->abc->TabStop = true;

  00b3e	02		 ldarg.0 	; this$
  00b3f	7b 00 00 00 00	 ldfld ?abc@QBuild@Mogitter@@3P$AAVRadioButton@Forms@Windows@System@@$AA
  00b44	17		 ldc.i.1 1	; u8 0x1
  00b45	28 00 00 00 00	 call ?set@TabStop@RadioButton@Forms@Windows@System@@$$FQ$AAMX_N@Z

; 320  : 			this->abc->Text = L"a,b,c,･･･";

  00b4a	02		 ldarg.0 	; this$
  00b4b	7b 00 00 00 00	 ldfld ?abc@QBuild@Mogitter@@3P$AAVRadioButton@Forms@Windows@System@@$AA
  00b50	72 00 00 00 00	 ldstr $StringLiteralTok$??_C@_1BE@ICCLPMPC@?$AAa?$AA?0?$AAb?$AA?0?$AAc?$AA?0?$PPe?$PPe?$PPe?$AA?$AA@
  00b55	6f 00 00 00 00	 callvirt ?set@Text@ButtonBase@Forms@Windows@System@@$$FU$AAMXP$AAVString@5@@Z

; 321  : 			this->abc->UseVisualStyleBackColor = true;

  00b5a	02		 ldarg.0 	; this$
  00b5b	7b 00 00 00 00	 ldfld ?abc@QBuild@Mogitter@@3P$AAVRadioButton@Forms@Windows@System@@$AA
  00b60	17		 ldc.i.1 1	; u8 0x1
  00b61	28 00 00 00 00	 call ?set@UseVisualStyleBackColor@ButtonBase@Forms@Windows@System@@$$FQ$AAMX_N@Z

; 322  : 			// 
; 323  : 			// label2
; 324  : 			// 
; 325  : 			this->label2->Font = (gcnew System::Drawing::Font(L"メイリオ", 12, System::Drawing::FontStyle::Regular, System::Drawing::GraphicsUnit::Point, 
; 326  : 				static_cast<System::Byte>(128)));

  00b66	02		 ldarg.0 	; this$
  00b67	7b 00 00 00 00	 ldfld ?label2@QBuild@Mogitter@@3P$AAVLabel@Forms@Windows@System@@$AA
  00b6c	72 00 00 00 00	 ldstr $StringLiteralTok$??_C@_19HMEDOBKD@0?a0?$KE0?j0?$KK?$AA?$AA@
  00b71	22 00 00 40 41	 ldc.r4 12.000000
  00b76	16		 ldc.i.0 0	; i32 0x0
  00b77	19		 ldc.i.3 3	; i32 0x3
  00b78	20 80 00 00 00	 ldc.i4 128	; u8 0x80
  00b7d	73 00 00 00 00	 newobj ??0Font@Drawing@System@@$$FQ$AAM@P$AAVString@2@MW4FontStyle@12@W4GraphicsUnit@12@E@Z
  00b82	6f 00 00 00 00	 callvirt ?set@Font@Control@Forms@Windows@System@@$$FU$AAMXP$AAV1Drawing@5@@Z

; 327  : 			this->label2->Location = System::Drawing::Point(241, 105);

  00b87	12 0a		 ldloca.s 10	; $S33$
  00b89	20 f1 00 00 00	 ldc.i4 241	; i32 0xf1
  00b8e	1f 69		 ldc.i4.s 105	; i32 0x69
  00b90	28 00 00 00 00	 call ??0Point@Drawing@System@@$$FQ$CAM@HH@Z
  00b95	02		 ldarg.0 	; this$
  00b96	7b 00 00 00 00	 ldfld ?label2@QBuild@Mogitter@@3P$AAVLabel@Forms@Windows@System@@$AA
  00b9b	11 0a		 ldloc.s 10	; $S33$
  00b9d	28 00 00 00 00	 call ?set@Location@Control@Forms@Windows@System@@$$FQ$AAMXVPoint@Drawing@5@@Z

; 328  : 			this->label2->Name = L"label2";

  00ba2	02		 ldarg.0 	; this$
  00ba3	7b 00 00 00 00	 ldfld ?label2@QBuild@Mogitter@@3P$AAVLabel@Forms@Windows@System@@$AA
  00ba8	72 00 00 00 00	 ldstr $StringLiteralTok$??_C@_1O@FDJGDNMC@?$AAl?$AAa?$AAb?$AAe?$AAl?$AA2?$AA?$AA@
  00bad	28 00 00 00 00	 call ?set@Name@Control@Forms@Windows@System@@$$FQ$AAMXP$AAVString@5@@Z

; 329  : 			this->label2->Size = System::Drawing::Size(62, 29);

  00bb2	12 09		 ldloca.s 9	; $S34$
  00bb4	1f 3e		 ldc.i4.s 62	; i32 0x3e
  00bb6	1f 1d		 ldc.i4.s 29	; i32 0x1d
  00bb8	28 00 00 00 00	 call ??0Size@Drawing@System@@$$FQ$CAM@HH@Z
  00bbd	02		 ldarg.0 	; this$
  00bbe	7b 00 00 00 00	 ldfld ?label2@QBuild@Mogitter@@3P$AAVLabel@Forms@Windows@System@@$AA
  00bc3	11 09		 ldloc.s 9	; $S34$
  00bc5	28 00 00 00 00	 call ?set@Size@Control@Forms@Windows@System@@$$FQ$AAMXV1Drawing@5@@Z

; 330  : 			this->label2->TabIndex = 0;

  00bca	02		 ldarg.0 	; this$
  00bcb	7b 00 00 00 00	 ldfld ?label2@QBuild@Mogitter@@3P$AAVLabel@Forms@Windows@System@@$AA
  00bd0	16		 ldc.i.0 0	; i32 0x0
  00bd1	28 00 00 00 00	 call ?set@TabIndex@Control@Forms@Windows@System@@$$FQ$AAMXH@Z

; 331  : 			this->label2->Text = L"記号：";

  00bd6	02		 ldarg.0 	; this$
  00bd7	7b 00 00 00 00	 ldfld ?label2@QBuild@Mogitter@@3P$AAVLabel@Forms@Windows@System@@$AA
  00bdc	72 00 00 00 00	 ldstr $StringLiteralTok$??_C@_17OPPNKABI@?$IK?$BIS?w?$PP?$BK?$AA?$AA@
  00be1	6f 00 00 00 00	 callvirt ?set@Text@Label@Forms@Windows@System@@$$FU$AAMXP$AAVString@5@@Z

; 332  : 			// 
; 333  : 			// panel1
; 334  : 			// 
; 335  : 			this->panel1->BackColor = System::Drawing::Color::DarkOrange;

  00be6	28 00 00 00 00	 call ?get@DarkOrange@Color@Drawing@System@@$$FSM?AV234@XZ
  00beb	13 08		 stloc.s 8	; $T10
  00bed	02		 ldarg.0 	; this$
  00bee	7b 00 00 00 00	 ldfld ?panel1@QBuild@Mogitter@@3P$AAVPanel@Forms@Windows@System@@$AA
  00bf3	11 08		 ldloc.s 8	; $T10
  00bf5	6f 00 00 00 00	 callvirt ?set@BackColor@Control@Forms@Windows@System@@$$FU$AAMXVColor@Drawing@5@@Z

; 336  : 			this->panel1->Location = System::Drawing::Point(-2, 314);

  00bfa	12 07		 ldloca.s 7	; $S35$
  00bfc	1f fe		 ldc.i4.s -2	; i32 0xfffffffe
  00bfe	20 3a 01 00 00	 ldc.i4 314	; i32 0x13a
  00c03	28 00 00 00 00	 call ??0Point@Drawing@System@@$$FQ$CAM@HH@Z
  00c08	02		 ldarg.0 	; this$
  00c09	7b 00 00 00 00	 ldfld ?panel1@QBuild@Mogitter@@3P$AAVPanel@Forms@Windows@System@@$AA
  00c0e	11 07		 ldloc.s 7	; $S35$
  00c10	28 00 00 00 00	 call ?set@Location@Control@Forms@Windows@System@@$$FQ$AAMXVPoint@Drawing@5@@Z

; 337  : 			this->panel1->Name = L"panel1";

  00c15	02		 ldarg.0 	; this$
  00c16	7b 00 00 00 00	 ldfld ?panel1@QBuild@Mogitter@@3P$AAVPanel@Forms@Windows@System@@$AA
  00c1b	72 00 00 00 00	 ldstr $StringLiteralTok$??_C@_1O@BHFINPOD@?$AAp?$AAa?$AAn?$AAe?$AAl?$AA1?$AA?$AA@
  00c20	28 00 00 00 00	 call ?set@Name@Control@Forms@Windows@System@@$$FQ$AAMXP$AAVString@5@@Z

; 338  : 			this->panel1->Size = System::Drawing::Size(476, 40);

  00c25	12 06		 ldloca.s 6	; $S36$
  00c27	20 dc 01 00 00	 ldc.i4 476	; i32 0x1dc
  00c2c	1f 28		 ldc.i4.s 40	; i32 0x28
  00c2e	28 00 00 00 00	 call ??0Size@Drawing@System@@$$FQ$CAM@HH@Z
  00c33	02		 ldarg.0 	; this$
  00c34	7b 00 00 00 00	 ldfld ?panel1@QBuild@Mogitter@@3P$AAVPanel@Forms@Windows@System@@$AA
  00c39	11 06		 ldloc.s 6	; $S36$
  00c3b	28 00 00 00 00	 call ?set@Size@Control@Forms@Windows@System@@$$FQ$AAMXV1Drawing@5@@Z

; 339  : 			this->panel1->TabIndex = 9;

  00c40	02		 ldarg.0 	; this$
  00c41	7b 00 00 00 00	 ldfld ?panel1@QBuild@Mogitter@@3P$AAVPanel@Forms@Windows@System@@$AA
  00c46	1f 09		 ldc.i4.s 9	; i32 0x9
  00c48	28 00 00 00 00	 call ?set@TabIndex@Control@Forms@Windows@System@@$$FQ$AAMXH@Z

; 340  : 			// 
; 341  : 			// QBuild
; 342  : 			// 
; 343  : 			this->AcceptButton = this->okButton;

  00c4d	02		 ldarg.0 	; this$
  00c4e	25		 dup 
  00c4f	7b 00 00 00 00	 ldfld ?okButton@QBuild@Mogitter@@3P$AAVButton@Forms@Windows@System@@$AA
  00c54	28 00 00 00 00	 call ?set@AcceptButton@Form@Forms@Windows@System@@$$FQ$AAMXP$AAUIButtonControl@345@@Z

; 344  : 			this->AutoScaleDimensions = System::Drawing::SizeF(6, 12);

  00c59	12 05		 ldloca.s 5	; $S37$
  00c5b	22 00 00 c0 40	 ldc.r4 6.000000
  00c60	22 00 00 40 41	 ldc.r4 12.000000
  00c65	28 00 00 00 00	 call ??0SizeF@Drawing@System@@$$FQ$CAM@MM@Z
  00c6a	02		 ldarg.0 	; this$
  00c6b	11 05		 ldloc.s 5	; $S37$
  00c6d	28 00 00 00 00	 call ?set@AutoScaleDimensions@ContainerControl@Forms@Windows@System@@$$FQ$AAMXVSizeF@Drawing@5@@Z

; 345  : 			this->AutoScaleMode = System::Windows::Forms::AutoScaleMode::Font;

  00c72	02		 ldarg.0 	; this$
  00c73	17		 ldc.i.1 1	; i32 0x1
  00c74	28 00 00 00 00	 call ?set@AutoScaleMode@ContainerControl@Forms@Windows@System@@$$FQ$AAMXW41345@@Z

; 346  : 			this->CancelButton = this->cancel;

  00c79	02		 ldarg.0 	; this$
  00c7a	25		 dup 
  00c7b	7b 00 00 00 00	 ldfld ?cancel@QBuild@Mogitter@@3P$AAVButton@Forms@Windows@System@@$AA
  00c80	28 00 00 00 00	 call ?set@CancelButton@Form@Forms@Windows@System@@$$FQ$AAMXP$AAUIButtonControl@345@@Z

; 347  : 			this->ClientSize = System::Drawing::Size(474, 354);

  00c85	12 04		 ldloca.s 4	; $S38$
  00c87	20 da 01 00 00	 ldc.i4 474	; i32 0x1da
  00c8c	20 62 01 00 00	 ldc.i4 354	; i32 0x162
  00c91	28 00 00 00 00	 call ??0Size@Drawing@System@@$$FQ$CAM@HH@Z
  00c96	02		 ldarg.0 	; this$
  00c97	11 04		 ldloc.s 4	; $S38$
  00c99	28 00 00 00 00	 call ?set@ClientSize@Form@Forms@Windows@System@@$$FQ$AAMXVSize@Drawing@5@@Z

; 348  : 			this->Controls->Add(this->sentakuGroup);

  00c9e	02		 ldarg.0 	; this$
  00c9f	28 00 00 00 00	 call ?get@Controls@Control@Forms@Windows@System@@$$FQ$AAMP$AAVControlCollection@2345@XZ
  00ca4	02		 ldarg.0 	; this$
  00ca5	7b 00 00 00 00	 ldfld ?sentakuGroup@QBuild@Mogitter@@3P$AAVGroupBox@Forms@Windows@System@@$AA
  00caa	6f 00 00 00 00	 callvirt ?Add@ControlCollection@Control@Forms@Windows@System@@$$FU$AAMXP$AAV2345@@Z

; 349  : 			this->Controls->Add(this->label1);

  00caf	02		 ldarg.0 	; this$
  00cb0	28 00 00 00 00	 call ?get@Controls@Control@Forms@Windows@System@@$$FQ$AAMP$AAVControlCollection@2345@XZ
  00cb5	02		 ldarg.0 	; this$
  00cb6	7b 00 00 00 00	 ldfld ?label1@QBuild@Mogitter@@3P$AAVLabel@Forms@Windows@System@@$AA
  00cbb	6f 00 00 00 00	 callvirt ?Add@ControlCollection@Control@Forms@Windows@System@@$$FU$AAMXP$AAV2345@@Z

; 350  : 			this->Controls->Add(this->answerBox);

  00cc0	02		 ldarg.0 	; this$
  00cc1	28 00 00 00 00	 call ?get@Controls@Control@Forms@Windows@System@@$$FQ$AAMP$AAVControlCollection@2345@XZ
  00cc6	02		 ldarg.0 	; this$
  00cc7	7b 00 00 00 00	 ldfld ?answerBox@QBuild@Mogitter@@3P$AAVTextBox@Forms@Windows@System@@$AA
  00ccc	6f 00 00 00 00	 callvirt ?Add@ControlCollection@Control@Forms@Windows@System@@$$FU$AAMXP$AAV2345@@Z

; 351  : 			this->Controls->Add(this->okButton);

  00cd1	02		 ldarg.0 	; this$
  00cd2	28 00 00 00 00	 call ?get@Controls@Control@Forms@Windows@System@@$$FQ$AAMP$AAVControlCollection@2345@XZ
  00cd7	02		 ldarg.0 	; this$
  00cd8	7b 00 00 00 00	 ldfld ?okButton@QBuild@Mogitter@@3P$AAVButton@Forms@Windows@System@@$AA
  00cdd	6f 00 00 00 00	 callvirt ?Add@ControlCollection@Control@Forms@Windows@System@@$$FU$AAMXP$AAV2345@@Z

; 352  : 			this->Controls->Add(this->cancel);

  00ce2	02		 ldarg.0 	; this$
  00ce3	28 00 00 00 00	 call ?get@Controls@Control@Forms@Windows@System@@$$FQ$AAMP$AAVControlCollection@2345@XZ
  00ce8	02		 ldarg.0 	; this$
  00ce9	7b 00 00 00 00	 ldfld ?cancel@QBuild@Mogitter@@3P$AAVButton@Forms@Windows@System@@$AA
  00cee	6f 00 00 00 00	 callvirt ?Add@ControlCollection@Control@Forms@Windows@System@@$$FU$AAMXP$AAV2345@@Z

; 353  : 			this->Controls->Add(this->panel1);

  00cf3	02		 ldarg.0 	; this$
  00cf4	28 00 00 00 00	 call ?get@Controls@Control@Forms@Windows@System@@$$FQ$AAMP$AAVControlCollection@2345@XZ
  00cf9	02		 ldarg.0 	; this$
  00cfa	7b 00 00 00 00	 ldfld ?panel1@QBuild@Mogitter@@3P$AAVPanel@Forms@Windows@System@@$AA
  00cff	6f 00 00 00 00	 callvirt ?Add@ControlCollection@Control@Forms@Windows@System@@$$FU$AAMXP$AAV2345@@Z

; 354  : 			this->FormBorderStyle = System::Windows::Forms::FormBorderStyle::FixedDialog;

  00d04	02		 ldarg.0 	; this$
  00d05	19		 ldc.i.3 3	; i32 0x3
  00d06	28 00 00 00 00	 call ?set@FormBorderStyle@Form@Forms@Windows@System@@$$FQ$AAMXW41345@@Z

; 355  : 			this->MaximizeBox = false;

  00d0b	02		 ldarg.0 	; this$
  00d0c	16		 ldc.i.0 0	; u8 0x0
  00d0d	28 00 00 00 00	 call ?set@MaximizeBox@Form@Forms@Windows@System@@$$FQ$AAMX_N@Z

; 356  : 			this->MinimizeBox = false;

  00d12	02		 ldarg.0 	; this$
  00d13	16		 ldc.i.0 0	; u8 0x0
  00d14	28 00 00 00 00	 call ?set@MinimizeBox@Form@Forms@Windows@System@@$$FQ$AAMX_N@Z

; 357  : 			this->Name = L"QBuild";

  00d19	02		 ldarg.0 	; this$
  00d1a	72 00 00 00 00	 ldstr $StringLiteralTok$??_C@_1O@FMKONPIF@?$AAQ?$AAB?$AAu?$AAi?$AAl?$AAd?$AA?$AA@
  00d1f	28 00 00 00 00	 call ?set@Name@Control@Forms@Windows@System@@$$FQ$AAMXP$AAVString@5@@Z

; 358  : 			this->ShowInTaskbar = false;

  00d24	02		 ldarg.0 	; this$
  00d25	16		 ldc.i.0 0	; u8 0x0
  00d26	28 00 00 00 00	 call ?set@ShowInTaskbar@Form@Forms@Windows@System@@$$FQ$AAMX_N@Z

; 359  : 			this->StartPosition = System::Windows::Forms::FormStartPosition::CenterParent;

  00d2b	02		 ldarg.0 	; this$
  00d2c	1a		 ldc.i.4 4	; i32 0x4
  00d2d	28 00 00 00 00	 call ?set@StartPosition@Form@Forms@Windows@System@@$$FQ$AAMXW4FormStartPosition@345@@Z

; 360  : 			this->Text = L"問題作成";

  00d32	02		 ldarg.0 	; this$
  00d33	72 00 00 00 00	 ldstr $StringLiteralTok$??_C@_19FDLBGPKB@UO?$JILO?2b?$BA?$AA?$AA@
  00d38	6f 00 00 00 00	 callvirt ?set@Text@Form@Forms@Windows@System@@$$FU$AAMXP$AAVString@5@@Z

; 361  : 			this->TopMost = true;

  00d3d	02		 ldarg.0 	; this$
  00d3e	17		 ldc.i.1 1	; u8 0x1
  00d3f	28 00 00 00 00	 call ?set@TopMost@Form@Forms@Windows@System@@$$FQ$AAMX_N@Z

; 362  : 			this->Load += gcnew System::EventHandler(this, &QBuild::QBuild_Load);

  00d44	02		 ldarg.0 	; this$
  00d45	25		 dup 
  00d46	fe 06 00 00 00
	00		 ldftn ?QBuild_Load@QBuild@Mogitter@@$$FA$AAMXP$AAVObject@System@@P$AAVEventArgs@4@@Z
  00d4c	73 00 00 00 00	 newobj ??0EventHandler@System@@$$FQ$AAM@P$AAVObject@1@VIntPtr@1@@Z
  00d51	28 00 00 00 00	 call ?add@Load@Form@Forms@Windows@System@@$$FQ$AAMXP$AAVEventHandler@5@@Z

; 363  : 			this->sentakuGroup->ResumeLayout(false);

  00d56	02		 ldarg.0 	; this$
  00d57	7b 00 00 00 00	 ldfld ?sentakuGroup@QBuild@Mogitter@@3P$AAVGroupBox@Forms@Windows@System@@$AA
  00d5c	16		 ldc.i.0 0	; u8 0x0
  00d5d	28 00 00 00 00	 call ?ResumeLayout@Control@Forms@Windows@System@@$$FQ$AAMX_N@Z

; 364  : 			this->sentakuGroup->PerformLayout();

  00d62	02		 ldarg.0 	; this$
  00d63	7b 00 00 00 00	 ldfld ?sentakuGroup@QBuild@Mogitter@@3P$AAVGroupBox@Forms@Windows@System@@$AA
  00d68	28 00 00 00 00	 call ?PerformLayout@Control@Forms@Windows@System@@$$FQ$AAMXXZ

; 365  : 			(cli::safe_cast<System::ComponentModel::ISupportInitialize^  >(this->seikaiNumber))->EndInit();

  00d6d	02		 ldarg.0 	; this$
  00d6e	7b 00 00 00 00	 ldfld ?seikaiNumber@QBuild@Mogitter@@3P$AAVNumericUpDown@Forms@Windows@System@@$AA
  00d73	6f 00 00 00 00	 callvirt ?EndInit@ISupportInitialize@ComponentModel@System@@$$FU$AAMXXZ

; 366  : 			this->ResumeLayout(false);

  00d78	02		 ldarg.0 	; this$
  00d79	16		 ldc.i.0 0	; u8 0x0
  00d7a	28 00 00 00 00	 call ?ResumeLayout@Control@Forms@Windows@System@@$$FQ$AAMX_N@Z

; 367  : 			this->PerformLayout();

  00d7f	02		 ldarg.0 	; this$
  00d80	28 00 00 00 00	 call ?PerformLayout@Control@Forms@Windows@System@@$$FQ$AAMXXZ

; 368  : 
; 369  : 		}

  00d85	2a		 ret 
 .end ?InitializeComponent@QBuild@Mogitter@@$$FA$AAMXXZ	; Mogitter::QBuild::InitializeComponent
;	.proc.end.void
.global	
	.bss
.local	,4
.local	$TypeTok$115A38A8$,4
.local	$StringLiteralTok$??_C@_1CM@LCIPHNNF@?$AA$?$AAt?$AAh?$AAi?$AAs?$AA?4?$AAB?$AAa?$AAc?$AAk?$AAg?$AAr?$AAo?$AAu?$AAn?$AAd?$AAI?$AAm?$AAa?$AAg?$AAe?$AA?$AA@,4
.local	$TypeTok$112E73C0$,4
.local	$StringLiteralTok$??_C@_1O@MMLNLMIJ@?$AAS?$AAp?$AAr?$AAa?$AAs?$AAh?$AA?$AA@,4
.local	$T1,0
; Function compile flags: /Ogsp
; File f:\meijin4\c++\mogitter\mogitter\sprash.h
	.text
	.comdat	any, ?InitializeComponent@Sprash@Mogitter@@$$FA$AAMXXZ
.global	?InitializeComponent@Sprash@Mogitter@@$$FA$AAMXXZ ; Mogitter::Sprash::InitializeComponent
?InitializeComponent@Sprash@Mogitter@@$$FA$AAMXXZ:	; Mogitter::Sprash::InitializeComponent
;	.proc.def	D:V()

; Function Header:
; max stack depth = 3
; function size = 196 bytes
; local varsig tk = 0x11000030 
; Exception Information:
; 0 handlers, each consisting of filtered handlers

;	.formal.mptr 0,"this$" SIG: Optional C Binding Modifier(token:0x3D7841D).class (token:0x3D78420)
;	.local.mptr 2,"resources$" SIG: class (token:0x3D1E79D)
;	.local.mb8   1,"$S39$" SIG: valueType (token:0x3D1EBAD)
;	.local.mb8   0,"$S40$" SIG: valueType (token:0x3D1E7AD)

;	.proc.beg

; 58   : 			System::ComponentModel::ComponentResourceManager^  resources = (gcnew System::ComponentModel::ComponentResourceManager(Sprash::typeid));

  0000b	d0 00 00 00 00	 ldtoken $TypeTok$115A38A8$
  00010	28 00 00 00 00	 call ?GetTypeFromHandle@Type@System@@$$FSMP$AAV12@VRuntimeTypeHandle@2@@Z
  00015	73 00 00 00 00	 newobj ??0ComponentResourceManager@ComponentModel@System@@$$FQ$AAM@P$AAVType@2@@Z
  0001a	0c		 stloc.2 	; resources$

; 59   : 			this->SuspendLayout();

  0001b	02		 ldarg.0 	; this$
  0001c	28 00 00 00 00	 call ?SuspendLayout@Control@Forms@Windows@System@@$$FQ$AAMXXZ

; 60   : 			// 
; 61   : 			// Sprash
; 62   : 			// 
; 63   : 			this->AutoScaleDimensions = System::Drawing::SizeF(6, 12);

  00021	12 01		 ldloca.s 1	; $S39$
  00023	22 00 00 c0 40	 ldc.r4 6.000000
  00028	22 00 00 40 41	 ldc.r4 12.000000
  0002d	28 00 00 00 00	 call ??0SizeF@Drawing@System@@$$FQ$CAM@MM@Z
  00032	02		 ldarg.0 	; this$
  00033	07		 ldloc.1 	; $S39$
  00034	28 00 00 00 00	 call ?set@AutoScaleDimensions@ContainerControl@Forms@Windows@System@@$$FQ$AAMXVSizeF@Drawing@5@@Z

; 64   : 			this->AutoScaleMode = System::Windows::Forms::AutoScaleMode::Font;

  00039	02		 ldarg.0 	; this$
  0003a	17		 ldc.i.1 1	; i32 0x1
  0003b	28 00 00 00 00	 call ?set@AutoScaleMode@ContainerControl@Forms@Windows@System@@$$FQ$AAMXW41345@@Z

; 65   : 			this->BackgroundImage = (cli::safe_cast<System::Drawing::Image^  >(resources->GetObject(L"$this.BackgroundImage")));

  00040	02		 ldarg.0 	; this$
  00041	08		 ldloc.2 	; resources$
  00042	72 00 00 00 00	 ldstr $StringLiteralTok$??_C@_1CM@LCIPHNNF@?$AA$?$AAt?$AAh?$AAi?$AAs?$AA?4?$AAB?$AAa?$AAc?$AAk?$AAg?$AAr?$AAo?$AAu?$AAn?$AAd?$AAI?$AAm?$AAa?$AAg?$AAe?$AA?$AA@
  00047	6f 00 00 00 00	 callvirt ?GetObject@ResourceManager@Resources@System@@$$FU$AAMP$AAVObject@3@P$AAVString@3@@Z
  0004c	74 00 00 00 00	 castClass $TypeTok$112E73C0$
  00051	6f 00 00 00 00	 callvirt ?set@BackgroundImage@Control@Forms@Windows@System@@$$FU$AAMXP$AAVImage@Drawing@5@@Z

; 66   : 			this->BackgroundImageLayout = System::Windows::Forms::ImageLayout::Center;

  00056	02		 ldarg.0 	; this$
  00057	18		 ldc.i.2 2	; i32 0x2
  00058	6f 00 00 00 00	 callvirt ?set@BackgroundImageLayout@Control@Forms@Windows@System@@$$FU$AAMXW4ImageLayout@345@@Z

; 67   : 			this->ClientSize = System::Drawing::Size(530, 398);

  0005d	12 00		 ldloca.s 0	; $S40$
  0005f	20 12 02 00 00	 ldc.i4 530	; i32 0x212
  00064	20 8e 01 00 00	 ldc.i4 398	; i32 0x18e
  00069	28 00 00 00 00	 call ??0Size@Drawing@System@@$$FQ$CAM@HH@Z
  0006e	02		 ldarg.0 	; this$
  0006f	06		 ldloc.0 	; $S40$
  00070	28 00 00 00 00	 call ?set@ClientSize@Form@Forms@Windows@System@@$$FQ$AAMXVSize@Drawing@5@@Z

; 68   : 			this->DoubleBuffered = true;

  00075	02		 ldarg.0 	; this$
  00076	17		 ldc.i.1 1	; u8 0x1
  00077	6f 00 00 00 00	 callvirt ?set@DoubleBuffered@Control@Forms@Windows@System@@$$FM$AAMX_N@Z

; 69   : 			this->FormBorderStyle = System::Windows::Forms::FormBorderStyle::None;

  0007c	02		 ldarg.0 	; this$
  0007d	16		 ldc.i.0 0	; i32 0x0
  0007e	28 00 00 00 00	 call ?set@FormBorderStyle@Form@Forms@Windows@System@@$$FQ$AAMXW41345@@Z

; 70   : 			this->Name = L"Sprash";

  00083	02		 ldarg.0 	; this$
  00084	72 00 00 00 00	 ldstr $StringLiteralTok$??_C@_1O@MMLNLMIJ@?$AAS?$AAp?$AAr?$AAa?$AAs?$AAh?$AA?$AA@
  00089	28 00 00 00 00	 call ?set@Name@Control@Forms@Windows@System@@$$FQ$AAMXP$AAVString@5@@Z

; 71   : 			this->ShowIcon = false;

  0008e	02		 ldarg.0 	; this$
  0008f	16		 ldc.i.0 0	; u8 0x0
  00090	28 00 00 00 00	 call ?set@ShowIcon@Form@Forms@Windows@System@@$$FQ$AAMX_N@Z

; 72   : 			this->ShowInTaskbar = false;

  00095	02		 ldarg.0 	; this$
  00096	16		 ldc.i.0 0	; u8 0x0
  00097	28 00 00 00 00	 call ?set@ShowInTaskbar@Form@Forms@Windows@System@@$$FQ$AAMX_N@Z

; 73   : 			this->StartPosition = System::Windows::Forms::FormStartPosition::CenterScreen;

  0009c	02		 ldarg.0 	; this$
  0009d	17		 ldc.i.1 1	; i32 0x1
  0009e	28 00 00 00 00	 call ?set@StartPosition@Form@Forms@Windows@System@@$$FQ$AAMXW4FormStartPosition@345@@Z

; 74   : 			this->Text = L"Sprash";

  000a3	02		 ldarg.0 	; this$
  000a4	72 00 00 00 00	 ldstr $StringLiteralTok$??_C@_1O@MMLNLMIJ@?$AAS?$AAp?$AAr?$AAa?$AAs?$AAh?$AA?$AA@
  000a9	6f 00 00 00 00	 callvirt ?set@Text@Form@Forms@Windows@System@@$$FU$AAMXP$AAVString@5@@Z

; 75   : 			this->TopMost = true;

  000ae	02		 ldarg.0 	; this$
  000af	17		 ldc.i.1 1	; u8 0x1
  000b0	28 00 00 00 00	 call ?set@TopMost@Form@Forms@Windows@System@@$$FQ$AAMX_N@Z

; 76   : 			this->Load += gcnew System::EventHandler(this, &Sprash::Sprash_Load);

  000b5	02		 ldarg.0 	; this$
  000b6	25		 dup 
  000b7	fe 06 00 00 00
	00		 ldftn ?Sprash_Load@Sprash@Mogitter@@$$FA$AAMXP$AAVObject@System@@P$AAVEventArgs@4@@Z
  000bd	73 00 00 00 00	 newobj ??0EventHandler@System@@$$FQ$AAM@P$AAVObject@1@VIntPtr@1@@Z
  000c2	28 00 00 00 00	 call ?add@Load@Form@Forms@Windows@System@@$$FQ$AAMXP$AAVEventHandler@5@@Z

; 77   : 			this->ResumeLayout(false);

  000c7	02		 ldarg.0 	; this$
  000c8	16		 ldc.i.0 0	; u8 0x0
  000c9	28 00 00 00 00	 call ?ResumeLayout@Control@Forms@Windows@System@@$$FQ$AAMX_N@Z

; 78   : 
; 79   : 		}

  000ce	2a		 ret 
 .end ?InitializeComponent@Sprash@Mogitter@@$$FA$AAMXXZ	; Mogitter::Sprash::InitializeComponent
;	.proc.end.void
.global	
	.bss
.local	,4
.local	$T1,0
; Function compile flags: /Ogsp
; File f:\meijin4\c++\mogitter\mogitter\sprash.h
	.text
	.comdat	any, ?printSprash@Sprash@Mogitter@@$$FQ$AAMXXZ
.global	?printSprash@Sprash@Mogitter@@$$FQ$AAMXXZ	; Mogitter::Sprash::printSprash
?printSprash@Sprash@Mogitter@@$$FQ$AAMXXZ:		; Mogitter::Sprash::printSprash
;	.proc.def	D:V()

; Function Header:
; max stack depth = 2
; function size = 61 bytes
; local varsig tk = 0x11000032 
; Exception Information:
; 0 handlers, each consisting of filtered handlers

;	.formal.mptr 0,"this$" SIG: Optional C Binding Modifier(token:0x3D7841D).class (token:0x3D78420)
;	.local.mptr 1,"eh$2" SIG: class (token:0x3D784B5)

;	.proc.beg

; 82   : 			//Sprash^ spr=gcnew Sprash();
; 83   : 			//spr->Show();
; 84   : 			//spr->Refresh();
; 85   : 
; 86   : 			for(int i=0;i<40;i++){

  0000b	1f 28		 ldc.i4.s 40	; u32 0x28
  0000d	0a		 stloc.0 	
$LL5@printSpras:

; 87   : 			Application::DoEvents();

  0000f	28 00 00 00 00	 call ?DoEvents@Application@Forms@Windows@System@@$$FSMXXZ

; 88   : 			System::Threading::Thread::Sleep(20);

  00014	1f 14		 ldc.i4.s 20	; i32 0x14
  00016	28 00 00 00 00	 call ?Sleep@Thread@Threading@System@@$$FSMXH@Z

; 82   : 			//Sprash^ spr=gcnew Sprash();
; 83   : 			//spr->Show();
; 84   : 			//spr->Refresh();
; 85   : 
; 86   : 			for(int i=0;i<40;i++){

  0001b	06		 ldloc.0 	
  0001c	17		 ldc.i.1 1	; u32 0x1
  0001d	59		 sub 
  0001e	0a		 stloc.0 	
  0001f	06		 ldloc.0 	
  00020	16		 ldc.i.0 0	; u32 0x0
  00021	35 ec		 bgt.un.s $LL5@printSpras

; 89   : 			}
; 90   : 			if (this->InvokeRequired)

  00023	02		 ldarg.0 	; this$
  00024	6f 00 00 00 00	 callvirt ?get@InvokeRequired@Control@Forms@Windows@System@@$$FU$AAM_NXZ
  00029	2c 17		 brfalse.s $LN2@printSpras

; 91   : 			{
; 92   : 				EventHandler^ eh = gcnew System::EventHandler(this, &Sprash::closingNow);

  0002b	02		 ldarg.0 	; this$
  0002c	fe 06 00 00 00
	00		 ldftn ?closingNow@Sprash@Mogitter@@$$FA$AAMXP$AAVObject@System@@P$AAVEventArgs@4@@Z
  00032	73 00 00 00 00	 newobj ??0EventHandler@System@@$$FQ$AAM@P$AAVObject@1@VIntPtr@1@@Z
  00037	0b		 stloc.1 	; eh$2

; 93   : 				Invoke(eh);

  00038	02		 ldarg.0 	; this$
  00039	07		 ldloc.1 	; eh$2
  0003a	28 00 00 00 00	 call ?Invoke@Control@Forms@Windows@System@@$$FQ$AAMP$AAVObject@4@P$AAVDelegate@4@@Z
  0003f	26		 pop 

; 94   : 			}else

  00040	2b 06		 br.s $LN1@printSpras
$LN2@printSpras:

; 95   : 				this->Close();

  00042	02		 ldarg.0 	; this$
  00043	28 00 00 00 00	 call ?Close@Form@Forms@Windows@System@@$$FQ$AAMXXZ
$LN1@printSpras:

; 96   : 	}

  00048	2a		 ret 
 .end ?printSprash@Sprash@Mogitter@@$$FQ$AAMXXZ		; Mogitter::Sprash::printSprash
;	.proc.end.void
.global	?button1@QMarking@Mogitter@@3P$AAVButton@Forms@Windows@System@@$AA ; Mogitter::QMarking::button1
.global	?questNum@QMarking@Mogitter@@3P$AAVLabel@Forms@Windows@System@@$AA ; Mogitter::QMarking::questNum
.global	?label2@QMarking@Mogitter@@3P$AAVLabel@Forms@Windows@System@@$AA ; Mogitter::QMarking::label2
.global	?collectNum@QMarking@Mogitter@@3P$AAVLabel@Forms@Windows@System@@$AA ; Mogitter::QMarking::collectNum
.global	?label4@QMarking@Mogitter@@3P$AAVLabel@Forms@Windows@System@@$AA ; Mogitter::QMarking::label4
.global	?label5@QMarking@Mogitter@@3P$AAVLabel@Forms@Windows@System@@$AA ; Mogitter::QMarking::label5
.global	?persentNum@QMarking@Mogitter@@3P$AAVLabel@Forms@Windows@System@@$AA ; Mogitter::QMarking::persentNum
.global	?label7@QMarking@Mogitter@@3P$AAVLabel@Forms@Windows@System@@$AA ; Mogitter::QMarking::label7
.global	?timeLabel@QMarking@Mogitter@@3P$AAVLabel@Forms@Windows@System@@$AA ; Mogitter::QMarking::timeLabel
.global	?button2@QMarking@Mogitter@@3P$AAVButton@Forms@Windows@System@@$AA ; Mogitter::QMarking::button2
	.bss
.local	$TypeTok$1160DDB4$,4
.local	?button1@QMarking@Mogitter@@3P$AAVButton@Forms@Windows@System@@$AA,4 ; Mogitter::QMarking::button1
.local	?questNum@QMarking@Mogitter@@3P$AAVLabel@Forms@Windows@System@@$AA,4 ; Mogitter::QMarking::questNum
.local	?label2@QMarking@Mogitter@@3P$AAVLabel@Forms@Windows@System@@$AA,4 ; Mogitter::QMarking::label2
.local	?collectNum@QMarking@Mogitter@@3P$AAVLabel@Forms@Windows@System@@$AA,4 ; Mogitter::QMarking::collectNum
.local	?label4@QMarking@Mogitter@@3P$AAVLabel@Forms@Windows@System@@$AA,4 ; Mogitter::QMarking::label4
.local	?label5@QMarking@Mogitter@@3P$AAVLabel@Forms@Windows@System@@$AA,4 ; Mogitter::QMarking::label5
.local	?persentNum@QMarking@Mogitter@@3P$AAVLabel@Forms@Windows@System@@$AA,4 ; Mogitter::QMarking::persentNum
.local	?label7@QMarking@Mogitter@@3P$AAVLabel@Forms@Windows@System@@$AA,4 ; Mogitter::QMarking::label7
.local	?timeLabel@QMarking@Mogitter@@3P$AAVLabel@Forms@Windows@System@@$AA,4 ; Mogitter::QMarking::timeLabel
.local	?button2@QMarking@Mogitter@@3P$AAVButton@Forms@Windows@System@@$AA,4 ; Mogitter::QMarking::button2
.local	$StringLiteralTok$??_C@_1BA@GICFBNPG@?$AAb?$AAu?$AAt?$AAt?$AAo?$AAn?$AA1?$AA?$AA@,4
.local	$StringLiteralTok$??_C@_1BE@MHEAECMB@?$AAH?$AAG?$AAS?$PPz?$PP?$JO?$PP?$HM?$PPo?$PPx?$AAE?$AA?$AA@,4
.local	$StringLiteralTok$??_C@_1BC@BBFNIIMF@?$AAq?$AAu?$AAe?$AAs?$AAt?$AAN?$AAu?$AAm?$AA?$AA@,4
.local	$StringLiteralTok$??_C@_17CHOLIMHJ@?$AA1?$AA0?$AA0?$AA?$AA@,4
.local	$StringLiteralTok$??_C@_15GIJMHBHH@UON?9?$AA?$AA@,4
.local	$StringLiteralTok$??_C@_1BG@BMBBCEFP@?$AAc?$AAo?$AAl?$AAl?$AAe?$AAc?$AAt?$AAN?$AAu?$AAm?$AA?$AA@,4
.local	$StringLiteralTok$??_C@_17FBCBMDLG@UOkc?$IJ?c?$AA?$AA@,4
.local	$StringLiteralTok$??_C@_19BCKLAGJK@kc?$IJ?cs?$IH0o?$AA?$AA@,4
.local	$StringLiteralTok$??_C@_1BG@BKGHHFLL@?$AAp?$AAe?$AAr?$AAs?$AAe?$AAn?$AAt?$AAN?$AAu?$AAm?$AA?$AA@,4
.local	$StringLiteralTok$??_C@_1O@GEEIMNPA@?$AAl?$AAa?$AAb?$AAe?$AAl?$AA7?$AA?$AA@,4
.local	$StringLiteralTok$??_C@_17GGLFEGBO@?$PP?$AF0g0Y?$AA?$AA@,4
.local	$StringLiteralTok$??_C@_1BE@OGPDMOJP@?$AAt?$AAi?$AAm?$AAe?$AAL?$AAa?$AAb?$AAe?$AAl?$AA?$AA@,4
.local	$StringLiteralTok$??_C@_1BK@MGMDCOLP@m?$II?$IM?$LLfB?$JF?$JD?$PP?$BK?$AA1?$AA0?$AA0R?$AG?$AA4?$AA0y?R?$AA?$AA@,4
.local	$StringLiteralTok$??_C@_1BA@HKJALCBI@?$AAb?$AAu?$AAt?$AAt?$AAo?$AAn?$AA2?$AA?$AA@,4
.local	$StringLiteralTok$??_C@_17PFDGBJB@Q?$INc?$BBb?$CG?$AA?$AA@,4
.local	$StringLiteralTok$??_C@_1BG@GPPJDCEN@?$AA$?$AAt?$AAh?$AAi?$AAs?$AA?4?$AAI?$AAc?$AAo?$AAn?$AA?$AA@,4
.local	$TypeTok$112E75D4$,4
.local	$StringLiteralTok$??_C@_1BC@GPKDIKDL@?$AAQ?$AAM?$AAa?$AAr?$AAk?$AAi?$AAn?$AAg?$AA?$AA@,4
.local	$StringLiteralTok$??_C@_19KNBCPJJA@c?$KBp?$LJ?$HNPg?$JM?$AA?$AA@,4
.local	$T1,0
; Function compile flags: /Ogsp
; File f:\meijin4\c++\mogitter\mogitter\qmarking.h
	.text
	.comdat	any, ?InitializeComponent@QMarking@Mogitter@@$$FA$AAMXXZ
.global	?InitializeComponent@QMarking@Mogitter@@$$FA$AAMXXZ ; Mogitter::QMarking::InitializeComponent
?InitializeComponent@QMarking@Mogitter@@$$FA$AAMXXZ:	; Mogitter::QMarking::InitializeComponent
;	.proc.def	D:V()

; Function Header:
; max stack depth = 6
; function size = 2605 bytes
; local varsig tk = 0x11000033 
; Exception Information:
; 0 handlers, each consisting of filtered handlers

;	.formal.mptr 0,"this$" SIG: Optional C Binding Modifier(token:0x3D0DB75).class (token:0x3D0DB78)
;	.local.mptr 43,"resources$" SIG: class (token:0x3D1E79D)
;	.local.mb8   42,"$S41$" SIG: valueType (token:0x3D1E7B5)
;	.local.mb8   41,"$S42$" SIG: valueType (token:0x3D1E7AD)
;	.local.mb20  40,"$T2" SIG: valueType (token:0x3D28D25)
;	.local.mb20  39,"$T3" SIG: valueType (token:0x3D28D25)
;	.local.mb8   38,"$S43$" SIG: valueType (token:0x3D1E7B5)
;	.local.mb8   37,"$S44$" SIG: valueType (token:0x3D1E7AD)
;	.local.mb20  36,"$T4" SIG: valueType (token:0x3D28D25)
;	.local.mb20  35,"$T5" SIG: valueType (token:0x3D28D25)
;	.local.mb8   34,"$S45$" SIG: valueType (token:0x3D1E7B5)
;	.local.mb8   33,"$S46$" SIG: valueType (token:0x3D1E7AD)
;	.local.mb20  32,"$T6" SIG: valueType (token:0x3D28D25)
;	.local.mb20  31,"$T7" SIG: valueType (token:0x3D28D25)
;	.local.mb8   30,"$S47$" SIG: valueType (token:0x3D1E7B5)
;	.local.mb8   29,"$S48$" SIG: valueType (token:0x3D1E7AD)
;	.local.mb20  28,"$T8" SIG: valueType (token:0x3D28D25)
;	.local.mb20  27,"$T9" SIG: valueType (token:0x3D28D25)
;	.local.mb8   26,"$S49$" SIG: valueType (token:0x3D1E7B5)
;	.local.mb8   25,"$S50$" SIG: valueType (token:0x3D1E7AD)
;	.local.mb20  24,"$T10" SIG: valueType (token:0x3D28D25)
;	.local.mb20  23,"$T11" SIG: valueType (token:0x3D28D25)
;	.local.mb8   22,"$S51$" SIG: valueType (token:0x3D1E7B5)
;	.local.mb8   21,"$S52$" SIG: valueType (token:0x3D1E7AD)
;	.local.mb20  20,"$T12" SIG: valueType (token:0x3D28D25)
;	.local.mb20  19,"$T13" SIG: valueType (token:0x3D28D25)
;	.local.mb8   18,"$S53$" SIG: valueType (token:0x3D1E7B5)
;	.local.mb8   17,"$S54$" SIG: valueType (token:0x3D1E7AD)
;	.local.mb20  16,"$T14" SIG: valueType (token:0x3D28D25)
;	.local.mb20  15,"$T15" SIG: valueType (token:0x3D28D25)
;	.local.mb8   14,"$S55$" SIG: valueType (token:0x3D1E7B5)
;	.local.mb8   13,"$S56$" SIG: valueType (token:0x3D1E7AD)
;	.local.mb20  12,"$T16" SIG: valueType (token:0x3D28D25)
;	.local.mb20  11,"$T17" SIG: valueType (token:0x3D28D25)
;	.local.mb8   10,"$S57$" SIG: valueType (token:0x3D1E7B5)
;	.local.mb8   9,"$S58$" SIG: valueType (token:0x3D1E7AD)
;	.local.mb20  8,"$T18" SIG: valueType (token:0x3D28D25)
;	.local.mb20  7,"$T19" SIG: valueType (token:0x3D28D25)
;	.local.mb8   6,"$S59$" SIG: valueType (token:0x3D1E7B5)
;	.local.mb8   5,"$S60$" SIG: valueType (token:0x3D1E7AD)
;	.local.mb8   4,"$S61$" SIG: valueType (token:0x3D1E7B5)
;	.local.mb8   3,"$S62$" SIG: valueType (token:0x3D1E7AD)
;	.local.mb8   2,"$S63$" SIG: valueType (token:0x3D1EBAD)
;	.local.mb20  1,"$T20" SIG: valueType (token:0x3D28D25)
;	.local.mb8   0,"$S64$" SIG: valueType (token:0x3D1E7AD)

;	.proc.beg

; 79   : 			System::ComponentModel::ComponentResourceManager^  resources = (gcnew System::ComponentModel::ComponentResourceManager(QMarking::typeid));

  0000b	d0 00 00 00 00	 ldtoken $TypeTok$1160DDB4$
  00010	28 00 00 00 00	 call ?GetTypeFromHandle@Type@System@@$$FSMP$AAV12@VRuntimeTypeHandle@2@@Z
  00015	73 00 00 00 00	 newobj ??0ComponentResourceManager@ComponentModel@System@@$$FQ$AAM@P$AAVType@2@@Z
  0001a	13 2b		 stloc.s 43	; resources$

; 80   : 			this->button1 = (gcnew System::Windows::Forms::Button());

  0001c	02		 ldarg.0 	; this$
  0001d	73 00 00 00 00	 newobj ??0Button@Forms@Windows@System@@$$FQ$AAM@XZ
  00022	7d 00 00 00 00	 stfld ?button1@QMarking@Mogitter@@3P$AAVButton@Forms@Windows@System@@$AA

; 81   : 			this->questNum = (gcnew System::Windows::Forms::Label());

  00027	02		 ldarg.0 	; this$
  00028	73 00 00 00 00	 newobj ??0Label@Forms@Windows@System@@$$FQ$AAM@XZ
  0002d	7d 00 00 00 00	 stfld ?questNum@QMarking@Mogitter@@3P$AAVLabel@Forms@Windows@System@@$AA

; 82   : 			this->label2 = (gcnew System::Windows::Forms::Label());

  00032	02		 ldarg.0 	; this$
  00033	73 00 00 00 00	 newobj ??0Label@Forms@Windows@System@@$$FQ$AAM@XZ
  00038	7d 00 00 00 00	 stfld ?label2@QMarking@Mogitter@@3P$AAVLabel@Forms@Windows@System@@$AA

; 83   : 			this->collectNum = (gcnew System::Windows::Forms::Label());

  0003d	02		 ldarg.0 	; this$
  0003e	73 00 00 00 00	 newobj ??0Label@Forms@Windows@System@@$$FQ$AAM@XZ
  00043	7d 00 00 00 00	 stfld ?collectNum@QMarking@Mogitter@@3P$AAVLabel@Forms@Windows@System@@$AA

; 84   : 			this->label4 = (gcnew System::Windows::Forms::Label());

  00048	02		 ldarg.0 	; this$
  00049	73 00 00 00 00	 newobj ??0Label@Forms@Windows@System@@$$FQ$AAM@XZ
  0004e	7d 00 00 00 00	 stfld ?label4@QMarking@Mogitter@@3P$AAVLabel@Forms@Windows@System@@$AA

; 85   : 			this->label5 = (gcnew System::Windows::Forms::Label());

  00053	02		 ldarg.0 	; this$
  00054	73 00 00 00 00	 newobj ??0Label@Forms@Windows@System@@$$FQ$AAM@XZ
  00059	7d 00 00 00 00	 stfld ?label5@QMarking@Mogitter@@3P$AAVLabel@Forms@Windows@System@@$AA

; 86   : 			this->persentNum = (gcnew System::Windows::Forms::Label());

  0005e	02		 ldarg.0 	; this$
  0005f	73 00 00 00 00	 newobj ??0Label@Forms@Windows@System@@$$FQ$AAM@XZ
  00064	7d 00 00 00 00	 stfld ?persentNum@QMarking@Mogitter@@3P$AAVLabel@Forms@Windows@System@@$AA

; 87   : 			this->label7 = (gcnew System::Windows::Forms::Label());

  00069	02		 ldarg.0 	; this$
  0006a	73 00 00 00 00	 newobj ??0Label@Forms@Windows@System@@$$FQ$AAM@XZ
  0006f	7d 00 00 00 00	 stfld ?label7@QMarking@Mogitter@@3P$AAVLabel@Forms@Windows@System@@$AA

; 88   : 			this->panel1 = (gcnew System::Windows::Forms::Panel());

  00074	02		 ldarg.0 	; this$
  00075	73 00 00 00 00	 newobj ??0Panel@Forms@Windows@System@@$$FQ$AAM@XZ
  0007a	7d 00 00 00 00	 stfld ?panel1@QMarking@Mogitter@@3P$AAVPanel@Forms@Windows@System@@$AA

; 89   : 			this->timeLabel = (gcnew System::Windows::Forms::Label());

  0007f	02		 ldarg.0 	; this$
  00080	73 00 00 00 00	 newobj ??0Label@Forms@Windows@System@@$$FQ$AAM@XZ
  00085	7d 00 00 00 00	 stfld ?timeLabel@QMarking@Mogitter@@3P$AAVLabel@Forms@Windows@System@@$AA

; 90   : 			this->button2 = (gcnew System::Windows::Forms::Button());

  0008a	02		 ldarg.0 	; this$
  0008b	73 00 00 00 00	 newobj ??0Button@Forms@Windows@System@@$$FQ$AAM@XZ
  00090	7d 00 00 00 00	 stfld ?button2@QMarking@Mogitter@@3P$AAVButton@Forms@Windows@System@@$AA

; 91   : 			this->panel1->SuspendLayout();

  00095	02		 ldarg.0 	; this$
  00096	7b 00 00 00 00	 ldfld ?panel1@QMarking@Mogitter@@3P$AAVPanel@Forms@Windows@System@@$AA
  0009b	28 00 00 00 00	 call ?SuspendLayout@Control@Forms@Windows@System@@$$FQ$AAMXXZ

; 92   : 			this->SuspendLayout();

  000a0	02		 ldarg.0 	; this$
  000a1	28 00 00 00 00	 call ?SuspendLayout@Control@Forms@Windows@System@@$$FQ$AAMXXZ

; 93   : 			// 
; 94   : 			// button1
; 95   : 			// 
; 96   : 			this->button1->AutoEllipsis = true;

  000a6	02		 ldarg.0 	; this$
  000a7	7b 00 00 00 00	 ldfld ?button1@QMarking@Mogitter@@3P$AAVButton@Forms@Windows@System@@$AA
  000ac	17		 ldc.i.1 1	; u8 0x1
  000ad	28 00 00 00 00	 call ?set@AutoEllipsis@ButtonBase@Forms@Windows@System@@$$FQ$AAMX_N@Z

; 97   : 			this->button1->Font = (gcnew System::Drawing::Font(L"メイリオ", 12, System::Drawing::FontStyle::Regular, System::Drawing::GraphicsUnit::Point, 
; 98   : 				static_cast<System::Byte>(128)));

  000b2	02		 ldarg.0 	; this$
  000b3	7b 00 00 00 00	 ldfld ?button1@QMarking@Mogitter@@3P$AAVButton@Forms@Windows@System@@$AA
  000b8	72 00 00 00 00	 ldstr $StringLiteralTok$??_C@_19HMEDOBKD@0?a0?$KE0?j0?$KK?$AA?$AA@
  000bd	22 00 00 40 41	 ldc.r4 12.000000
  000c2	16		 ldc.i.0 0	; i32 0x0
  000c3	19		 ldc.i.3 3	; i32 0x3
  000c4	20 80 00 00 00	 ldc.i4 128	; u8 0x80
  000c9	73 00 00 00 00	 newobj ??0Font@Drawing@System@@$$FQ$AAM@P$AAVString@2@MW4FontStyle@12@W4GraphicsUnit@12@E@Z
  000ce	6f 00 00 00 00	 callvirt ?set@Font@Control@Forms@Windows@System@@$$FU$AAMXP$AAV1Drawing@5@@Z

; 99   : 			this->button1->Location = System::Drawing::Point(86, 209);

  000d3	12 2a		 ldloca.s 42	; $S41$
  000d5	1f 56		 ldc.i4.s 86	; i32 0x56
  000d7	20 d1 00 00 00	 ldc.i4 209	; i32 0xd1
  000dc	28 00 00 00 00	 call ??0Point@Drawing@System@@$$FQ$CAM@HH@Z
  000e1	02		 ldarg.0 	; this$
  000e2	7b 00 00 00 00	 ldfld ?button1@QMarking@Mogitter@@3P$AAVButton@Forms@Windows@System@@$AA
  000e7	11 2a		 ldloc.s 42	; $S41$
  000e9	28 00 00 00 00	 call ?set@Location@Control@Forms@Windows@System@@$$FQ$AAMXVPoint@Drawing@5@@Z

; 100  : 			this->button1->Name = L"button1";

  000ee	02		 ldarg.0 	; this$
  000ef	7b 00 00 00 00	 ldfld ?button1@QMarking@Mogitter@@3P$AAVButton@Forms@Windows@System@@$AA
  000f4	72 00 00 00 00	 ldstr $StringLiteralTok$??_C@_1BA@GICFBNPG@?$AAb?$AAu?$AAt?$AAt?$AAo?$AAn?$AA1?$AA?$AA@
  000f9	28 00 00 00 00	 call ?set@Name@Control@Forms@Windows@System@@$$FQ$AAMXP$AAVString@5@@Z

; 101  : 			this->button1->Size = System::Drawing::Size(91, 30);

  000fe	12 29		 ldloca.s 41	; $S42$
  00100	1f 5b		 ldc.i4.s 91	; i32 0x5b
  00102	1f 1e		 ldc.i4.s 30	; i32 0x1e
  00104	28 00 00 00 00	 call ??0Size@Drawing@System@@$$FQ$CAM@HH@Z
  00109	02		 ldarg.0 	; this$
  0010a	7b 00 00 00 00	 ldfld ?button1@QMarking@Mogitter@@3P$AAVButton@Forms@Windows@System@@$AA
  0010f	11 29		 ldloc.s 41	; $S42$
  00111	28 00 00 00 00	 call ?set@Size@Control@Forms@Windows@System@@$$FQ$AAMXV1Drawing@5@@Z

; 102  : 			this->button1->TabIndex = 0;

  00116	02		 ldarg.0 	; this$
  00117	7b 00 00 00 00	 ldfld ?button1@QMarking@Mogitter@@3P$AAVButton@Forms@Windows@System@@$AA
  0011c	16		 ldc.i.0 0	; i32 0x0
  0011d	28 00 00 00 00	 call ?set@TabIndex@Control@Forms@Windows@System@@$$FQ$AAMXH@Z

; 103  : 			this->button1->Text = L"OK";

  00122	02		 ldarg.0 	; this$
  00123	7b 00 00 00 00	 ldfld ?button1@QMarking@Mogitter@@3P$AAVButton@Forms@Windows@System@@$AA
  00128	72 00 00 00 00	 ldstr $StringLiteralTok$??_C@_15PMCGDJNJ@?$AAO?$AAK?$AA?$AA@
  0012d	6f 00 00 00 00	 callvirt ?set@Text@ButtonBase@Forms@Windows@System@@$$FU$AAMXP$AAVString@5@@Z

; 104  : 			this->button1->UseVisualStyleBackColor = true;

  00132	02		 ldarg.0 	; this$
  00133	7b 00 00 00 00	 ldfld ?button1@QMarking@Mogitter@@3P$AAVButton@Forms@Windows@System@@$AA
  00138	17		 ldc.i.1 1	; u8 0x1
  00139	28 00 00 00 00	 call ?set@UseVisualStyleBackColor@ButtonBase@Forms@Windows@System@@$$FQ$AAMX_N@Z

; 105  : 			this->button1->Click += gcnew System::EventHandler(this, &QMarking::button1_Click);

  0013e	02		 ldarg.0 	; this$
  0013f	7b 00 00 00 00	 ldfld ?button1@QMarking@Mogitter@@3P$AAVButton@Forms@Windows@System@@$AA
  00144	02		 ldarg.0 	; this$
  00145	fe 06 00 00 00
	00		 ldftn ?button1_Click@QMarking@Mogitter@@$$FQ$AAMXP$AAVObject@System@@P$AAVEventArgs@4@@Z
  0014b	73 00 00 00 00	 newobj ??0EventHandler@System@@$$FQ$AAM@P$AAVObject@1@VIntPtr@1@@Z
  00150	28 00 00 00 00	 call ?add@Click@Control@Forms@Windows@System@@$$FQ$AAMXP$AAVEventHandler@5@@Z

; 106  : 			// 
; 107  : 			// questNum
; 108  : 			// 
; 109  : 			this->questNum->AutoSize = true;

  00155	02		 ldarg.0 	; this$
  00156	7b 00 00 00 00	 ldfld ?questNum@QMarking@Mogitter@@3P$AAVLabel@Forms@Windows@System@@$AA
  0015b	17		 ldc.i.1 1	; u8 0x1
  0015c	6f 00 00 00 00	 callvirt ?set@AutoSize@Label@Forms@Windows@System@@$$FU$AAMX_N@Z

; 110  : 			this->questNum->BackColor = System::Drawing::Color::Gold;

  00161	28 00 00 00 00	 call ?get@Gold@Color@Drawing@System@@$$FSM?AV234@XZ
  00166	13 28		 stloc.s 40	; $T2
  00168	02		 ldarg.0 	; this$
  00169	7b 00 00 00 00	 ldfld ?questNum@QMarking@Mogitter@@3P$AAVLabel@Forms@Windows@System@@$AA
  0016e	11 28		 ldloc.s 40	; $T2
  00170	6f 00 00 00 00	 callvirt ?set@BackColor@Control@Forms@Windows@System@@$$FU$AAMXVColor@Drawing@5@@Z

; 111  : 			this->questNum->Font = (gcnew System::Drawing::Font(L"HGSｺﾞｼｯｸE", 18, System::Drawing::FontStyle::Regular, System::Drawing::GraphicsUnit::Point, 
; 112  : 				static_cast<System::Byte>(128)));

  00175	02		 ldarg.0 	; this$
  00176	7b 00 00 00 00	 ldfld ?questNum@QMarking@Mogitter@@3P$AAVLabel@Forms@Windows@System@@$AA
  0017b	72 00 00 00 00	 ldstr $StringLiteralTok$??_C@_1BE@MHEAECMB@?$AAH?$AAG?$AAS?$PPz?$PP?$JO?$PP?$HM?$PPo?$PPx?$AAE?$AA?$AA@
  00180	22 00 00 90 41	 ldc.r4 18.000000
  00185	16		 ldc.i.0 0	; i32 0x0
  00186	19		 ldc.i.3 3	; i32 0x3
  00187	20 80 00 00 00	 ldc.i4 128	; u8 0x80
  0018c	73 00 00 00 00	 newobj ??0Font@Drawing@System@@$$FQ$AAM@P$AAVString@2@MW4FontStyle@12@W4GraphicsUnit@12@E@Z
  00191	6f 00 00 00 00	 callvirt ?set@Font@Control@Forms@Windows@System@@$$FU$AAMXP$AAV1Drawing@5@@Z

; 113  : 			this->questNum->ForeColor = System::Drawing::Color::Black;

  00196	28 00 00 00 00	 call ?get@Black@Color@Drawing@System@@$$FSM?AV234@XZ
  0019b	13 27		 stloc.s 39	; $T3
  0019d	02		 ldarg.0 	; this$
  0019e	7b 00 00 00 00	 ldfld ?questNum@QMarking@Mogitter@@3P$AAVLabel@Forms@Windows@System@@$AA
  001a3	11 27		 ldloc.s 39	; $T3
  001a5	6f 00 00 00 00	 callvirt ?set@ForeColor@Control@Forms@Windows@System@@$$FU$AAMXVColor@Drawing@5@@Z

; 114  : 			this->questNum->Location = System::Drawing::Point(101, 24);

  001aa	12 26		 ldloca.s 38	; $S43$
  001ac	1f 65		 ldc.i4.s 101	; i32 0x65
  001ae	1f 18		 ldc.i4.s 24	; i32 0x18
  001b0	28 00 00 00 00	 call ??0Point@Drawing@System@@$$FQ$CAM@HH@Z
  001b5	02		 ldarg.0 	; this$
  001b6	7b 00 00 00 00	 ldfld ?questNum@QMarking@Mogitter@@3P$AAVLabel@Forms@Windows@System@@$AA
  001bb	11 26		 ldloc.s 38	; $S43$
  001bd	28 00 00 00 00	 call ?set@Location@Control@Forms@Windows@System@@$$FQ$AAMXVPoint@Drawing@5@@Z

; 115  : 			this->questNum->Name = L"questNum";

  001c2	02		 ldarg.0 	; this$
  001c3	7b 00 00 00 00	 ldfld ?questNum@QMarking@Mogitter@@3P$AAVLabel@Forms@Windows@System@@$AA
  001c8	72 00 00 00 00	 ldstr $StringLiteralTok$??_C@_1BC@BBFNIIMF@?$AAq?$AAu?$AAe?$AAs?$AAt?$AAN?$AAu?$AAm?$AA?$AA@
  001cd	28 00 00 00 00	 call ?set@Name@Control@Forms@Windows@System@@$$FQ$AAMXP$AAVString@5@@Z

; 116  : 			this->questNum->Size = System::Drawing::Size(49, 24);

  001d2	12 25		 ldloca.s 37	; $S44$
  001d4	1f 31		 ldc.i4.s 49	; i32 0x31
  001d6	1f 18		 ldc.i4.s 24	; i32 0x18
  001d8	28 00 00 00 00	 call ??0Size@Drawing@System@@$$FQ$CAM@HH@Z
  001dd	02		 ldarg.0 	; this$
  001de	7b 00 00 00 00	 ldfld ?questNum@QMarking@Mogitter@@3P$AAVLabel@Forms@Windows@System@@$AA
  001e3	11 25		 ldloc.s 37	; $S44$
  001e5	28 00 00 00 00	 call ?set@Size@Control@Forms@Windows@System@@$$FQ$AAMXV1Drawing@5@@Z

; 117  : 			this->questNum->TabIndex = 1;

  001ea	02		 ldarg.0 	; this$
  001eb	7b 00 00 00 00	 ldfld ?questNum@QMarking@Mogitter@@3P$AAVLabel@Forms@Windows@System@@$AA
  001f0	17		 ldc.i.1 1	; i32 0x1
  001f1	28 00 00 00 00	 call ?set@TabIndex@Control@Forms@Windows@System@@$$FQ$AAMXH@Z

; 118  : 			this->questNum->Text = L"100";

  001f6	02		 ldarg.0 	; this$
  001f7	7b 00 00 00 00	 ldfld ?questNum@QMarking@Mogitter@@3P$AAVLabel@Forms@Windows@System@@$AA
  001fc	72 00 00 00 00	 ldstr $StringLiteralTok$??_C@_17CHOLIMHJ@?$AA1?$AA0?$AA0?$AA?$AA@
  00201	6f 00 00 00 00	 callvirt ?set@Text@Label@Forms@Windows@System@@$$FU$AAMXP$AAVString@5@@Z

; 119  : 			this->questNum->TextAlign = System::Drawing::ContentAlignment::MiddleRight;

  00206	02		 ldarg.0 	; this$
  00207	7b 00 00 00 00	 ldfld ?questNum@QMarking@Mogitter@@3P$AAVLabel@Forms@Windows@System@@$AA
  0020c	1f 40		 ldc.i4.s 64	; i32 0x40
  0020e	6f 00 00 00 00	 callvirt ?set@TextAlign@Label@Forms@Windows@System@@$$FU$AAMXW4ContentAlignment@Drawing@5@@Z

; 120  : 			// 
; 121  : 			// label2
; 122  : 			// 
; 123  : 			this->label2->AutoSize = true;

  00213	02		 ldarg.0 	; this$
  00214	7b 00 00 00 00	 ldfld ?label2@QMarking@Mogitter@@3P$AAVLabel@Forms@Windows@System@@$AA
  00219	17		 ldc.i.1 1	; u8 0x1
  0021a	6f 00 00 00 00	 callvirt ?set@AutoSize@Label@Forms@Windows@System@@$$FU$AAMX_N@Z

; 124  : 			this->label2->BackColor = System::Drawing::Color::Gold;

  0021f	28 00 00 00 00	 call ?get@Gold@Color@Drawing@System@@$$FSM?AV234@XZ
  00224	13 24		 stloc.s 36	; $T4
  00226	02		 ldarg.0 	; this$
  00227	7b 00 00 00 00	 ldfld ?label2@QMarking@Mogitter@@3P$AAVLabel@Forms@Windows@System@@$AA
  0022c	11 24		 ldloc.s 36	; $T4
  0022e	6f 00 00 00 00	 callvirt ?set@BackColor@Control@Forms@Windows@System@@$$FU$AAMXVColor@Drawing@5@@Z

; 125  : 			this->label2->Font = (gcnew System::Drawing::Font(L"メイリオ", 11.25F, System::Drawing::FontStyle::Regular, System::Drawing::GraphicsUnit::Point, 
; 126  : 				static_cast<System::Byte>(128)));

  00233	02		 ldarg.0 	; this$
  00234	7b 00 00 00 00	 ldfld ?label2@QMarking@Mogitter@@3P$AAVLabel@Forms@Windows@System@@$AA
  00239	72 00 00 00 00	 ldstr $StringLiteralTok$??_C@_19HMEDOBKD@0?a0?$KE0?j0?$KK?$AA?$AA@
  0023e	22 00 00 34 41	 ldc.r4 11.250000
  00243	16		 ldc.i.0 0	; i32 0x0
  00244	19		 ldc.i.3 3	; i32 0x3
  00245	20 80 00 00 00	 ldc.i4 128	; u8 0x80
  0024a	73 00 00 00 00	 newobj ??0Font@Drawing@System@@$$FQ$AAM@P$AAVString@2@MW4FontStyle@12@W4GraphicsUnit@12@E@Z
  0024f	6f 00 00 00 00	 callvirt ?set@Font@Control@Forms@Windows@System@@$$FU$AAMXP$AAV1Drawing@5@@Z

; 127  : 			this->label2->ForeColor = System::Drawing::Color::Black;

  00254	28 00 00 00 00	 call ?get@Black@Color@Drawing@System@@$$FSM?AV234@XZ
  00259	13 23		 stloc.s 35	; $T5
  0025b	02		 ldarg.0 	; this$
  0025c	7b 00 00 00 00	 ldfld ?label2@QMarking@Mogitter@@3P$AAVLabel@Forms@Windows@System@@$AA
  00261	11 23		 ldloc.s 35	; $T5
  00263	6f 00 00 00 00	 callvirt ?set@ForeColor@Control@Forms@Windows@System@@$$FU$AAMXVColor@Drawing@5@@Z

; 128  : 			this->label2->Location = System::Drawing::Point(148, 29);

  00268	12 22		 ldloca.s 34	; $S45$
  0026a	20 94 00 00 00	 ldc.i4 148	; i32 0x94
  0026f	1f 1d		 ldc.i4.s 29	; i32 0x1d
  00271	28 00 00 00 00	 call ??0Point@Drawing@System@@$$FQ$CAM@HH@Z
  00276	02		 ldarg.0 	; this$
  00277	7b 00 00 00 00	 ldfld ?label2@QMarking@Mogitter@@3P$AAVLabel@Forms@Windows@System@@$AA
  0027c	11 22		 ldloc.s 34	; $S45$
  0027e	28 00 00 00 00	 call ?set@Location@Control@Forms@Windows@System@@$$FQ$AAMXVPoint@Drawing@5@@Z

; 129  : 			this->label2->Name = L"label2";

  00283	02		 ldarg.0 	; this$
  00284	7b 00 00 00 00	 ldfld ?label2@QMarking@Mogitter@@3P$AAVLabel@Forms@Windows@System@@$AA
  00289	72 00 00 00 00	 ldstr $StringLiteralTok$??_C@_1O@FDJGDNMC@?$AAl?$AAa?$AAb?$AAe?$AAl?$AA2?$AA?$AA@
  0028e	28 00 00 00 00	 call ?set@Name@Control@Forms@Windows@System@@$$FQ$AAMXP$AAVString@5@@Z

; 130  : 			this->label2->Size = System::Drawing::Size(40, 23);

  00293	12 21		 ldloca.s 33	; $S46$
  00295	1f 28		 ldc.i4.s 40	; i32 0x28
  00297	1f 17		 ldc.i4.s 23	; i32 0x17
  00299	28 00 00 00 00	 call ??0Size@Drawing@System@@$$FQ$CAM@HH@Z
  0029e	02		 ldarg.0 	; this$
  0029f	7b 00 00 00 00	 ldfld ?label2@QMarking@Mogitter@@3P$AAVLabel@Forms@Windows@System@@$AA
  002a4	11 21		 ldloc.s 33	; $S46$
  002a6	28 00 00 00 00	 call ?set@Size@Control@Forms@Windows@System@@$$FQ$AAMXV1Drawing@5@@Z

; 131  : 			this->label2->TabIndex = 2;

  002ab	02		 ldarg.0 	; this$
  002ac	7b 00 00 00 00	 ldfld ?label2@QMarking@Mogitter@@3P$AAVLabel@Forms@Windows@System@@$AA
  002b1	18		 ldc.i.2 2	; i32 0x2
  002b2	28 00 00 00 00	 call ?set@TabIndex@Control@Forms@Windows@System@@$$FQ$AAMXH@Z

; 132  : 			this->label2->Text = L"問中";

  002b7	02		 ldarg.0 	; this$
  002b8	7b 00 00 00 00	 ldfld ?label2@QMarking@Mogitter@@3P$AAVLabel@Forms@Windows@System@@$AA
  002bd	72 00 00 00 00	 ldstr $StringLiteralTok$??_C@_15GIJMHBHH@UON?9?$AA?$AA@
  002c2	6f 00 00 00 00	 callvirt ?set@Text@Label@Forms@Windows@System@@$$FU$AAMXP$AAVString@5@@Z

; 133  : 			// 
; 134  : 			// collectNum
; 135  : 			// 
; 136  : 			this->collectNum->AutoSize = true;

  002c7	02		 ldarg.0 	; this$
  002c8	7b 00 00 00 00	 ldfld ?collectNum@QMarking@Mogitter@@3P$AAVLabel@Forms@Windows@System@@$AA
  002cd	17		 ldc.i.1 1	; u8 0x1
  002ce	6f 00 00 00 00	 callvirt ?set@AutoSize@Label@Forms@Windows@System@@$$FU$AAMX_N@Z

; 137  : 			this->collectNum->BackColor = System::Drawing::Color::Gold;

  002d3	28 00 00 00 00	 call ?get@Gold@Color@Drawing@System@@$$FSM?AV234@XZ
  002d8	13 20		 stloc.s 32	; $T6
  002da	02		 ldarg.0 	; this$
  002db	7b 00 00 00 00	 ldfld ?collectNum@QMarking@Mogitter@@3P$AAVLabel@Forms@Windows@System@@$AA
  002e0	11 20		 ldloc.s 32	; $T6
  002e2	6f 00 00 00 00	 callvirt ?set@BackColor@Control@Forms@Windows@System@@$$FU$AAMXVColor@Drawing@5@@Z

; 138  : 			this->collectNum->Font = (gcnew System::Drawing::Font(L"HGSｺﾞｼｯｸE", 26.25F, System::Drawing::FontStyle::Bold, System::Drawing::GraphicsUnit::Point, 
; 139  : 				static_cast<System::Byte>(128)));

  002e7	02		 ldarg.0 	; this$
  002e8	7b 00 00 00 00	 ldfld ?collectNum@QMarking@Mogitter@@3P$AAVLabel@Forms@Windows@System@@$AA
  002ed	72 00 00 00 00	 ldstr $StringLiteralTok$??_C@_1BE@MHEAECMB@?$AAH?$AAG?$AAS?$PPz?$PP?$JO?$PP?$HM?$PPo?$PPx?$AAE?$AA?$AA@
  002f2	22 00 00 d2 41	 ldc.r4 26.250000
  002f7	17		 ldc.i.1 1	; i32 0x1
  002f8	19		 ldc.i.3 3	; i32 0x3
  002f9	20 80 00 00 00	 ldc.i4 128	; u8 0x80
  002fe	73 00 00 00 00	 newobj ??0Font@Drawing@System@@$$FQ$AAM@P$AAVString@2@MW4FontStyle@12@W4GraphicsUnit@12@E@Z
  00303	6f 00 00 00 00	 callvirt ?set@Font@Control@Forms@Windows@System@@$$FU$AAMXP$AAV1Drawing@5@@Z

; 140  : 			this->collectNum->ForeColor = System::Drawing::Color::Red;

  00308	28 00 00 00 00	 call ?get@Red@Color@Drawing@System@@$$FSM?AV234@XZ
  0030d	13 1f		 stloc.s 31	; $T7
  0030f	02		 ldarg.0 	; this$
  00310	7b 00 00 00 00	 ldfld ?collectNum@QMarking@Mogitter@@3P$AAVLabel@Forms@Windows@System@@$AA
  00315	11 1f		 ldloc.s 31	; $T7
  00317	6f 00 00 00 00	 callvirt ?set@ForeColor@Control@Forms@Windows@System@@$$FU$AAMXVColor@Drawing@5@@Z

; 141  : 			this->collectNum->Location = System::Drawing::Point(185, 15);

  0031c	12 1e		 ldloca.s 30	; $S47$
  0031e	20 b9 00 00 00	 ldc.i4 185	; i32 0xb9
  00323	1f 0f		 ldc.i4.s 15	; i32 0xf
  00325	28 00 00 00 00	 call ??0Point@Drawing@System@@$$FQ$CAM@HH@Z
  0032a	02		 ldarg.0 	; this$
  0032b	7b 00 00 00 00	 ldfld ?collectNum@QMarking@Mogitter@@3P$AAVLabel@Forms@Windows@System@@$AA
  00330	11 1e		 ldloc.s 30	; $S47$
  00332	28 00 00 00 00	 call ?set@Location@Control@Forms@Windows@System@@$$FQ$AAMXVPoint@Drawing@5@@Z

; 142  : 			this->collectNum->Name = L"collectNum";

  00337	02		 ldarg.0 	; this$
  00338	7b 00 00 00 00	 ldfld ?collectNum@QMarking@Mogitter@@3P$AAVLabel@Forms@Windows@System@@$AA
  0033d	72 00 00 00 00	 ldstr $StringLiteralTok$??_C@_1BG@BMBBCEFP@?$AAc?$AAo?$AAl?$AAl?$AAe?$AAc?$AAt?$AAN?$AAu?$AAm?$AA?$AA@
  00342	28 00 00 00 00	 call ?set@Name@Control@Forms@Windows@System@@$$FQ$AAMXP$AAVString@5@@Z

; 143  : 			this->collectNum->Size = System::Drawing::Size(75, 35);

  00347	12 1d		 ldloca.s 29	; $S48$
  00349	1f 4b		 ldc.i4.s 75	; i32 0x4b
  0034b	1f 23		 ldc.i4.s 35	; i32 0x23
  0034d	28 00 00 00 00	 call ??0Size@Drawing@System@@$$FQ$CAM@HH@Z
  00352	02		 ldarg.0 	; this$
  00353	7b 00 00 00 00	 ldfld ?collectNum@QMarking@Mogitter@@3P$AAVLabel@Forms@Windows@System@@$AA
  00358	11 1d		 ldloc.s 29	; $S48$
  0035a	28 00 00 00 00	 call ?set@Size@Control@Forms@Windows@System@@$$FQ$AAMXV1Drawing@5@@Z

; 144  : 			this->collectNum->TabIndex = 3;

  0035f	02		 ldarg.0 	; this$
  00360	7b 00 00 00 00	 ldfld ?collectNum@QMarking@Mogitter@@3P$AAVLabel@Forms@Windows@System@@$AA
  00365	19		 ldc.i.3 3	; i32 0x3
  00366	28 00 00 00 00	 call ?set@TabIndex@Control@Forms@Windows@System@@$$FQ$AAMXH@Z

; 145  : 			this->collectNum->Text = L"100";

  0036b	02		 ldarg.0 	; this$
  0036c	7b 00 00 00 00	 ldfld ?collectNum@QMarking@Mogitter@@3P$AAVLabel@Forms@Windows@System@@$AA
  00371	72 00 00 00 00	 ldstr $StringLiteralTok$??_C@_17CHOLIMHJ@?$AA1?$AA0?$AA0?$AA?$AA@
  00376	6f 00 00 00 00	 callvirt ?set@Text@Label@Forms@Windows@System@@$$FU$AAMXP$AAVString@5@@Z

; 146  : 			this->collectNum->TextAlign = System::Drawing::ContentAlignment::MiddleRight;

  0037b	02		 ldarg.0 	; this$
  0037c	7b 00 00 00 00	 ldfld ?collectNum@QMarking@Mogitter@@3P$AAVLabel@Forms@Windows@System@@$AA
  00381	1f 40		 ldc.i4.s 64	; i32 0x40
  00383	6f 00 00 00 00	 callvirt ?set@TextAlign@Label@Forms@Windows@System@@$$FU$AAMXW4ContentAlignment@Drawing@5@@Z

; 147  : 			// 
; 148  : 			// label4
; 149  : 			// 
; 150  : 			this->label4->AutoSize = true;

  00388	02		 ldarg.0 	; this$
  00389	7b 00 00 00 00	 ldfld ?label4@QMarking@Mogitter@@3P$AAVLabel@Forms@Windows@System@@$AA
  0038e	17		 ldc.i.1 1	; u8 0x1
  0038f	6f 00 00 00 00	 callvirt ?set@AutoSize@Label@Forms@Windows@System@@$$FU$AAMX_N@Z

; 151  : 			this->label4->BackColor = System::Drawing::Color::Gold;

  00394	28 00 00 00 00	 call ?get@Gold@Color@Drawing@System@@$$FSM?AV234@XZ
  00399	13 1c		 stloc.s 28	; $T8
  0039b	02		 ldarg.0 	; this$
  0039c	7b 00 00 00 00	 ldfld ?label4@QMarking@Mogitter@@3P$AAVLabel@Forms@Windows@System@@$AA
  003a1	11 1c		 ldloc.s 28	; $T8
  003a3	6f 00 00 00 00	 callvirt ?set@BackColor@Control@Forms@Windows@System@@$$FU$AAMXVColor@Drawing@5@@Z

; 152  : 			this->label4->Font = (gcnew System::Drawing::Font(L"メイリオ", 11.25F, System::Drawing::FontStyle::Regular, System::Drawing::GraphicsUnit::Point, 
; 153  : 				static_cast<System::Byte>(128)));

  003a8	02		 ldarg.0 	; this$
  003a9	7b 00 00 00 00	 ldfld ?label4@QMarking@Mogitter@@3P$AAVLabel@Forms@Windows@System@@$AA
  003ae	72 00 00 00 00	 ldstr $StringLiteralTok$??_C@_19HMEDOBKD@0?a0?$KE0?j0?$KK?$AA?$AA@
  003b3	22 00 00 34 41	 ldc.r4 11.250000
  003b8	16		 ldc.i.0 0	; i32 0x0
  003b9	19		 ldc.i.3 3	; i32 0x3
  003ba	20 80 00 00 00	 ldc.i4 128	; u8 0x80
  003bf	73 00 00 00 00	 newobj ??0Font@Drawing@System@@$$FQ$AAM@P$AAVString@2@MW4FontStyle@12@W4GraphicsUnit@12@E@Z
  003c4	6f 00 00 00 00	 callvirt ?set@Font@Control@Forms@Windows@System@@$$FU$AAMXP$AAV1Drawing@5@@Z

; 154  : 			this->label4->ForeColor = System::Drawing::Color::Black;

  003c9	28 00 00 00 00	 call ?get@Black@Color@Drawing@System@@$$FSM?AV234@XZ
  003ce	13 1b		 stloc.s 27	; $T9
  003d0	02		 ldarg.0 	; this$
  003d1	7b 00 00 00 00	 ldfld ?label4@QMarking@Mogitter@@3P$AAVLabel@Forms@Windows@System@@$AA
  003d6	11 1b		 ldloc.s 27	; $T9
  003d8	6f 00 00 00 00	 callvirt ?set@ForeColor@Control@Forms@Windows@System@@$$FU$AAMXVColor@Drawing@5@@Z

; 155  : 			this->label4->Location = System::Drawing::Point(261, 29);

  003dd	12 1a		 ldloca.s 26	; $S49$
  003df	20 05 01 00 00	 ldc.i4 261	; i32 0x105
  003e4	1f 1d		 ldc.i4.s 29	; i32 0x1d
  003e6	28 00 00 00 00	 call ??0Point@Drawing@System@@$$FQ$CAM@HH@Z
  003eb	02		 ldarg.0 	; this$
  003ec	7b 00 00 00 00	 ldfld ?label4@QMarking@Mogitter@@3P$AAVLabel@Forms@Windows@System@@$AA
  003f1	11 1a		 ldloc.s 26	; $S49$
  003f3	28 00 00 00 00	 call ?set@Location@Control@Forms@Windows@System@@$$FQ$AAMXVPoint@Drawing@5@@Z

; 156  : 			this->label4->Name = L"label4";

  003f8	02		 ldarg.0 	; this$
  003f9	7b 00 00 00 00	 ldfld ?label4@QMarking@Mogitter@@3P$AAVLabel@Forms@Windows@System@@$AA
  003fe	72 00 00 00 00	 ldstr $StringLiteralTok$??_C@_1O@HGPNGCBO@?$AAl?$AAa?$AAb?$AAe?$AAl?$AA4?$AA?$AA@
  00403	28 00 00 00 00	 call ?set@Name@Control@Forms@Windows@System@@$$FQ$AAMXP$AAVString@5@@Z

; 157  : 			this->label4->Size = System::Drawing::Size(55, 23);

  00408	12 19		 ldloca.s 25	; $S50$
  0040a	1f 37		 ldc.i4.s 55	; i32 0x37
  0040c	1f 17		 ldc.i4.s 23	; i32 0x17
  0040e	28 00 00 00 00	 call ??0Size@Drawing@System@@$$FQ$CAM@HH@Z
  00413	02		 ldarg.0 	; this$
  00414	7b 00 00 00 00	 ldfld ?label4@QMarking@Mogitter@@3P$AAVLabel@Forms@Windows@System@@$AA
  00419	11 19		 ldloc.s 25	; $S50$
  0041b	28 00 00 00 00	 call ?set@Size@Control@Forms@Windows@System@@$$FQ$AAMXV1Drawing@5@@Z

; 158  : 			this->label4->TabIndex = 4;

  00420	02		 ldarg.0 	; this$
  00421	7b 00 00 00 00	 ldfld ?label4@QMarking@Mogitter@@3P$AAVLabel@Forms@Windows@System@@$AA
  00426	1a		 ldc.i.4 4	; i32 0x4
  00427	28 00 00 00 00	 call ?set@TabIndex@Control@Forms@Windows@System@@$$FQ$AAMXH@Z

; 159  : 			this->label4->Text = L"問正解";

  0042c	02		 ldarg.0 	; this$
  0042d	7b 00 00 00 00	 ldfld ?label4@QMarking@Mogitter@@3P$AAVLabel@Forms@Windows@System@@$AA
  00432	72 00 00 00 00	 ldstr $StringLiteralTok$??_C@_17FBCBMDLG@UOkc?$IJ?c?$AA?$AA@
  00437	6f 00 00 00 00	 callvirt ?set@Text@Label@Forms@Windows@System@@$$FU$AAMXP$AAVString@5@@Z

; 160  : 			// 
; 161  : 			// label5
; 162  : 			// 
; 163  : 			this->label5->AutoSize = true;

  0043c	02		 ldarg.0 	; this$
  0043d	7b 00 00 00 00	 ldfld ?label5@QMarking@Mogitter@@3P$AAVLabel@Forms@Windows@System@@$AA
  00442	17		 ldc.i.1 1	; u8 0x1
  00443	6f 00 00 00 00	 callvirt ?set@AutoSize@Label@Forms@Windows@System@@$$FU$AAMX_N@Z

; 164  : 			this->label5->BackColor = System::Drawing::Color::White;

  00448	28 00 00 00 00	 call ?get@White@Color@Drawing@System@@$$FSM?AV234@XZ
  0044d	13 18		 stloc.s 24	; $T10
  0044f	02		 ldarg.0 	; this$
  00450	7b 00 00 00 00	 ldfld ?label5@QMarking@Mogitter@@3P$AAVLabel@Forms@Windows@System@@$AA
  00455	11 18		 ldloc.s 24	; $T10
  00457	6f 00 00 00 00	 callvirt ?set@BackColor@Control@Forms@Windows@System@@$$FU$AAMXVColor@Drawing@5@@Z

; 165  : 			this->label5->Font = (gcnew System::Drawing::Font(L"メイリオ", 18, System::Drawing::FontStyle::Regular, System::Drawing::GraphicsUnit::Point, 
; 166  : 				static_cast<System::Byte>(128)));

  0045c	02		 ldarg.0 	; this$
  0045d	7b 00 00 00 00	 ldfld ?label5@QMarking@Mogitter@@3P$AAVLabel@Forms@Windows@System@@$AA
  00462	72 00 00 00 00	 ldstr $StringLiteralTok$??_C@_19HMEDOBKD@0?a0?$KE0?j0?$KK?$AA?$AA@
  00467	22 00 00 90 41	 ldc.r4 18.000000
  0046c	16		 ldc.i.0 0	; i32 0x0
  0046d	19		 ldc.i.3 3	; i32 0x3
  0046e	20 80 00 00 00	 ldc.i4 128	; u8 0x80
  00473	73 00 00 00 00	 newobj ??0Font@Drawing@System@@$$FQ$AAM@P$AAVString@2@MW4FontStyle@12@W4GraphicsUnit@12@E@Z
  00478	6f 00 00 00 00	 callvirt ?set@Font@Control@Forms@Windows@System@@$$FU$AAMXP$AAV1Drawing@5@@Z

; 167  : 			this->label5->ForeColor = System::Drawing::Color::Black;

  0047d	28 00 00 00 00	 call ?get@Black@Color@Drawing@System@@$$FSM?AV234@XZ
  00482	13 17		 stloc.s 23	; $T11
  00484	02		 ldarg.0 	; this$
  00485	7b 00 00 00 00	 ldfld ?label5@QMarking@Mogitter@@3P$AAVLabel@Forms@Windows@System@@$AA
  0048a	11 17		 ldloc.s 23	; $T11
  0048c	6f 00 00 00 00	 callvirt ?set@ForeColor@Control@Forms@Windows@System@@$$FU$AAMXVColor@Drawing@5@@Z

; 168  : 			this->label5->Location = System::Drawing::Point(45, 110);

  00491	12 16		 ldloca.s 22	; $S51$
  00493	1f 2d		 ldc.i4.s 45	; i32 0x2d
  00495	1f 6e		 ldc.i4.s 110	; i32 0x6e
  00497	28 00 00 00 00	 call ??0Point@Drawing@System@@$$FQ$CAM@HH@Z
  0049c	02		 ldarg.0 	; this$
  0049d	7b 00 00 00 00	 ldfld ?label5@QMarking@Mogitter@@3P$AAVLabel@Forms@Windows@System@@$AA
  004a2	11 16		 ldloc.s 22	; $S51$
  004a4	28 00 00 00 00	 call ?set@Location@Control@Forms@Windows@System@@$$FQ$AAMXVPoint@Drawing@5@@Z

; 169  : 			this->label5->Name = L"label5";

  004a9	02		 ldarg.0 	; this$
  004aa	7b 00 00 00 00	 ldfld ?label5@QMarking@Mogitter@@3P$AAVLabel@Forms@Windows@System@@$AA
  004af	72 00 00 00 00	 ldstr $StringLiteralTok$??_C@_1O@MOEBAFHL@?$AAl?$AAa?$AAb?$AAe?$AAl?$AA5?$AA?$AA@
  004b4	28 00 00 00 00	 call ?set@Name@Control@Forms@Windows@System@@$$FQ$AAMXP$AAVString@5@@Z

; 170  : 			this->label5->Size = System::Drawing::Size(111, 36);

  004b9	12 15		 ldloca.s 21	; $S52$
  004bb	1f 6f		 ldc.i4.s 111	; i32 0x6f
  004bd	1f 24		 ldc.i4.s 36	; i32 0x24
  004bf	28 00 00 00 00	 call ??0Size@Drawing@System@@$$FQ$CAM@HH@Z
  004c4	02		 ldarg.0 	; this$
  004c5	7b 00 00 00 00	 ldfld ?label5@QMarking@Mogitter@@3P$AAVLabel@Forms@Windows@System@@$AA
  004ca	11 15		 ldloc.s 21	; $S52$
  004cc	28 00 00 00 00	 call ?set@Size@Control@Forms@Windows@System@@$$FQ$AAMXV1Drawing@5@@Z

; 171  : 			this->label5->TabIndex = 5;

  004d1	02		 ldarg.0 	; this$
  004d2	7b 00 00 00 00	 ldfld ?label5@QMarking@Mogitter@@3P$AAVLabel@Forms@Windows@System@@$AA
  004d7	1b		 ldc.i.5 5	; i32 0x5
  004d8	28 00 00 00 00	 call ?set@TabIndex@Control@Forms@Windows@System@@$$FQ$AAMXH@Z

; 172  : 			this->label5->Text = L"正解率は";

  004dd	02		 ldarg.0 	; this$
  004de	7b 00 00 00 00	 ldfld ?label5@QMarking@Mogitter@@3P$AAVLabel@Forms@Windows@System@@$AA
  004e3	72 00 00 00 00	 ldstr $StringLiteralTok$??_C@_19BCKLAGJK@kc?$IJ?cs?$IH0o?$AA?$AA@
  004e8	6f 00 00 00 00	 callvirt ?set@Text@Label@Forms@Windows@System@@$$FU$AAMXP$AAVString@5@@Z

; 173  : 			this->label5->TextAlign = System::Drawing::ContentAlignment::MiddleRight;

  004ed	02		 ldarg.0 	; this$
  004ee	7b 00 00 00 00	 ldfld ?label5@QMarking@Mogitter@@3P$AAVLabel@Forms@Windows@System@@$AA
  004f3	1f 40		 ldc.i4.s 64	; i32 0x40
  004f5	6f 00 00 00 00	 callvirt ?set@TextAlign@Label@Forms@Windows@System@@$$FU$AAMXW4ContentAlignment@Drawing@5@@Z

; 174  : 			// 
; 175  : 			// persentNum
; 176  : 			// 
; 177  : 			this->persentNum->AutoSize = true;

  004fa	02		 ldarg.0 	; this$
  004fb	7b 00 00 00 00	 ldfld ?persentNum@QMarking@Mogitter@@3P$AAVLabel@Forms@Windows@System@@$AA
  00500	17		 ldc.i.1 1	; u8 0x1
  00501	6f 00 00 00 00	 callvirt ?set@AutoSize@Label@Forms@Windows@System@@$$FU$AAMX_N@Z

; 178  : 			this->persentNum->BackColor = System::Drawing::Color::FromArgb(static_cast<System::Int32>(static_cast<System::Byte>(255)), static_cast<System::Int32>(static_cast<System::Byte>(255)), 
; 179  : 				static_cast<System::Int32>(static_cast<System::Byte>(128)));

  00506	20 ff 00 00 00	 ldc.i4 255	; i32 0xff
  0050b	20 ff 00 00 00	 ldc.i4 255	; i32 0xff
  00510	20 80 00 00 00	 ldc.i4 128	; i32 0x80
  00515	28 00 00 00 00	 call ?FromArgb@Color@Drawing@System@@$$FSM?AV123@HHH@Z
  0051a	13 14		 stloc.s 20	; $T12
  0051c	02		 ldarg.0 	; this$
  0051d	7b 00 00 00 00	 ldfld ?persentNum@QMarking@Mogitter@@3P$AAVLabel@Forms@Windows@System@@$AA
  00522	11 14		 ldloc.s 20	; $T12
  00524	6f 00 00 00 00	 callvirt ?set@BackColor@Control@Forms@Windows@System@@$$FU$AAMXVColor@Drawing@5@@Z

; 180  : 			this->persentNum->BorderStyle = System::Windows::Forms::BorderStyle::FixedSingle;

  00529	02		 ldarg.0 	; this$
  0052a	7b 00 00 00 00	 ldfld ?persentNum@QMarking@Mogitter@@3P$AAVLabel@Forms@Windows@System@@$AA
  0052f	17		 ldc.i.1 1	; i32 0x1
  00530	6f 00 00 00 00	 callvirt ?set@BorderStyle@Label@Forms@Windows@System@@$$FU$AAMXW41345@@Z

; 181  : 			this->persentNum->FlatStyle = System::Windows::Forms::FlatStyle::System;

  00535	02		 ldarg.0 	; this$
  00536	7b 00 00 00 00	 ldfld ?persentNum@QMarking@Mogitter@@3P$AAVLabel@Forms@Windows@System@@$AA
  0053b	19		 ldc.i.3 3	; i32 0x3
  0053c	28 00 00 00 00	 call ?set@FlatStyle@Label@Forms@Windows@System@@$$FQ$AAMXW41345@@Z

; 182  : 			this->persentNum->Font = (gcnew System::Drawing::Font(L"HGSｺﾞｼｯｸE", 36, System::Drawing::FontStyle::Bold, System::Drawing::GraphicsUnit::Point, 
; 183  : 				static_cast<System::Byte>(128)));

  00541	02		 ldarg.0 	; this$
  00542	7b 00 00 00 00	 ldfld ?persentNum@QMarking@Mogitter@@3P$AAVLabel@Forms@Windows@System@@$AA
  00547	72 00 00 00 00	 ldstr $StringLiteralTok$??_C@_1BE@MHEAECMB@?$AAH?$AAG?$AAS?$PPz?$PP?$JO?$PP?$HM?$PPo?$PPx?$AAE?$AA?$AA@
  0054c	22 00 00 10 42	 ldc.r4 36.000000
  00551	17		 ldc.i.1 1	; i32 0x1
  00552	19		 ldc.i.3 3	; i32 0x3
  00553	20 80 00 00 00	 ldc.i4 128	; u8 0x80
  00558	73 00 00 00 00	 newobj ??0Font@Drawing@System@@$$FQ$AAM@P$AAVString@2@MW4FontStyle@12@W4GraphicsUnit@12@E@Z
  0055d	6f 00 00 00 00	 callvirt ?set@Font@Control@Forms@Windows@System@@$$FU$AAMXP$AAV1Drawing@5@@Z

; 184  : 			this->persentNum->ForeColor = System::Drawing::Color::Red;

  00562	28 00 00 00 00	 call ?get@Red@Color@Drawing@System@@$$FSM?AV234@XZ
  00567	13 13		 stloc.s 19	; $T13
  00569	02		 ldarg.0 	; this$
  0056a	7b 00 00 00 00	 ldfld ?persentNum@QMarking@Mogitter@@3P$AAVLabel@Forms@Windows@System@@$AA
  0056f	11 13		 ldloc.s 19	; $T13
  00571	6f 00 00 00 00	 callvirt ?set@ForeColor@Control@Forms@Windows@System@@$$FU$AAMXVColor@Drawing@5@@Z

; 185  : 			this->persentNum->Location = System::Drawing::Point(155, 94);

  00576	12 12		 ldloca.s 18	; $S53$
  00578	20 9b 00 00 00	 ldc.i4 155	; i32 0x9b
  0057d	1f 5e		 ldc.i4.s 94	; i32 0x5e
  0057f	28 00 00 00 00	 call ??0Point@Drawing@System@@$$FQ$CAM@HH@Z
  00584	02		 ldarg.0 	; this$
  00585	7b 00 00 00 00	 ldfld ?persentNum@QMarking@Mogitter@@3P$AAVLabel@Forms@Windows@System@@$AA
  0058a	11 12		 ldloc.s 18	; $S53$
  0058c	28 00 00 00 00	 call ?set@Location@Control@Forms@Windows@System@@$$FQ$AAMXVPoint@Drawing@5@@Z

; 186  : 			this->persentNum->Name = L"persentNum";

  00591	02		 ldarg.0 	; this$
  00592	7b 00 00 00 00	 ldfld ?persentNum@QMarking@Mogitter@@3P$AAVLabel@Forms@Windows@System@@$AA
  00597	72 00 00 00 00	 ldstr $StringLiteralTok$??_C@_1BG@BKGHHFLL@?$AAp?$AAe?$AAr?$AAs?$AAe?$AAn?$AAt?$AAN?$AAu?$AAm?$AA?$AA@
  0059c	28 00 00 00 00	 call ?set@Name@Control@Forms@Windows@System@@$$FQ$AAMXP$AAVString@5@@Z

; 187  : 			this->persentNum->Size = System::Drawing::Size(103, 50);

  005a1	12 11		 ldloca.s 17	; $S54$
  005a3	1f 67		 ldc.i4.s 103	; i32 0x67
  005a5	1f 32		 ldc.i4.s 50	; i32 0x32
  005a7	28 00 00 00 00	 call ??0Size@Drawing@System@@$$FQ$CAM@HH@Z
  005ac	02		 ldarg.0 	; this$
  005ad	7b 00 00 00 00	 ldfld ?persentNum@QMarking@Mogitter@@3P$AAVLabel@Forms@Windows@System@@$AA
  005b2	11 11		 ldloc.s 17	; $S54$
  005b4	28 00 00 00 00	 call ?set@Size@Control@Forms@Windows@System@@$$FQ$AAMXV1Drawing@5@@Z

; 188  : 			this->persentNum->TabIndex = 6;

  005b9	02		 ldarg.0 	; this$
  005ba	7b 00 00 00 00	 ldfld ?persentNum@QMarking@Mogitter@@3P$AAVLabel@Forms@Windows@System@@$AA
  005bf	1c		 ldc.i.6 6	; i32 0x6
  005c0	28 00 00 00 00	 call ?set@TabIndex@Control@Forms@Windows@System@@$$FQ$AAMXH@Z

; 189  : 			this->persentNum->Text = L"100";

  005c5	02		 ldarg.0 	; this$
  005c6	7b 00 00 00 00	 ldfld ?persentNum@QMarking@Mogitter@@3P$AAVLabel@Forms@Windows@System@@$AA
  005cb	72 00 00 00 00	 ldstr $StringLiteralTok$??_C@_17CHOLIMHJ@?$AA1?$AA0?$AA0?$AA?$AA@
  005d0	6f 00 00 00 00	 callvirt ?set@Text@Label@Forms@Windows@System@@$$FU$AAMXP$AAVString@5@@Z

; 190  : 			this->persentNum->TextAlign = System::Drawing::ContentAlignment::MiddleRight;

  005d5	02		 ldarg.0 	; this$
  005d6	7b 00 00 00 00	 ldfld ?persentNum@QMarking@Mogitter@@3P$AAVLabel@Forms@Windows@System@@$AA
  005db	1f 40		 ldc.i4.s 64	; i32 0x40
  005dd	6f 00 00 00 00	 callvirt ?set@TextAlign@Label@Forms@Windows@System@@$$FU$AAMXW4ContentAlignment@Drawing@5@@Z

; 191  : 			// 
; 192  : 			// label7
; 193  : 			// 
; 194  : 			this->label7->AutoSize = true;

  005e2	02		 ldarg.0 	; this$
  005e3	7b 00 00 00 00	 ldfld ?label7@QMarking@Mogitter@@3P$AAVLabel@Forms@Windows@System@@$AA
  005e8	17		 ldc.i.1 1	; u8 0x1
  005e9	6f 00 00 00 00	 callvirt ?set@AutoSize@Label@Forms@Windows@System@@$$FU$AAMX_N@Z

; 195  : 			this->label7->BackColor = System::Drawing::Color::White;

  005ee	28 00 00 00 00	 call ?get@White@Color@Drawing@System@@$$FSM?AV234@XZ
  005f3	13 10		 stloc.s 16	; $T14
  005f5	02		 ldarg.0 	; this$
  005f6	7b 00 00 00 00	 ldfld ?label7@QMarking@Mogitter@@3P$AAVLabel@Forms@Windows@System@@$AA
  005fb	11 10		 ldloc.s 16	; $T14
  005fd	6f 00 00 00 00	 callvirt ?set@BackColor@Control@Forms@Windows@System@@$$FU$AAMXVColor@Drawing@5@@Z

; 196  : 			this->label7->Font = (gcnew System::Drawing::Font(L"メイリオ", 18, System::Drawing::FontStyle::Regular, System::Drawing::GraphicsUnit::Point, 
; 197  : 				static_cast<System::Byte>(128)));

  00602	02		 ldarg.0 	; this$
  00603	7b 00 00 00 00	 ldfld ?label7@QMarking@Mogitter@@3P$AAVLabel@Forms@Windows@System@@$AA
  00608	72 00 00 00 00	 ldstr $StringLiteralTok$??_C@_19HMEDOBKD@0?a0?$KE0?j0?$KK?$AA?$AA@
  0060d	22 00 00 90 41	 ldc.r4 18.000000
  00612	16		 ldc.i.0 0	; i32 0x0
  00613	19		 ldc.i.3 3	; i32 0x3
  00614	20 80 00 00 00	 ldc.i4 128	; u8 0x80
  00619	73 00 00 00 00	 newobj ??0Font@Drawing@System@@$$FQ$AAM@P$AAVString@2@MW4FontStyle@12@W4GraphicsUnit@12@E@Z
  0061e	6f 00 00 00 00	 callvirt ?set@Font@Control@Forms@Windows@System@@$$FU$AAMXP$AAV1Drawing@5@@Z

; 198  : 			this->label7->ForeColor = System::Drawing::Color::Black;

  00623	28 00 00 00 00	 call ?get@Black@Color@Drawing@System@@$$FSM?AV234@XZ
  00628	13 0f		 stloc.s 15	; $T15
  0062a	02		 ldarg.0 	; this$
  0062b	7b 00 00 00 00	 ldfld ?label7@QMarking@Mogitter@@3P$AAVLabel@Forms@Windows@System@@$AA
  00630	11 0f		 ldloc.s 15	; $T15
  00632	6f 00 00 00 00	 callvirt ?set@ForeColor@Control@Forms@Windows@System@@$$FU$AAMXVColor@Drawing@5@@Z

; 199  : 			this->label7->Location = System::Drawing::Point(258, 110);

  00637	12 0e		 ldloca.s 14	; $S55$
  00639	20 02 01 00 00	 ldc.i4 258	; i32 0x102
  0063e	1f 6e		 ldc.i4.s 110	; i32 0x6e
  00640	28 00 00 00 00	 call ??0Point@Drawing@System@@$$FQ$CAM@HH@Z
  00645	02		 ldarg.0 	; this$
  00646	7b 00 00 00 00	 ldfld ?label7@QMarking@Mogitter@@3P$AAVLabel@Forms@Windows@System@@$AA
  0064b	11 0e		 ldloc.s 14	; $S55$
  0064d	28 00 00 00 00	 call ?set@Location@Control@Forms@Windows@System@@$$FQ$AAMXVPoint@Drawing@5@@Z

; 200  : 			this->label7->Name = L"label7";

  00652	02		 ldarg.0 	; this$
  00653	7b 00 00 00 00	 ldfld ?label7@QMarking@Mogitter@@3P$AAVLabel@Forms@Windows@System@@$AA
  00658	72 00 00 00 00	 ldstr $StringLiteralTok$??_C@_1O@GEEIMNPA@?$AAl?$AAa?$AAb?$AAe?$AAl?$AA7?$AA?$AA@
  0065d	28 00 00 00 00	 call ?set@Name@Control@Forms@Windows@System@@$$FQ$AAMXP$AAVString@5@@Z

; 201  : 			this->label7->Size = System::Drawing::Size(87, 36);

  00662	12 0d		 ldloca.s 13	; $S56$
  00664	1f 57		 ldc.i4.s 87	; i32 0x57
  00666	1f 24		 ldc.i4.s 36	; i32 0x24
  00668	28 00 00 00 00	 call ??0Size@Drawing@System@@$$FQ$CAM@HH@Z
  0066d	02		 ldarg.0 	; this$
  0066e	7b 00 00 00 00	 ldfld ?label7@QMarking@Mogitter@@3P$AAVLabel@Forms@Windows@System@@$AA
  00673	11 0d		 ldloc.s 13	; $S56$
  00675	28 00 00 00 00	 call ?set@Size@Control@Forms@Windows@System@@$$FQ$AAMXV1Drawing@5@@Z

; 202  : 			this->label7->TabIndex = 7;

  0067a	02		 ldarg.0 	; this$
  0067b	7b 00 00 00 00	 ldfld ?label7@QMarking@Mogitter@@3P$AAVLabel@Forms@Windows@System@@$AA
  00680	1d		 ldc.i.7 7	; i32 0x7
  00681	28 00 00 00 00	 call ?set@TabIndex@Control@Forms@Windows@System@@$$FQ$AAMXH@Z

; 203  : 			this->label7->Text = L"％です";

  00686	02		 ldarg.0 	; this$
  00687	7b 00 00 00 00	 ldfld ?label7@QMarking@Mogitter@@3P$AAVLabel@Forms@Windows@System@@$AA
  0068c	72 00 00 00 00	 ldstr $StringLiteralTok$??_C@_17GGLFEGBO@?$PP?$AF0g0Y?$AA?$AA@
  00691	6f 00 00 00 00	 callvirt ?set@Text@Label@Forms@Windows@System@@$$FU$AAMXP$AAVString@5@@Z

; 204  : 			this->label7->TextAlign = System::Drawing::ContentAlignment::MiddleRight;

  00696	02		 ldarg.0 	; this$
  00697	7b 00 00 00 00	 ldfld ?label7@QMarking@Mogitter@@3P$AAVLabel@Forms@Windows@System@@$AA
  0069c	1f 40		 ldc.i4.s 64	; i32 0x40
  0069e	6f 00 00 00 00	 callvirt ?set@TextAlign@Label@Forms@Windows@System@@$$FU$AAMXW4ContentAlignment@Drawing@5@@Z

; 205  : 			// 
; 206  : 			// panel1
; 207  : 			// 
; 208  : 			this->panel1->BackColor = System::Drawing::Color::Gold;

  006a3	28 00 00 00 00	 call ?get@Gold@Color@Drawing@System@@$$FSM?AV234@XZ
  006a8	13 0c		 stloc.s 12	; $T16
  006aa	02		 ldarg.0 	; this$
  006ab	7b 00 00 00 00	 ldfld ?panel1@QMarking@Mogitter@@3P$AAVPanel@Forms@Windows@System@@$AA
  006b0	11 0c		 ldloc.s 12	; $T16
  006b2	6f 00 00 00 00	 callvirt ?set@BackColor@Control@Forms@Windows@System@@$$FU$AAMXVColor@Drawing@5@@Z

; 209  : 			this->panel1->Controls->Add(this->label4);

  006b7	02		 ldarg.0 	; this$
  006b8	7b 00 00 00 00	 ldfld ?panel1@QMarking@Mogitter@@3P$AAVPanel@Forms@Windows@System@@$AA
  006bd	28 00 00 00 00	 call ?get@Controls@Control@Forms@Windows@System@@$$FQ$AAMP$AAVControlCollection@2345@XZ
  006c2	02		 ldarg.0 	; this$
  006c3	7b 00 00 00 00	 ldfld ?label4@QMarking@Mogitter@@3P$AAVLabel@Forms@Windows@System@@$AA
  006c8	6f 00 00 00 00	 callvirt ?Add@ControlCollection@Control@Forms@Windows@System@@$$FU$AAMXP$AAV2345@@Z

; 210  : 			this->panel1->Controls->Add(this->collectNum);

  006cd	02		 ldarg.0 	; this$
  006ce	7b 00 00 00 00	 ldfld ?panel1@QMarking@Mogitter@@3P$AAVPanel@Forms@Windows@System@@$AA
  006d3	28 00 00 00 00	 call ?get@Controls@Control@Forms@Windows@System@@$$FQ$AAMP$AAVControlCollection@2345@XZ
  006d8	02		 ldarg.0 	; this$
  006d9	7b 00 00 00 00	 ldfld ?collectNum@QMarking@Mogitter@@3P$AAVLabel@Forms@Windows@System@@$AA
  006de	6f 00 00 00 00	 callvirt ?Add@ControlCollection@Control@Forms@Windows@System@@$$FU$AAMXP$AAV2345@@Z

; 211  : 			this->panel1->Controls->Add(this->label2);

  006e3	02		 ldarg.0 	; this$
  006e4	7b 00 00 00 00	 ldfld ?panel1@QMarking@Mogitter@@3P$AAVPanel@Forms@Windows@System@@$AA
  006e9	28 00 00 00 00	 call ?get@Controls@Control@Forms@Windows@System@@$$FQ$AAMP$AAVControlCollection@2345@XZ
  006ee	02		 ldarg.0 	; this$
  006ef	7b 00 00 00 00	 ldfld ?label2@QMarking@Mogitter@@3P$AAVLabel@Forms@Windows@System@@$AA
  006f4	6f 00 00 00 00	 callvirt ?Add@ControlCollection@Control@Forms@Windows@System@@$$FU$AAMXP$AAV2345@@Z

; 212  : 			this->panel1->Controls->Add(this->questNum);

  006f9	02		 ldarg.0 	; this$
  006fa	7b 00 00 00 00	 ldfld ?panel1@QMarking@Mogitter@@3P$AAVPanel@Forms@Windows@System@@$AA
  006ff	28 00 00 00 00	 call ?get@Controls@Control@Forms@Windows@System@@$$FQ$AAMP$AAVControlCollection@2345@XZ
  00704	02		 ldarg.0 	; this$
  00705	7b 00 00 00 00	 ldfld ?questNum@QMarking@Mogitter@@3P$AAVLabel@Forms@Windows@System@@$AA
  0070a	6f 00 00 00 00	 callvirt ?Add@ControlCollection@Control@Forms@Windows@System@@$$FU$AAMXP$AAV2345@@Z

; 213  : 			this->panel1->ForeColor = System::Drawing::Color::Black;

  0070f	28 00 00 00 00	 call ?get@Black@Color@Drawing@System@@$$FSM?AV234@XZ
  00714	13 0b		 stloc.s 11	; $T17
  00716	02		 ldarg.0 	; this$
  00717	7b 00 00 00 00	 ldfld ?panel1@QMarking@Mogitter@@3P$AAVPanel@Forms@Windows@System@@$AA
  0071c	11 0b		 ldloc.s 11	; $T17
  0071e	6f 00 00 00 00	 callvirt ?set@ForeColor@Control@Forms@Windows@System@@$$FU$AAMXVColor@Drawing@5@@Z

; 214  : 			this->panel1->Location = System::Drawing::Point(0, 0);

  00723	12 0a		 ldloca.s 10	; $S57$
  00725	16		 ldc.i.0 0	; i32 0x0
  00726	16		 ldc.i.0 0	; i32 0x0
  00727	28 00 00 00 00	 call ??0Point@Drawing@System@@$$FQ$CAM@HH@Z
  0072c	02		 ldarg.0 	; this$
  0072d	7b 00 00 00 00	 ldfld ?panel1@QMarking@Mogitter@@3P$AAVPanel@Forms@Windows@System@@$AA
  00732	11 0a		 ldloc.s 10	; $S57$
  00734	28 00 00 00 00	 call ?set@Location@Control@Forms@Windows@System@@$$FQ$AAMXVPoint@Drawing@5@@Z

; 215  : 			this->panel1->Name = L"panel1";

  00739	02		 ldarg.0 	; this$
  0073a	7b 00 00 00 00	 ldfld ?panel1@QMarking@Mogitter@@3P$AAVPanel@Forms@Windows@System@@$AA
  0073f	72 00 00 00 00	 ldstr $StringLiteralTok$??_C@_1O@BHFINPOD@?$AAp?$AAa?$AAn?$AAe?$AAl?$AA1?$AA?$AA@
  00744	28 00 00 00 00	 call ?set@Name@Control@Forms@Windows@System@@$$FQ$AAMXP$AAVString@5@@Z

; 216  : 			this->panel1->Size = System::Drawing::Size(396, 67);

  00749	12 09		 ldloca.s 9	; $S58$
  0074b	20 8c 01 00 00	 ldc.i4 396	; i32 0x18c
  00750	1f 43		 ldc.i4.s 67	; i32 0x43
  00752	28 00 00 00 00	 call ??0Size@Drawing@System@@$$FQ$CAM@HH@Z
  00757	02		 ldarg.0 	; this$
  00758	7b 00 00 00 00	 ldfld ?panel1@QMarking@Mogitter@@3P$AAVPanel@Forms@Windows@System@@$AA
  0075d	11 09		 ldloc.s 9	; $S58$
  0075f	28 00 00 00 00	 call ?set@Size@Control@Forms@Windows@System@@$$FQ$AAMXV1Drawing@5@@Z

; 217  : 			this->panel1->TabIndex = 9;

  00764	02		 ldarg.0 	; this$
  00765	7b 00 00 00 00	 ldfld ?panel1@QMarking@Mogitter@@3P$AAVPanel@Forms@Windows@System@@$AA
  0076a	1f 09		 ldc.i4.s 9	; i32 0x9
  0076c	28 00 00 00 00	 call ?set@TabIndex@Control@Forms@Windows@System@@$$FQ$AAMXH@Z

; 218  : 			// 
; 219  : 			// timeLabel
; 220  : 			// 
; 221  : 			this->timeLabel->AutoSize = true;

  00771	02		 ldarg.0 	; this$
  00772	7b 00 00 00 00	 ldfld ?timeLabel@QMarking@Mogitter@@3P$AAVLabel@Forms@Windows@System@@$AA
  00777	17		 ldc.i.1 1	; u8 0x1
  00778	6f 00 00 00 00	 callvirt ?set@AutoSize@Label@Forms@Windows@System@@$$FU$AAMX_N@Z

; 222  : 			this->timeLabel->BackColor = System::Drawing::Color::White;

  0077d	28 00 00 00 00	 call ?get@White@Color@Drawing@System@@$$FSM?AV234@XZ
  00782	13 08		 stloc.s 8	; $T18
  00784	02		 ldarg.0 	; this$
  00785	7b 00 00 00 00	 ldfld ?timeLabel@QMarking@Mogitter@@3P$AAVLabel@Forms@Windows@System@@$AA
  0078a	11 08		 ldloc.s 8	; $T18
  0078c	6f 00 00 00 00	 callvirt ?set@BackColor@Control@Forms@Windows@System@@$$FU$AAMXVColor@Drawing@5@@Z

; 223  : 			this->timeLabel->Font = (gcnew System::Drawing::Font(L"メイリオ", 11.25F, System::Drawing::FontStyle::Regular, System::Drawing::GraphicsUnit::Point, 
; 224  : 				static_cast<System::Byte>(128)));

  00791	02		 ldarg.0 	; this$
  00792	7b 00 00 00 00	 ldfld ?timeLabel@QMarking@Mogitter@@3P$AAVLabel@Forms@Windows@System@@$AA
  00797	72 00 00 00 00	 ldstr $StringLiteralTok$??_C@_19HMEDOBKD@0?a0?$KE0?j0?$KK?$AA?$AA@
  0079c	22 00 00 34 41	 ldc.r4 11.250000
  007a1	16		 ldc.i.0 0	; i32 0x0
  007a2	19		 ldc.i.3 3	; i32 0x3
  007a3	20 80 00 00 00	 ldc.i4 128	; u8 0x80
  007a8	73 00 00 00 00	 newobj ??0Font@Drawing@System@@$$FQ$AAM@P$AAVString@2@MW4FontStyle@12@W4GraphicsUnit@12@E@Z
  007ad	6f 00 00 00 00	 callvirt ?set@Font@Control@Forms@Windows@System@@$$FU$AAMXP$AAV1Drawing@5@@Z

; 225  : 			this->timeLabel->ForeColor = System::Drawing::Color::Black;

  007b2	28 00 00 00 00	 call ?get@Black@Color@Drawing@System@@$$FSM?AV234@XZ
  007b7	13 07		 stloc.s 7	; $T19
  007b9	02		 ldarg.0 	; this$
  007ba	7b 00 00 00 00	 ldfld ?timeLabel@QMarking@Mogitter@@3P$AAVLabel@Forms@Windows@System@@$AA
  007bf	11 07		 ldloc.s 7	; $T19
  007c1	6f 00 00 00 00	 callvirt ?set@ForeColor@Control@Forms@Windows@System@@$$FU$AAMXVColor@Drawing@5@@Z

; 226  : 			this->timeLabel->Location = System::Drawing::Point(224, 174);

  007c6	12 06		 ldloca.s 6	; $S59$
  007c8	20 e0 00 00 00	 ldc.i4 224	; i32 0xe0
  007cd	20 ae 00 00 00	 ldc.i4 174	; i32 0xae
  007d2	28 00 00 00 00	 call ??0Point@Drawing@System@@$$FQ$CAM@HH@Z
  007d7	02		 ldarg.0 	; this$
  007d8	7b 00 00 00 00	 ldfld ?timeLabel@QMarking@Mogitter@@3P$AAVLabel@Forms@Windows@System@@$AA
  007dd	11 06		 ldloc.s 6	; $S59$
  007df	28 00 00 00 00	 call ?set@Location@Control@Forms@Windows@System@@$$FQ$AAMXVPoint@Drawing@5@@Z

; 227  : 			this->timeLabel->Name = L"timeLabel";

  007e4	02		 ldarg.0 	; this$
  007e5	7b 00 00 00 00	 ldfld ?timeLabel@QMarking@Mogitter@@3P$AAVLabel@Forms@Windows@System@@$AA
  007ea	72 00 00 00 00	 ldstr $StringLiteralTok$??_C@_1BE@OGPDMOJP@?$AAt?$AAi?$AAm?$AAe?$AAL?$AAa?$AAb?$AAe?$AAl?$AA?$AA@
  007ef	28 00 00 00 00	 call ?set@Name@Control@Forms@Windows@System@@$$FQ$AAMXP$AAVString@5@@Z

; 228  : 			this->timeLabel->Size = System::Drawing::Size(160, 23);

  007f4	12 05		 ldloca.s 5	; $S60$
  007f6	20 a0 00 00 00	 ldc.i4 160	; i32 0xa0
  007fb	1f 17		 ldc.i4.s 23	; i32 0x17
  007fd	28 00 00 00 00	 call ??0Size@Drawing@System@@$$FQ$CAM@HH@Z
  00802	02		 ldarg.0 	; this$
  00803	7b 00 00 00 00	 ldfld ?timeLabel@QMarking@Mogitter@@3P$AAVLabel@Forms@Windows@System@@$AA
  00808	11 05		 ldloc.s 5	; $S60$
  0080a	28 00 00 00 00	 call ?set@Size@Control@Forms@Windows@System@@$$FQ$AAMXV1Drawing@5@@Z

; 229  : 			this->timeLabel->TabIndex = 5;

  0080f	02		 ldarg.0 	; this$
  00810	7b 00 00 00 00	 ldfld ?timeLabel@QMarking@Mogitter@@3P$AAVLabel@Forms@Windows@System@@$AA
  00815	1b		 ldc.i.5 5	; i32 0x5
  00816	28 00 00 00 00	 call ?set@TabIndex@Control@Forms@Windows@System@@$$FQ$AAMXH@Z

; 230  : 			this->timeLabel->Text = L"消費時間：100分40秒";

  0081b	02		 ldarg.0 	; this$
  0081c	7b 00 00 00 00	 ldfld ?timeLabel@QMarking@Mogitter@@3P$AAVLabel@Forms@Windows@System@@$AA
  00821	72 00 00 00 00	 ldstr $StringLiteralTok$??_C@_1BK@MGMDCOLP@m?$II?$IM?$LLfB?$JF?$JD?$PP?$BK?$AA1?$AA0?$AA0R?$AG?$AA4?$AA0y?R?$AA?$AA@
  00826	6f 00 00 00 00	 callvirt ?set@Text@Label@Forms@Windows@System@@$$FU$AAMXP$AAVString@5@@Z

; 231  : 			// 
; 232  : 			// button2
; 233  : 			// 
; 234  : 			this->button2->AutoEllipsis = true;

  0082b	02		 ldarg.0 	; this$
  0082c	7b 00 00 00 00	 ldfld ?button2@QMarking@Mogitter@@3P$AAVButton@Forms@Windows@System@@$AA
  00831	17		 ldc.i.1 1	; u8 0x1
  00832	28 00 00 00 00	 call ?set@AutoEllipsis@ButtonBase@Forms@Windows@System@@$$FQ$AAMX_N@Z

; 235  : 			this->button2->Font = (gcnew System::Drawing::Font(L"メイリオ", 12, System::Drawing::FontStyle::Regular, System::Drawing::GraphicsUnit::Point, 
; 236  : 				static_cast<System::Byte>(128)));

  00837	02		 ldarg.0 	; this$
  00838	7b 00 00 00 00	 ldfld ?button2@QMarking@Mogitter@@3P$AAVButton@Forms@Windows@System@@$AA
  0083d	72 00 00 00 00	 ldstr $StringLiteralTok$??_C@_19HMEDOBKD@0?a0?$KE0?j0?$KK?$AA?$AA@
  00842	22 00 00 40 41	 ldc.r4 12.000000
  00847	16		 ldc.i.0 0	; i32 0x0
  00848	19		 ldc.i.3 3	; i32 0x3
  00849	20 80 00 00 00	 ldc.i4 128	; u8 0x80
  0084e	73 00 00 00 00	 newobj ??0Font@Drawing@System@@$$FQ$AAM@P$AAVString@2@MW4FontStyle@12@W4GraphicsUnit@12@E@Z
  00853	6f 00 00 00 00	 callvirt ?set@Font@Control@Forms@Windows@System@@$$FU$AAMXP$AAV1Drawing@5@@Z

; 237  : 			this->button2->Location = System::Drawing::Point(216, 209);

  00858	12 04		 ldloca.s 4	; $S61$
  0085a	20 d8 00 00 00	 ldc.i4 216	; i32 0xd8
  0085f	20 d1 00 00 00	 ldc.i4 209	; i32 0xd1
  00864	28 00 00 00 00	 call ??0Point@Drawing@System@@$$FQ$CAM@HH@Z
  00869	02		 ldarg.0 	; this$
  0086a	7b 00 00 00 00	 ldfld ?button2@QMarking@Mogitter@@3P$AAVButton@Forms@Windows@System@@$AA
  0086f	11 04		 ldloc.s 4	; $S61$
  00871	28 00 00 00 00	 call ?set@Location@Control@Forms@Windows@System@@$$FQ$AAMXVPoint@Drawing@5@@Z

; 238  : 			this->button2->Name = L"button2";

  00876	02		 ldarg.0 	; this$
  00877	7b 00 00 00 00	 ldfld ?button2@QMarking@Mogitter@@3P$AAVButton@Forms@Windows@System@@$AA
  0087c	72 00 00 00 00	 ldstr $StringLiteralTok$??_C@_1BA@HKJALCBI@?$AAb?$AAu?$AAt?$AAt?$AAo?$AAn?$AA2?$AA?$AA@
  00881	28 00 00 00 00	 call ?set@Name@Control@Forms@Windows@System@@$$FQ$AAMXP$AAVString@5@@Z

; 239  : 			this->button2->Size = System::Drawing::Size(91, 30);

  00886	12 03		 ldloca.s 3	; $S62$
  00888	1f 5b		 ldc.i4.s 91	; i32 0x5b
  0088a	1f 1e		 ldc.i4.s 30	; i32 0x1e
  0088c	28 00 00 00 00	 call ??0Size@Drawing@System@@$$FQ$CAM@HH@Z
  00891	02		 ldarg.0 	; this$
  00892	7b 00 00 00 00	 ldfld ?button2@QMarking@Mogitter@@3P$AAVButton@Forms@Windows@System@@$AA
  00897	09		 ldloc.3 	; $S62$
  00898	28 00 00 00 00	 call ?set@Size@Control@Forms@Windows@System@@$$FQ$AAMXV1Drawing@5@@Z

; 240  : 			this->button2->TabIndex = 10;

  0089d	02		 ldarg.0 	; this$
  0089e	7b 00 00 00 00	 ldfld ?button2@QMarking@Mogitter@@3P$AAVButton@Forms@Windows@System@@$AA
  008a3	1f 0a		 ldc.i4.s 10	; i32 0xa
  008a5	28 00 00 00 00	 call ?set@TabIndex@Control@Forms@Windows@System@@$$FQ$AAMXH@Z

; 241  : 			this->button2->Text = L"再挑戦";

  008aa	02		 ldarg.0 	; this$
  008ab	7b 00 00 00 00	 ldfld ?button2@QMarking@Mogitter@@3P$AAVButton@Forms@Windows@System@@$AA
  008b0	72 00 00 00 00	 ldstr $StringLiteralTok$??_C@_17PFDGBJB@Q?$INc?$BBb?$CG?$AA?$AA@
  008b5	6f 00 00 00 00	 callvirt ?set@Text@ButtonBase@Forms@Windows@System@@$$FU$AAMXP$AAVString@5@@Z

; 242  : 			this->button2->UseVisualStyleBackColor = true;

  008ba	02		 ldarg.0 	; this$
  008bb	7b 00 00 00 00	 ldfld ?button2@QMarking@Mogitter@@3P$AAVButton@Forms@Windows@System@@$AA
  008c0	17		 ldc.i.1 1	; u8 0x1
  008c1	28 00 00 00 00	 call ?set@UseVisualStyleBackColor@ButtonBase@Forms@Windows@System@@$$FQ$AAMX_N@Z

; 243  : 			this->button2->Click += gcnew System::EventHandler(this, &QMarking::button2_Click);

  008c6	02		 ldarg.0 	; this$
  008c7	7b 00 00 00 00	 ldfld ?button2@QMarking@Mogitter@@3P$AAVButton@Forms@Windows@System@@$AA
  008cc	02		 ldarg.0 	; this$
  008cd	fe 06 00 00 00
	00		 ldftn ?button2_Click@QMarking@Mogitter@@$$FQ$AAMXP$AAVObject@System@@P$AAVEventArgs@4@@Z
  008d3	73 00 00 00 00	 newobj ??0EventHandler@System@@$$FQ$AAM@P$AAVObject@1@VIntPtr@1@@Z
  008d8	28 00 00 00 00	 call ?add@Click@Control@Forms@Windows@System@@$$FQ$AAMXP$AAVEventHandler@5@@Z

; 244  : 			// 
; 245  : 			// QMarking
; 246  : 			// 
; 247  : 			this->AutoScaleDimensions = System::Drawing::SizeF(6, 12);

  008dd	12 02		 ldloca.s 2	; $S63$
  008df	22 00 00 c0 40	 ldc.r4 6.000000
  008e4	22 00 00 40 41	 ldc.r4 12.000000
  008e9	28 00 00 00 00	 call ??0SizeF@Drawing@System@@$$FQ$CAM@MM@Z
  008ee	02		 ldarg.0 	; this$
  008ef	08		 ldloc.2 	; $S63$
  008f0	28 00 00 00 00	 call ?set@AutoScaleDimensions@ContainerControl@Forms@Windows@System@@$$FQ$AAMXVSizeF@Drawing@5@@Z

; 248  : 			this->AutoScaleMode = System::Windows::Forms::AutoScaleMode::Font;

  008f5	02		 ldarg.0 	; this$
  008f6	17		 ldc.i.1 1	; i32 0x1
  008f7	28 00 00 00 00	 call ?set@AutoScaleMode@ContainerControl@Forms@Windows@System@@$$FQ$AAMXW41345@@Z

; 249  : 			this->BackColor = System::Drawing::Color::White;

  008fc	28 00 00 00 00	 call ?get@White@Color@Drawing@System@@$$FSM?AV234@XZ
  00901	0b		 stloc.1 	; $T20
  00902	02		 ldarg.0 	; this$
  00903	07		 ldloc.1 	; $T20
  00904	6f 00 00 00 00	 callvirt ?set@BackColor@Form@Forms@Windows@System@@$$FU$AAMXVColor@Drawing@5@@Z

; 250  : 			this->ClientSize = System::Drawing::Size(396, 251);

  00909	12 00		 ldloca.s 0	; $S64$
  0090b	20 8c 01 00 00	 ldc.i4 396	; i32 0x18c
  00910	20 fb 00 00 00	 ldc.i4 251	; i32 0xfb
  00915	28 00 00 00 00	 call ??0Size@Drawing@System@@$$FQ$CAM@HH@Z
  0091a	02		 ldarg.0 	; this$
  0091b	06		 ldloc.0 	; $S64$
  0091c	28 00 00 00 00	 call ?set@ClientSize@Form@Forms@Windows@System@@$$FQ$AAMXVSize@Drawing@5@@Z

; 251  : 			this->Controls->Add(this->button2);

  00921	02		 ldarg.0 	; this$
  00922	28 00 00 00 00	 call ?get@Controls@Control@Forms@Windows@System@@$$FQ$AAMP$AAVControlCollection@2345@XZ
  00927	02		 ldarg.0 	; this$
  00928	7b 00 00 00 00	 ldfld ?button2@QMarking@Mogitter@@3P$AAVButton@Forms@Windows@System@@$AA
  0092d	6f 00 00 00 00	 callvirt ?Add@ControlCollection@Control@Forms@Windows@System@@$$FU$AAMXP$AAV2345@@Z

; 252  : 			this->Controls->Add(this->timeLabel);

  00932	02		 ldarg.0 	; this$
  00933	28 00 00 00 00	 call ?get@Controls@Control@Forms@Windows@System@@$$FQ$AAMP$AAVControlCollection@2345@XZ
  00938	02		 ldarg.0 	; this$
  00939	7b 00 00 00 00	 ldfld ?timeLabel@QMarking@Mogitter@@3P$AAVLabel@Forms@Windows@System@@$AA
  0093e	6f 00 00 00 00	 callvirt ?Add@ControlCollection@Control@Forms@Windows@System@@$$FU$AAMXP$AAV2345@@Z

; 253  : 			this->Controls->Add(this->label7);

  00943	02		 ldarg.0 	; this$
  00944	28 00 00 00 00	 call ?get@Controls@Control@Forms@Windows@System@@$$FQ$AAMP$AAVControlCollection@2345@XZ
  00949	02		 ldarg.0 	; this$
  0094a	7b 00 00 00 00	 ldfld ?label7@QMarking@Mogitter@@3P$AAVLabel@Forms@Windows@System@@$AA
  0094f	6f 00 00 00 00	 callvirt ?Add@ControlCollection@Control@Forms@Windows@System@@$$FU$AAMXP$AAV2345@@Z

; 254  : 			this->Controls->Add(this->persentNum);

  00954	02		 ldarg.0 	; this$
  00955	28 00 00 00 00	 call ?get@Controls@Control@Forms@Windows@System@@$$FQ$AAMP$AAVControlCollection@2345@XZ
  0095a	02		 ldarg.0 	; this$
  0095b	7b 00 00 00 00	 ldfld ?persentNum@QMarking@Mogitter@@3P$AAVLabel@Forms@Windows@System@@$AA
  00960	6f 00 00 00 00	 callvirt ?Add@ControlCollection@Control@Forms@Windows@System@@$$FU$AAMXP$AAV2345@@Z

; 255  : 			this->Controls->Add(this->label5);

  00965	02		 ldarg.0 	; this$
  00966	28 00 00 00 00	 call ?get@Controls@Control@Forms@Windows@System@@$$FQ$AAMP$AAVControlCollection@2345@XZ
  0096b	02		 ldarg.0 	; this$
  0096c	7b 00 00 00 00	 ldfld ?label5@QMarking@Mogitter@@3P$AAVLabel@Forms@Windows@System@@$AA
  00971	6f 00 00 00 00	 callvirt ?Add@ControlCollection@Control@Forms@Windows@System@@$$FU$AAMXP$AAV2345@@Z

; 256  : 			this->Controls->Add(this->button1);

  00976	02		 ldarg.0 	; this$
  00977	28 00 00 00 00	 call ?get@Controls@Control@Forms@Windows@System@@$$FQ$AAMP$AAVControlCollection@2345@XZ
  0097c	02		 ldarg.0 	; this$
  0097d	7b 00 00 00 00	 ldfld ?button1@QMarking@Mogitter@@3P$AAVButton@Forms@Windows@System@@$AA
  00982	6f 00 00 00 00	 callvirt ?Add@ControlCollection@Control@Forms@Windows@System@@$$FU$AAMXP$AAV2345@@Z

; 257  : 			this->Controls->Add(this->panel1);

  00987	02		 ldarg.0 	; this$
  00988	28 00 00 00 00	 call ?get@Controls@Control@Forms@Windows@System@@$$FQ$AAMP$AAVControlCollection@2345@XZ
  0098d	02		 ldarg.0 	; this$
  0098e	7b 00 00 00 00	 ldfld ?panel1@QMarking@Mogitter@@3P$AAVPanel@Forms@Windows@System@@$AA
  00993	6f 00 00 00 00	 callvirt ?Add@ControlCollection@Control@Forms@Windows@System@@$$FU$AAMXP$AAV2345@@Z

; 258  : 			this->FormBorderStyle = System::Windows::Forms::FormBorderStyle::FixedDialog;

  00998	02		 ldarg.0 	; this$
  00999	19		 ldc.i.3 3	; i32 0x3
  0099a	28 00 00 00 00	 call ?set@FormBorderStyle@Form@Forms@Windows@System@@$$FQ$AAMXW41345@@Z

; 259  : 			this->Icon = (cli::safe_cast<System::Drawing::Icon^  >(resources->GetObject(L"$this.Icon")));

  0099f	02		 ldarg.0 	; this$
  009a0	11 2b		 ldloc.s 43	; resources$
  009a2	72 00 00 00 00	 ldstr $StringLiteralTok$??_C@_1BG@GPPJDCEN@?$AA$?$AAt?$AAh?$AAi?$AAs?$AA?4?$AAI?$AAc?$AAo?$AAn?$AA?$AA@
  009a7	6f 00 00 00 00	 callvirt ?GetObject@ResourceManager@Resources@System@@$$FU$AAMP$AAVObject@3@P$AAVString@3@@Z
  009ac	74 00 00 00 00	 castClass $TypeTok$112E75D4$
  009b1	28 00 00 00 00	 call ?set@Icon@Form@Forms@Windows@System@@$$FQ$AAMXP$AAV1Drawing@5@@Z

; 260  : 			this->MaximizeBox = false;

  009b6	02		 ldarg.0 	; this$
  009b7	16		 ldc.i.0 0	; u8 0x0
  009b8	28 00 00 00 00	 call ?set@MaximizeBox@Form@Forms@Windows@System@@$$FQ$AAMX_N@Z

; 261  : 			this->MinimizeBox = false;

  009bd	02		 ldarg.0 	; this$
  009be	16		 ldc.i.0 0	; u8 0x0
  009bf	28 00 00 00 00	 call ?set@MinimizeBox@Form@Forms@Windows@System@@$$FQ$AAMX_N@Z

; 262  : 			this->Name = L"QMarking";

  009c4	02		 ldarg.0 	; this$
  009c5	72 00 00 00 00	 ldstr $StringLiteralTok$??_C@_1BC@GPKDIKDL@?$AAQ?$AAM?$AAa?$AAr?$AAk?$AAi?$AAn?$AAg?$AA?$AA@
  009ca	28 00 00 00 00	 call ?set@Name@Control@Forms@Windows@System@@$$FQ$AAMXP$AAVString@5@@Z

; 263  : 			this->ShowInTaskbar = false;

  009cf	02		 ldarg.0 	; this$
  009d0	16		 ldc.i.0 0	; u8 0x0
  009d1	28 00 00 00 00	 call ?set@ShowInTaskbar@Form@Forms@Windows@System@@$$FQ$AAMX_N@Z

; 264  : 			this->StartPosition = System::Windows::Forms::FormStartPosition::CenterScreen;

  009d6	02		 ldarg.0 	; this$
  009d7	17		 ldc.i.1 1	; i32 0x1
  009d8	28 00 00 00 00	 call ?set@StartPosition@Form@Forms@Windows@System@@$$FQ$AAMXW4FormStartPosition@345@@Z

; 265  : 			this->Text = L"採点結果";

  009dd	02		 ldarg.0 	; this$
  009de	72 00 00 00 00	 ldstr $StringLiteralTok$??_C@_19KNBCPJJA@c?$KBp?$LJ?$HNPg?$JM?$AA?$AA@
  009e3	6f 00 00 00 00	 callvirt ?set@Text@Form@Forms@Windows@System@@$$FU$AAMXP$AAVString@5@@Z

; 266  : 			this->TopMost = true;

  009e8	02		 ldarg.0 	; this$
  009e9	17		 ldc.i.1 1	; u8 0x1
  009ea	28 00 00 00 00	 call ?set@TopMost@Form@Forms@Windows@System@@$$FQ$AAMX_N@Z

; 267  : 			this->FormClosed += gcnew System::Windows::Forms::FormClosedEventHandler(this, &QMarking::QMarking_FormClosed);

  009ef	02		 ldarg.0 	; this$
  009f0	25		 dup 
  009f1	fe 06 00 00 00
	00		 ldftn ?QMarking_FormClosed@QMarking@Mogitter@@$$FA$AAMXP$AAVObject@System@@P$AAVFormClosedEventArgs@Forms@Windows@4@@Z
  009f7	73 00 00 00 00	 newobj ??0FormClosedEventHandler@Forms@Windows@System@@$$FQ$AAM@P$AAVObject@3@VIntPtr@3@@Z
  009fc	28 00 00 00 00	 call ?add@FormClosed@Form@Forms@Windows@System@@$$FQ$AAMXP$AAVFormClosedEventHandler@345@@Z

; 268  : 			this->Load += gcnew System::EventHandler(this, &QMarking::QMarking_Load);

  00a01	02		 ldarg.0 	; this$
  00a02	25		 dup 
  00a03	fe 06 00 00 00
	00		 ldftn ?QMarking_Load@QMarking@Mogitter@@$$FA$AAMXP$AAVObject@System@@P$AAVEventArgs@4@@Z
  00a09	73 00 00 00 00	 newobj ??0EventHandler@System@@$$FQ$AAM@P$AAVObject@1@VIntPtr@1@@Z
  00a0e	28 00 00 00 00	 call ?add@Load@Form@Forms@Windows@System@@$$FQ$AAMXP$AAVEventHandler@5@@Z

; 269  : 			this->panel1->ResumeLayout(false);

  00a13	02		 ldarg.0 	; this$
  00a14	7b 00 00 00 00	 ldfld ?panel1@QMarking@Mogitter@@3P$AAVPanel@Forms@Windows@System@@$AA
  00a19	16		 ldc.i.0 0	; u8 0x0
  00a1a	28 00 00 00 00	 call ?ResumeLayout@Control@Forms@Windows@System@@$$FQ$AAMX_N@Z

; 270  : 			this->panel1->PerformLayout();

  00a1f	02		 ldarg.0 	; this$
  00a20	7b 00 00 00 00	 ldfld ?panel1@QMarking@Mogitter@@3P$AAVPanel@Forms@Windows@System@@$AA
  00a25	28 00 00 00 00	 call ?PerformLayout@Control@Forms@Windows@System@@$$FQ$AAMXXZ

; 271  : 			this->ResumeLayout(false);

  00a2a	02		 ldarg.0 	; this$
  00a2b	16		 ldc.i.0 0	; u8 0x0
  00a2c	28 00 00 00 00	 call ?ResumeLayout@Control@Forms@Windows@System@@$$FQ$AAMX_N@Z

; 272  : 			this->PerformLayout();

  00a31	02		 ldarg.0 	; this$
  00a32	28 00 00 00 00	 call ?PerformLayout@Control@Forms@Windows@System@@$$FQ$AAMXXZ

; 273  : 
; 274  : 		}

  00a37	2a		 ret 
 .end ?InitializeComponent@QMarking@Mogitter@@$$FA$AAMXXZ ; Mogitter::QMarking::InitializeComponent
;	.proc.end.void
	.bss
.local	$StringLiteralTok$??_C@_1BA@KJMINFHD@?$AA?$HL?$AAA?$AAn?$AAs?$AAw?$AAe?$AAr?$AA?$AA@,4
.local	$StringLiteralTok$??_C@_1CI@CJODEADL@?$AA?$CC?$AA?$HL?$AA?$CC0K0?$IJ?$AA?$CC?$AA?$HN?$AA?$CC0?$HO0g?$JAxb?$JO0W0f0O0?$GA0U0D0?$AC?$AA?$AA@,4
.local	$StringLiteralTok$??_C@_19JPDFHAGF@?$ILfTJ?$AA?$CB?$AA?$CB?$AA?$AA@,4
.local	$T1,0
; Function compile flags: /Ogsp
; File f:\meijin4\c++\mogitter\mogitter\form1.h
	.text
	.comdat	any, ?torikeshi_doing@Form1@Mogitter@@$$FA$AAMXP$AAVString@System@@@Z
.global	?torikeshi_doing@Form1@Mogitter@@$$FA$AAMXP$AAVString@System@@@Z ; Mogitter::Form1::torikeshi_doing
?torikeshi_doing@Form1@Mogitter@@$$FA$AAMXP$AAVString@System@@@Z: ; Mogitter::Form1::torikeshi_doing
;	.proc.def	D:V(P)

; Function Header:
; max stack depth = 4
; function size = 152 bytes
; local varsig tk = 0x11000034 
; Exception Information:
; 0 handlers, each consisting of filtered handlers

;	.formal.mptr 0,"this$" SIG: Optional C Binding Modifier(token:0x38BA05).class (token:0x38BA08)
;	.formal.mptr 1,"sele$" SIG: string
;	.local.mptr 0,"spliters$2" SIG: szarray (token:0x3D1C00D)
;	.local.mptr 1,"commands$3" SIG: szarray (token:0x3D1E3B5)
;	.local.mptr 2,"answer$4" SIG: string

;	.proc.beg

; 870  : 					 if(sele ==nullptr || sele->Length <= 0){

  0000b	03		 ldarg.1 	; sele$
  0000c	14		 ldnull 0	; i32 0x0
  0000d	28 00 00 00 00	 call ??8String@System@@$$FSM_NP$AAV01@0@Z
  00012	3a 8c 00 00 00	 brtrue $LN3@torikeshi_
  00017	03		 ldarg.1 	; sele$
  00018	28 00 00 00 00	 call ?get@Length@String@System@@$$FQ$AAMHXZ
  0001d	16		 ldc.i.0 0	; i32 0x0
  0001e	3e 80 00 00 00	 ble $LN3@torikeshi_

; 871  : 							 //MessageBox::Show("取り消したい問題部分を選択してください","警告!!",MessageBoxButtons::OK,MessageBoxIcon::Information);
; 872  : 							 return;
; 873  : 				     }
; 874  : 					 if(sele->StartsWith("{Answer") && sele->EndsWith(";}")){

  00023	03		 ldarg.1 	; sele$
  00024	72 00 00 00 00	 ldstr $StringLiteralTok$??_C@_1BA@KJMINFHD@?$AA?$HL?$AAA?$AAn?$AAs?$AAw?$AAe?$AAr?$AA?$AA@
  00029	28 00 00 00 00	 call ?StartsWith@String@System@@$$FQ$AAM_NP$AAV12@@Z
  0002e	2c 60		 brfalse.s $LN2@torikeshi_
  00030	03		 ldarg.1 	; sele$
  00031	72 00 00 00 00	 ldstr $StringLiteralTok$??_C@_15LJNFNBHD@?$AA?$DL?$AA?$HN?$AA?$AA@
  00036	28 00 00 00 00	 call ?EndsWith@String@System@@$$FQ$AAM_NP$AAV12@@Z
  0003b	2c 53		 brfalse.s $LN2@torikeshi_

; 875  : 								 array<wchar_t> ^spliters={';'};

  0003d	17		 ldc.i.1 1	; i32 0x1
  0003e	8d 00 00 00 00	 newarr $TypeTok$11003218$
  00043	0a		 stloc.0 	; spliters$2
  00044	06		 ldloc.0 	; spliters$2
  00045	16		 ldc.i.0 0	; i32 0x0
  00046	8f 00 00 00 00	 ldelema $va_argTok$_W
  0004b	1f 3b		 ldc.i4.s 59	; u16 0x3b
  0004d	53		 stind.i2 

; 876  : 								 //array<wchar_t>^ sep = {'\n'};
; 877  : 								 array<String^> ^commands = sele->Split(spliters);

  0004e	03		 ldarg.1 	; sele$
  0004f	06		 ldloc.0 	; spliters$2
  00050	28 00 00 00 00	 call ?Split@String@System@@$$FQ$AAMP$01AP$AAV12@P$01A_W@Z
  00055	0b		 stloc.1 	; commands$3

; 878  : 								 spliters[0] = '=';

  00056	06		 ldloc.0 	; spliters$2
  00057	16		 ldc.i.0 0	; i32 0x0
  00058	8f 00 00 00 00	 ldelema $va_argTok$_W
  0005d	1f 3d		 ldc.i4.s 61	; u16 0x3d
  0005f	53		 stind.i2 

; 879  : 								 commands[0] = MogiTest::escapeSet(commands[0]);

  00060	07		 ldloc.1 	; commands$3
  00061	16		 ldc.i.0 0	; i32 0x0
  00062	07		 ldloc.1 	; commands$3
  00063	16		 ldc.i.0 0	; i32 0x0
  00064	9a		 ldelem.ref 
  00065	28 00 00 00 00	 call ?escapeSet@MogiTest@Mogitter@@$$FSMP$AAVString@System@@P$AAV34@@Z
  0006a	a2		 stelem.ref 

; 880  : 								 String^ answer = (commands[0]->Split(spliters))[1];

  0006b	07		 ldloc.1 	; commands$3
  0006c	16		 ldc.i.0 0	; i32 0x0
  0006d	9a		 ldelem.ref 
  0006e	06		 ldloc.0 	; spliters$2
  0006f	28 00 00 00 00	 call ?Split@String@System@@$$FQ$AAMP$01AP$AAV12@P$01A_W@Z
  00074	17		 ldc.i.1 1	; i32 0x1
  00075	9a		 ldelem.ref 
  00076	0c		 stloc.2 	; answer$4

; 881  : 								 azukiArea->Document->Replace(MogiTest::escapeReSet(answer));//->Substring(0,answer->Length-1)

  00077	02		 ldarg.0 	; this$
  00078	7b 00 00 00 00	 ldfld ?azukiArea@Form1@Mogitter@@3P$AAVAzukiControl@WinForms@Azuki@Sgry@@$AA
  0007d	6f 00 00 00 00	 callvirt ?get@Document@AzukiControl@WinForms@Azuki@Sgry@@$$FU$AAMP$AAV145@XZ
  00082	08		 ldloc.2 	; answer$4
  00083	28 00 00 00 00	 call ?escapeReSet@MogiTest@Mogitter@@$$FSMP$AAVString@System@@P$AAV34@@Z
  00088	28 00 00 00 00	 call ?Replace@Document@Azuki@Sgry@@$$FQ$AAMXP$AAVString@System@@@Z

; 882  : 					 }else

  0008d	2b 14		 br.s $LN3@torikeshi_
$LN2@torikeshi_:

; 883  : 							 MessageBox::Show("\"{\"から\"}\"まで選択してください。","警告!!",MessageBoxButtons::OK,MessageBoxIcon::Error);

  00090	72 00 00 00 00	 ldstr $StringLiteralTok$??_C@_1CI@CJODEADL@?$AA?$CC?$AA?$HL?$AA?$CC0K0?$IJ?$AA?$CC?$AA?$HN?$AA?$CC0?$HO0g?$JAxb?$JO0W0f0O0?$GA0U0D0?$AC?$AA?$AA@
  00095	72 00 00 00 00	 ldstr $StringLiteralTok$??_C@_19JPDFHAGF@?$ILfTJ?$AA?$CB?$AA?$CB?$AA?$AA@
  0009a	16		 ldc.i.0 0	; i32 0x0
  0009b	1f 10		 ldc.i4.s 16	; i32 0x10
  0009d	28 00 00 00 00	 call ?Show@MessageBox@Forms@Windows@System@@$$FSM?AW4DialogResult@234@P$AAVString@4@0W4MessageBoxButtons@234@W4MessageBoxIcon@234@@Z
  000a2	26		 pop 
$LN3@torikeshi_:

; 884  : 	    	 }

  000a3	2a		 ret 
 .end ?torikeshi_doing@Form1@Mogitter@@$$FA$AAMXP$AAVString@System@@@Z ; Mogitter::Form1::torikeshi_doing
;	.proc.end.void
.global	
.global	?onlyAnaume@Form1@Mogitter@@3P$AAVCheckBox@Forms@Windows@System@@$AA ; Mogitter::Form1::onlyAnaume
	.bss
.local	,4
.local	?onlyAnaume@Form1@Mogitter@@3P$AAVCheckBox@Forms@Windows@System@@$AA,4 ; Mogitter::Form1::onlyAnaume
.local	$StringLiteralTok$??_C@_1BA@EPPFOGOE@?$AAA?$AAn?$AAs?$AAw?$AAe?$AAr?$AA?$DN?$AA?$AA@,4
.local	$StringLiteralTok$??_C@_1M@PIGCADDE@?$AAI?$AAt?$AAe?$AAm?$AA?$DN?$AA?$AA@,4
.local	$StringLiteralTok$??_C@_13DEFPDAGF@?$AA?0?$AA?$AA@,4
.local	$StringLiteralTok$??_C@_1BI@KPJMLFAF@?$AA?$DL?$AAA?$AAn?$AAs?$AAw?$AAe?$AAr?$AAN?$AAu?$AAm?$AA?$DN?$AA?$AA@,4
.local	$StringLiteralTok$??_C@_13MKMNOPIJ@?$AAD?$AA?$AA@,4
.local	$StringLiteralTok$??_C@_1BE@IEEHKKFC@?$AAH?$AAe?$AAa?$AAd?$AAC?$AAh?$AAa?$AAr?$AA?$DN?$AA?$AA@,4
.local	$StringLiteralTok$??_C@_19JIFHDGGH@?$AAk?$AAa?$AAn?$AAa?$AA?$AA@,4
.local	$StringLiteralTok$??_C@_1BC@NBMHCKEN@?$AAk?$AAa?$AAt?$AAa?$AAk?$AAa?$AAn?$AAa?$AA?$AA@,4
.local	$StringLiteralTok$??_C@_17LENLLOFB@?$AAA?$AAB?$AAC?$AA?$AA@,4
.local	$T1,0
; Function compile flags: /Ogsp
; File f:\meijin4\c++\mogitter\mogitter\form1.h
	.text
	.comdat	any, ?QBuild_doing@Form1@Mogitter@@$$FA$AAMXP$AAVQBuild@2@P$AAVString@System@@@Z
.global	?QBuild_doing@Form1@Mogitter@@$$FA$AAMXP$AAVQBuild@2@P$AAVString@System@@@Z ; Mogitter::Form1::QBuild_doing
?QBuild_doing@Form1@Mogitter@@$$FA$AAMXP$AAVQBuild@2@P$AAVString@System@@@Z: ; Mogitter::Form1::QBuild_doing
;	.proc.def	D:V(PP)

; Function Header:
; max stack depth = 5
; function size = 584 bytes
; local varsig tk = 0x11000036 
; Exception Information:
; 0 handlers, each consisting of filtered handlers

;	.formal.mptr 0,"this$" SIG: Optional C Binding Modifier(token:0x38BA05).class (token:0x38BA08)
;	.formal.mptr 2,"sele$" SIG: string
;	.formal.mptr 1,"exec$" SIG: class (token:0x3D1268D)
;	.local.mptr 0,"retStr$" SIG: string
;	.local.i4 5,"num$2" SIG: i4
;	.local.mptr 4,"ansStr$3" SIG: string
;	.local.mptr 6,"sep$4" SIG: szarray (token:0x3D1C00D)
;	.local.mptr 2,"kinds$5" SIG: szarray (token:0x3D1E3B5)
;	.local.i4 3,"len$6" SIG: i4
;	.local.i4 1,"i$7" SIG: i4
;	.local.i4 7,"$T8" SIG: i4

;	.proc.beg

; 974  : 						String^ retStr = sele;

  0000b	04		 ldarg.2 	; sele$
  0000c	0a		 stloc.0 	; retStr$

; 975  : 						if(onlyAnaume->Checked){

  0000d	02		 ldarg.0 	; this$
  0000e	7b 00 00 00 00	 ldfld ?onlyAnaume@Form1@Mogitter@@3P$AAVCheckBox@Forms@Windows@System@@$AA
  00013	28 00 00 00 00	 call ?get@Checked@CheckBox@Forms@Windows@System@@$$FQ$AAM_NXZ
  00018	2c 2d		 brfalse.s $LN17@QBuild_doi

; 976  : 							retStr = kakkos[0]+"Answer=" + MogiTest::escapeReady(sele)+";}";

  0001a	7e 00 00 00 00	 ldsfld ?kakkos@Form1@Mogitter@@1P$01AP$AAVString@System@@A
  0001f	16		 ldc.i.0 0	; i32 0x0
  00020	9a		 ldelem.ref 
  00021	72 00 00 00 00	 ldstr $StringLiteralTok$??_C@_1BA@EPPFOGOE@?$AAA?$AAn?$AAs?$AAw?$AAe?$AAr?$AA?$DN?$AA?$AA@
  00026	28 00 00 00 00	 call ?Concat@String@System@@$$FSMP$AAV12@P$AAV12@0@Z
  0002b	04		 ldarg.2 	; sele$
  0002c	28 00 00 00 00	 call ?escapeReady@MogiTest@Mogitter@@$$FSMP$AAVString@System@@P$AAV34@@Z
  00031	28 00 00 00 00	 call ?Concat@String@System@@$$FSMP$AAV12@P$AAV12@0@Z
  00036	72 00 00 00 00	 ldstr $StringLiteralTok$??_C@_15LJNFNBHD@?$AA?$DL?$AA?$HN?$AA?$AA@
  0003b	28 00 00 00 00	 call ?Concat@String@System@@$$FSMP$AAV12@P$AAV12@0@Z
  00040	0a		 stloc.0 	; retStr$

; 977  : 						}else{

  00041	38 fc 01 00 00	 br $LN13@QBuild_doi
$LN17@QBuild_doi:

; 978  : 							System::Windows::Forms::DialogResult result = exec->ShowDialog();
; 979  : 							if(result == System::Windows::Forms::DialogResult::OK){

  00047	03		 ldarg.1 	; exec$
  00048	28 00 00 00 00	 call ?ShowDialog@Form@Forms@Windows@System@@$$FQ$AAM?AW4DialogResult@234@XZ
  0004d	17		 ldc.i.1 1	; i32 0x1
  0004e	40 ef 01 00 00	 bne.un $LN13@QBuild_doi

; 980  : 									retStr = "";

  00053	72 00 00 00 00	 ldstr $StringLiteralTok$??_C@_11LOCGONAA@?$AA?$AA@
  00058	0a		 stloc.0 	; retStr$

; 981  : 									int num = System::Decimal::ToInt32(exec->seikaiNumber->Value);

  00059	03		 ldarg.1 	; exec$
  0005a	7b 00 00 00 00	 ldfld ?seikaiNumber@QBuild@Mogitter@@3P$AAVNumericUpDown@Forms@Windows@System@@$AA
  0005f	28 00 00 00 00	 call ?get@Value@NumericUpDown@Forms@Windows@System@@$$FQ$AAM?AVDecimal@5@XZ
  00064	28 00 00 00 00	 call ?ToInt32@Decimal@System@@$$FSMHV12@@Z
  00069	13 05		 stloc.s 5	; num$2

; 982  : 									int max = System::Decimal::ToInt32(exec->seikaiNumber->Maximum);

  0006b	03		 ldarg.1 	; exec$
  0006c	7b 00 00 00 00	 ldfld ?seikaiNumber@QBuild@Mogitter@@3P$AAVNumericUpDown@Forms@Windows@System@@$AA
  00071	28 00 00 00 00	 call ?get@Maximum@NumericUpDown@Forms@Windows@System@@$$FQ$AAM?AVDecimal@5@XZ
  00076	28 00 00 00 00	 call ?ToInt32@Decimal@System@@$$FSMHV12@@Z

; 983  : 									String^ ansStr = exec->answerBox->Text;

  0007b	03		 ldarg.1 	; exec$
  0007c	7b 00 00 00 00	 ldfld ?answerBox@QBuild@Mogitter@@3P$AAVTextBox@Forms@Windows@System@@$AA
  00081	6f 00 00 00 00	 callvirt ?get@Text@TextBox@Forms@Windows@System@@$$FU$AAMP$AAVString@5@XZ
  00086	13 04		 stloc.s 4	; ansStr$3

; 984  : 									ansStr = MogiTest::escapeReady(ansStr);

  00088	11 04		 ldloc.s 4	; ansStr$3
  0008a	28 00 00 00 00	 call ?escapeReady@MogiTest@Mogitter@@$$FSMP$AAVString@System@@P$AAV34@@Z
  0008f	13 04		 stloc.s 4	; ansStr$3

; 985  : 									if(max <= 1){

  00091	17		 ldc.i.1 1	; i32 0x1
  00092	30 2e		 bgt.s $LN14@QBuild_doi

; 986  : 											retStr += kakkos[0]+"Answer=" + ansStr+";}";

  00094	06		 ldloc.0 	; retStr$
  00095	7e 00 00 00 00	 ldsfld ?kakkos@Form1@Mogitter@@1P$01AP$AAVString@System@@A
  0009a	16		 ldc.i.0 0	; i32 0x0
  0009b	9a		 ldelem.ref 
  0009c	72 00 00 00 00	 ldstr $StringLiteralTok$??_C@_1BA@EPPFOGOE@?$AAA?$AAn?$AAs?$AAw?$AAe?$AAr?$AA?$DN?$AA?$AA@
  000a1	28 00 00 00 00	 call ?Concat@String@System@@$$FSMP$AAV12@P$AAV12@0@Z
  000a6	11 04		 ldloc.s 4	; ansStr$3
  000a8	28 00 00 00 00	 call ?Concat@String@System@@$$FSMP$AAV12@P$AAV12@0@Z
  000ad	72 00 00 00 00	 ldstr $StringLiteralTok$??_C@_15LJNFNBHD@?$AA?$DL?$AA?$HN?$AA?$AA@
  000b2	28 00 00 00 00	 call ?Concat@String@System@@$$FSMP$AAV12@P$AAV12@0@Z
  000b7	28 00 00 00 00	 call ?Concat@String@System@@$$FSMP$AAV12@P$AAV12@0@Z
  000bc	0a		 stloc.0 	; retStr$

; 987  : 									}else{

  000bd	38 80 01 00 00	 br $LN13@QBuild_doi
$LN14@QBuild_doi:

; 988  : 											retStr += kakkos[1] + "Answer=" + ansStr + ";";

  000c2	06		 ldloc.0 	; retStr$
  000c3	7e 00 00 00 00	 ldsfld ?kakkos@Form1@Mogitter@@1P$01AP$AAVString@System@@A
  000c8	17		 ldc.i.1 1	; i32 0x1
  000c9	9a		 ldelem.ref 
  000ca	72 00 00 00 00	 ldstr $StringLiteralTok$??_C@_1BA@EPPFOGOE@?$AAA?$AAn?$AAs?$AAw?$AAe?$AAr?$AA?$DN?$AA?$AA@
  000cf	28 00 00 00 00	 call ?Concat@String@System@@$$FSMP$AAV12@P$AAV12@0@Z
  000d4	11 04		 ldloc.s 4	; ansStr$3
  000d6	28 00 00 00 00	 call ?Concat@String@System@@$$FSMP$AAV12@P$AAV12@0@Z
  000db	72 00 00 00 00	 ldstr $StringLiteralTok$??_C@_13PJJBFPED@?$AA?$DL?$AA?$AA@
  000e0	28 00 00 00 00	 call ?Concat@String@System@@$$FSMP$AAV12@P$AAV12@0@Z
  000e5	28 00 00 00 00	 call ?Concat@String@System@@$$FSMP$AAV12@P$AAV12@0@Z
  000ea	0a		 stloc.0 	; retStr$

; 989  : 											retStr += "Item=";

  000eb	06		 ldloc.0 	; retStr$
  000ec	72 00 00 00 00	 ldstr $StringLiteralTok$??_C@_1M@PIGCADDE@?$AAI?$AAt?$AAe?$AAm?$AA?$DN?$AA?$AA@
  000f1	28 00 00 00 00	 call ?Concat@String@System@@$$FSMP$AAV12@P$AAV12@0@Z
  000f6	0a		 stloc.0 	; retStr$

; 990  : 											//int len = exec->sentakushi->LineCount;
; 991  : 											array<wchar_t>^ sep = {'\n'};

  000f7	17		 ldc.i.1 1	; i32 0x1
  000f8	8d 00 00 00 00	 newarr $TypeTok$11003218$
  000fd	13 06		 stloc.s 6	; sep$4
  000ff	11 06		 ldloc.s 6	; sep$4
  00101	16		 ldc.i.0 0	; i32 0x0
  00102	8f 00 00 00 00	 ldelema $va_argTok$_W
  00107	1f 0a		 ldc.i4.s 10	; u16 0xa
  00109	53		 stind.i2 

; 992  : 											array<System::String ^> ^kinds=exec->sentakushi->Text->Split(sep);

  0010a	03		 ldarg.1 	; exec$
  0010b	7b 00 00 00 00	 ldfld ?sentakushi@QBuild@Mogitter@@3P$AAVAzukiControl@WinForms@Azuki@Sgry@@$AA
  00110	6f 00 00 00 00	 callvirt ?get@Text@AzukiControl@WinForms@Azuki@Sgry@@$$FU$AAMP$AAVString@System@@XZ
  00115	11 06		 ldloc.s 6	; sep$4
  00117	28 00 00 00 00	 call ?Split@String@System@@$$FQ$AAMP$01AP$AAV12@P$01A_W@Z
  0011c	0c		 stloc.2 	; kinds$5

; 993  : 											int len = 0;

  0011d	16		 ldc.i.0 0	; i32 0x0
  0011e	0d		 stloc.3 	; len$6

; 994  : 											for(int i=0;i<kinds->Length;i++){

  0011f	16		 ldc.i.0 0	; i32 0x0
  00120	0b		 stloc.1 	; i$7
  00121	16		 ldc.i.0 0	; i32 0x0
  00122	08		 ldloc.2 	; kinds$5
  00123	8e		 ldlen 
  00124	2f 66		 bge.s $LN10@QBuild_doi
$LL12@QBuild_doi:

; 995  : 													kinds[i] = kinds[i]->Replace("\n","");

  00126	08		 ldloc.2 	; kinds$5
  00127	07		 ldloc.1 	; i$7
  00128	08		 ldloc.2 	; kinds$5
  00129	07		 ldloc.1 	; i$7
  0012a	9a		 ldelem.ref 
  0012b	72 00 00 00 00	 ldstr $StringLiteralTok$??_C@_13LBAGMAIH@?$AA?6?$AA?$AA@
  00130	72 00 00 00 00	 ldstr $StringLiteralTok$??_C@_11LOCGONAA@?$AA?$AA@
  00135	28 00 00 00 00	 call ?Replace@String@System@@$$FQ$AAMP$AAV12@P$AAV12@0@Z
  0013a	a2		 stelem.ref 

; 996  : 													kinds[i] = kinds[i]->Replace("\r","");

  0013b	08		 ldloc.2 	; kinds$5
  0013c	07		 ldloc.1 	; i$7
  0013d	08		 ldloc.2 	; kinds$5
  0013e	07		 ldloc.1 	; i$7
  0013f	9a		 ldelem.ref 
  00140	72 00 00 00 00	 ldstr $StringLiteralTok$??_C@_13CMNBPIDO@?$AA?$AN?$AA?$AA@
  00145	72 00 00 00 00	 ldstr $StringLiteralTok$??_C@_11LOCGONAA@?$AA?$AA@
  0014a	28 00 00 00 00	 call ?Replace@String@System@@$$FQ$AAMP$AAV12@P$AAV12@0@Z
  0014f	a2		 stelem.ref 

; 997  : 													if(kinds[i]->Length==0)

  00150	08		 ldloc.2 	; kinds$5
  00151	07		 ldloc.1 	; i$7
  00152	9a		 ldelem.ref 
  00153	28 00 00 00 00	 call ?get@Length@String@System@@$$FQ$AAMHXZ
  00158	2c 29		 brfalse.s $LN11@QBuild_doi

; 998  : 															continue;
; 999  : 													if(len>0)

  0015a	09		 ldloc.3 	; len$6
  0015b	16		 ldc.i.0 0	; i32 0x0
  0015c	31 0c		 ble.s $LN8@QBuild_doi

; 1000 : 															retStr+=",";

  0015e	06		 ldloc.0 	; retStr$
  0015f	72 00 00 00 00	 ldstr $StringLiteralTok$??_C@_13DEFPDAGF@?$AA?0?$AA?$AA@
  00164	28 00 00 00 00	 call ?Concat@String@System@@$$FSMP$AAV12@P$AAV12@0@Z
  00169	0a		 stloc.0 	; retStr$
$LN8@QBuild_doi:

; 1001 : 													kinds[i] = MogiTest::escapeReady(kinds[i]);

  0016a	08		 ldloc.2 	; kinds$5
  0016b	07		 ldloc.1 	; i$7
  0016c	08		 ldloc.2 	; kinds$5
  0016d	07		 ldloc.1 	; i$7
  0016e	9a		 ldelem.ref 
  0016f	28 00 00 00 00	 call ?escapeReady@MogiTest@Mogitter@@$$FSMP$AAVString@System@@P$AAV34@@Z
  00174	a2		 stelem.ref 

; 1002 : 													retStr +=kinds[i];

  00175	06		 ldloc.0 	; retStr$
  00176	08		 ldloc.2 	; kinds$5
  00177	07		 ldloc.1 	; i$7
  00178	9a		 ldelem.ref 
  00179	28 00 00 00 00	 call ?Concat@String@System@@$$FSMP$AAV12@P$AAV12@0@Z
  0017e	0a		 stloc.0 	; retStr$

; 1003 : 													len++;

  0017f	09		 ldloc.3 	; len$6
  00180	17		 ldc.i.1 1	; i32 0x1
  00181	58		 add 
  00182	0d		 stloc.3 	; len$6
$LN11@QBuild_doi:

; 994  : 											for(int i=0;i<kinds->Length;i++){

  00183	07		 ldloc.1 	; i$7
  00184	17		 ldc.i.1 1	; i32 0x1
  00185	58		 add 
  00186	0b		 stloc.1 	; i$7
  00187	07		 ldloc.1 	; i$7
  00188	08		 ldloc.2 	; kinds$5
  00189	8e		 ldlen 
  0018a	32 9a		 blt.s $LL12@QBuild_doi
$LN10@QBuild_doi:

; 1004 : 											}
; 1005 : 											if(len<num) num = len+1;

  0018c	09		 ldloc.3 	; len$6
  0018d	11 05		 ldloc.s 5	; num$2
  0018f	2f 05		 bge.s $LN7@QBuild_doi
  00191	09		 ldloc.3 	; len$6
  00192	17		 ldc.i.1 1	; i32 0x1
  00193	58		 add 
  00194	13 05		 stloc.s 5	; num$2
$LN7@QBuild_doi:

; 1006 : 											retStr += ";AnswerNum=" + num.ToString("D")+";";

  00196	11 05		 ldloc.s 5	; num$2
  00198	13 07		 stloc.s 7	; $T8
  0019a	06		 ldloc.0 	; retStr$
  0019b	72 00 00 00 00	 ldstr $StringLiteralTok$??_C@_1BI@KPJMLFAF@?$AA?$DL?$AAA?$AAn?$AAs?$AAw?$AAe?$AAr?$AAN?$AAu?$AAm?$AA?$DN?$AA?$AA@
  001a0	12 07		 ldloca.s 7	; $T8
  001a2	72 00 00 00 00	 ldstr $StringLiteralTok$??_C@_13MKMNOPIJ@?$AAD?$AA?$AA@
  001a7	28 00 00 00 00	 call ?ToString@Int32@System@@$$FQ$CAMP$AAVString@2@P$AAV32@@Z
  001ac	28 00 00 00 00	 call ?Concat@String@System@@$$FSMP$AAV12@P$AAV12@0@Z
  001b1	72 00 00 00 00	 ldstr $StringLiteralTok$??_C@_13PJJBFPED@?$AA?$DL?$AA?$AA@
  001b6	28 00 00 00 00	 call ?Concat@String@System@@$$FSMP$AAV12@P$AAV12@0@Z
  001bb	28 00 00 00 00	 call ?Concat@String@System@@$$FSMP$AAV12@P$AAV12@0@Z
  001c0	0a		 stloc.0 	; retStr$

; 1007 : 											retStr += "HeadChar=";

  001c1	06		 ldloc.0 	; retStr$
  001c2	72 00 00 00 00	 ldstr $StringLiteralTok$??_C@_1BE@IEEHKKFC@?$AAH?$AAe?$AAa?$AAd?$AAC?$AAh?$AAa?$AAr?$AA?$DN?$AA?$AA@
  001c7	28 00 00 00 00	 call ?Concat@String@System@@$$FSMP$AAV12@P$AAV12@0@Z
  001cc	0a		 stloc.0 	; retStr$

; 1008 : 											if(exec->kana_abc->Checked){

  001cd	03		 ldarg.1 	; exec$
  001ce	7b 00 00 00 00	 ldfld ?kana_abc@QBuild@Mogitter@@3P$AAVRadioButton@Forms@Windows@System@@$AA
  001d3	28 00 00 00 00	 call ?get@Checked@RadioButton@Forms@Windows@System@@$$FQ$AAM_NXZ
  001d8	2c 0e		 brfalse.s $LN6@QBuild_doi

; 1009 : 												retStr += "kana";

  001da	06		 ldloc.0 	; retStr$
  001db	72 00 00 00 00	 ldstr $StringLiteralTok$??_C@_19JIFHDGGH@?$AAk?$AAa?$AAn?$AAa?$AA?$AA@
  001e0	28 00 00 00 00	 call ?Concat@String@System@@$$FSMP$AAV12@P$AAV12@0@Z
  001e5	0a		 stloc.0 	; retStr$
  001e6	2b 42		 br.s $LN1@QBuild_doi
$LN6@QBuild_doi:

; 1010 : 											}else if(exec->katakana_abc->Checked){

  001e8	03		 ldarg.1 	; exec$
  001e9	7b 00 00 00 00	 ldfld ?katakana_abc@QBuild@Mogitter@@3P$AAVRadioButton@Forms@Windows@System@@$AA
  001ee	28 00 00 00 00	 call ?get@Checked@RadioButton@Forms@Windows@System@@$$FQ$AAM_NXZ
  001f3	2c 0e		 brfalse.s $LN4@QBuild_doi

; 1011 : 												retStr += "katakana";

  001f5	06		 ldloc.0 	; retStr$
  001f6	72 00 00 00 00	 ldstr $StringLiteralTok$??_C@_1BC@NBMHCKEN@?$AAk?$AAa?$AAt?$AAa?$AAk?$AAa?$AAn?$AAa?$AA?$AA@
  001fb	28 00 00 00 00	 call ?Concat@String@System@@$$FSMP$AAV12@P$AAV12@0@Z
  00200	0a		 stloc.0 	; retStr$
  00201	2b 27		 br.s $LN1@QBuild_doi
$LN4@QBuild_doi:

; 1012 : 											}else if(exec->abc->Checked){

  00203	03		 ldarg.1 	; exec$
  00204	7b 00 00 00 00	 ldfld ?abc@QBuild@Mogitter@@3P$AAVRadioButton@Forms@Windows@System@@$AA
  00209	28 00 00 00 00	 call ?get@Checked@RadioButton@Forms@Windows@System@@$$FQ$AAM_NXZ
  0020e	2c 0e		 brfalse.s $LN2@QBuild_doi

; 1013 : 												retStr += "abc";

  00210	06		 ldloc.0 	; retStr$
  00211	72 00 00 00 00	 ldstr $StringLiteralTok$??_C@_17OKDDHGAP@?$AAa?$AAb?$AAc?$AA?$AA@
  00216	28 00 00 00 00	 call ?Concat@String@System@@$$FSMP$AAV12@P$AAV12@0@Z
  0021b	0a		 stloc.0 	; retStr$

; 1014 : 											}else{

  0021c	2b 0c		 br.s $LN1@QBuild_doi
$LN2@QBuild_doi:

; 1015 : 												retStr += "ABC";

  0021e	06		 ldloc.0 	; retStr$
  0021f	72 00 00 00 00	 ldstr $StringLiteralTok$??_C@_17LENLLOFB@?$AAA?$AAB?$AAC?$AA?$AA@
  00224	28 00 00 00 00	 call ?Concat@String@System@@$$FSMP$AAV12@P$AAV12@0@Z
  00229	0a		 stloc.0 	; retStr$
$LN1@QBuild_doi:

; 1016 : 											}
; 1017 : 											retStr += ";";

  0022a	06		 ldloc.0 	; retStr$
  0022b	72 00 00 00 00	 ldstr $StringLiteralTok$??_C@_13PJJBFPED@?$AA?$DL?$AA?$AA@
  00230	28 00 00 00 00	 call ?Concat@String@System@@$$FSMP$AAV12@P$AAV12@0@Z
  00235	0a		 stloc.0 	; retStr$

; 1018 : 											retStr += "}";

  00236	06		 ldloc.0 	; retStr$
  00237	72 00 00 00 00	 ldstr $StringLiteralTok$??_C@_13EHOOFIKC@?$AA?$HN?$AA?$AA@
  0023c	28 00 00 00 00	 call ?Concat@String@System@@$$FSMP$AAV12@P$AAV12@0@Z
  00241	0a		 stloc.0 	; retStr$
$LN13@QBuild_doi:

; 1019 : 									}
; 1020 : 							}
; 1021 : 						}
; 1022 : 						azukiArea->Document->Replace(retStr);

  00242	02		 ldarg.0 	; this$
  00243	7b 00 00 00 00	 ldfld ?azukiArea@Form1@Mogitter@@3P$AAVAzukiControl@WinForms@Azuki@Sgry@@$AA
  00248	6f 00 00 00 00	 callvirt ?get@Document@AzukiControl@WinForms@Azuki@Sgry@@$$FU$AAMP$AAV145@XZ
  0024d	06		 ldloc.0 	; retStr$
  0024e	28 00 00 00 00	 call ?Replace@Document@Azuki@Sgry@@$$FQ$AAMXP$AAVString@System@@@Z

; 1023 : 				  }

  00253	2a		 ret 
 .end ?QBuild_doing@Form1@Mogitter@@$$FA$AAMXP$AAVQBuild@2@P$AAVString@System@@@Z ; Mogitter::Form1::QBuild_doing
;	.proc.end.void
	.bss
.local	$T1,0
; Function compile flags: /Ogsp
; File f:\meijin4\c++\mogitter\mogitter\form1.h
	.text
	.comdat	any, ?over_writeMenuItem_Click@Form1@Mogitter@@$$FA$AAMXP$AAVObject@System@@P$AAVEventArgs@4@@Z
.global	?over_writeMenuItem_Click@Form1@Mogitter@@$$FA$AAMXP$AAVObject@System@@P$AAVEventArgs@4@@Z ; Mogitter::Form1::over_writeMenuItem_Click
?over_writeMenuItem_Click@Form1@Mogitter@@$$FA$AAMXP$AAVObject@System@@P$AAVEventArgs@4@@Z: ; Mogitter::Form1::over_writeMenuItem_Click
;	.proc.def	D:V(PP)

; Function Header:
; max stack depth = 3
; function size = 95 bytes
; local varsig tk = 0x11000037 
; Exception Information:
; 0 handlers, each consisting of filtered handlers

;	.formal.mptr 0,"this$" SIG: Optional C Binding Modifier(token:0x38BA05).class (token:0x38BA08)
;	.formal.mptr 2,"e$" SIG: class (token:0x3D1D1F5)
;	.formal.mptr 1,"sender$" SIG: Unknown COM+ Object Signature
;	.local.mptr 0,"writer$2" SIG: class (token:0x3D78CE5)

;	.proc.beg

; 1043 : 			 if (fileName->Length > 0)

  0000b	02		 ldarg.0 	; this$
  0000c	7b 00 00 00 00	 ldfld ?fileName@Form1@Mogitter@@3P$AAVString@System@@$AA
  00011	28 00 00 00 00	 call ?get@Length@String@System@@$$FQ$AAMHXZ
  00016	16		 ldc.i.0 0	; i32 0x0
  00017	31 49		 ble.s $LN3@over_write

; 1044 : 			 {
; 1045 : 				 FileInfo^ f = gcnew FileInfo(fileName);

  00019	02		 ldarg.0 	; this$
  0001a	7b 00 00 00 00	 ldfld ?fileName@Form1@Mogitter@@3P$AAVString@System@@$AA
  0001f	73 00 00 00 00	 newobj ??0FileInfo@IO@System@@$$FQ$AAM@P$AAVString@2@@Z

; 1046 : 				 if (f->Exists)

  00024	6f 00 00 00 00	 callvirt ?get@Exists@FileInfo@IO@System@@$$FU$AAM_NXZ
  00029	2c 3f		 brfalse.s $LN1@over_write

; 1047 : 				 {
; 1048 : 					 StreamWriter^ writer = gcnew StreamWriter(fileName,false,System::Text::Encoding::GetEncoding(mojiCode->Text));

  0002b	02		 ldarg.0 	; this$
  0002c	7b 00 00 00 00	 ldfld ?fileName@Form1@Mogitter@@3P$AAVString@System@@$AA
  00031	16		 ldc.i.0 0	; u8 0x0
  00032	02		 ldarg.0 	; this$
  00033	7b 00 00 00 00	 ldfld ?mojiCode@Form1@Mogitter@@3P$AAVToolStripDropDownButton@Forms@Windows@System@@$AA
  00038	6f 00 00 00 00	 callvirt ?get@Text@ToolStripItem@Forms@Windows@System@@$$FU$AAMP$AAVString@5@XZ
  0003d	28 00 00 00 00	 call ?GetEncoding@Encoding@Text@System@@$$FSMP$AAV123@P$AAVString@3@@Z
  00042	73 00 00 00 00	 newobj ??0StreamWriter@IO@System@@$$FQ$AAM@P$AAVString@2@_NP$AAVEncoding@Text@2@@Z
  00047	0a		 stloc.0 	; writer$2

; 1049 : 					 writer->Write(azukiArea->Text);

  00048	06		 ldloc.0 	; writer$2
  00049	02		 ldarg.0 	; this$
  0004a	7b 00 00 00 00	 ldfld ?azukiArea@Form1@Mogitter@@3P$AAVAzukiControl@WinForms@Azuki@Sgry@@$AA
  0004f	6f 00 00 00 00	 callvirt ?get@Text@AzukiControl@WinForms@Azuki@Sgry@@$$FU$AAMP$AAVString@System@@XZ
  00054	6f 00 00 00 00	 callvirt ?Write@StreamWriter@IO@System@@$$FU$AAMXP$AAVString@3@@Z

; 1050 : 
; 1051 : 					 writer->Close();

  00059	06		 ldloc.0 	; writer$2
  0005a	6f 00 00 00 00	 callvirt ?Close@StreamWriter@IO@System@@$$FU$AAMXXZ

; 1052 : 				 }
; 1053 : 			 }else

  0005f	2b 09		 br.s $LN1@over_write
$LN3@over_write:

; 1054 : 			 {
; 1055 : 				 named_saveMenuItem_Click(sender,e);

  00062	02		 ldarg.0 	; this$
  00063	03		 ldarg.1 	; sender$
  00064	04		 ldarg.2 	; e$
  00065	28 00 00 00 00	 call ?named_saveMenuItem_Click@Form1@Mogitter@@$$FA$AAMXP$AAVObject@System@@P$AAVEventArgs@4@@Z
$LN1@over_write:

; 1056 : 			 }
; 1057 : 			}

  0006a	2a		 ret 
 .end ?over_writeMenuItem_Click@Form1@Mogitter@@$$FA$AAMXP$AAVObject@System@@P$AAVEventArgs@4@@Z ; Mogitter::Form1::over_writeMenuItem_Click
;	.proc.end.void
.global	
.global	
.global	
	.bss
.local	,4
.local	,4
.local	,4
.local	$T1,0
; Function compile flags: /Ogsp
; File f:\meijin4\c++\mogitter\mogitter\mogimeijin.cpp
	.text
	.comdat	noduplicate, ?printSprash@@$$FYMXP$AAVForm@Forms@Windows@System@@P$AAVSprash@Mogitter@@@Z
.global	?printSprash@@$$FYMXP$AAVForm@Forms@Windows@System@@P$AAVSprash@Mogitter@@@Z ; printSprash
?printSprash@@$$FYMXP$AAVForm@Forms@Windows@System@@P$AAVSprash@Mogitter@@@Z: ; printSprash
;	.proc.def	D:V(PP)

; Function Header:
; max stack depth = 2
; function size = 81 bytes
; local varsig tk = 0x1100003B 
; Exception Information:
; 0 handlers, each consisting of filtered handlers

;	.formal.mptr 1,"spr$" SIG: class (token:0x3D7B975)
;	.formal.mptr 0,"mt$" SIG: class (token:0x3D7B8D5)
;	.local.mptr 0,"th$" SIG: class (token:0x3D7B83D)

;	.proc.beg

; 11   : 		spr->Show();

  0000b	03		 ldarg.1 	; spr$
  0000c	28 00 00 00 00	 call ?Show@Control@Forms@Windows@System@@$$FQ$AAMXXZ

; 12   : 		spr->Refresh();

  00011	03		 ldarg.1 	; spr$
  00012	6f 00 00 00 00	 callvirt ?Refresh@Control@Forms@Windows@System@@$$FU$AAMXXZ

; 11   : 		spr->Show();

  00017	1f 28		 ldc.i4.s 40	; u32 0x28
  00019	0b		 stloc.1 	
$LL4@printSpras:

; 14   : 			Application::DoEvents();

  0001b	28 00 00 00 00	 call ?DoEvents@Application@Forms@Windows@System@@$$FSMXXZ

; 15   : 			System::Threading::Thread::Sleep(40);

  00020	1f 28		 ldc.i4.s 40	; i32 0x28
  00022	28 00 00 00 00	 call ?Sleep@Thread@Threading@System@@$$FSMXH@Z

; 13   : 		for(int i=0;i<40;i++){

  00027	07		 ldloc.1 	
  00028	17		 ldc.i.1 1	; u32 0x1
  00029	59		 sub 
  0002a	0b		 stloc.1 	
  0002b	07		 ldloc.1 	
  0002c	16		 ldc.i.0 0	; u32 0x0
  0002d	35 ec		 bgt.un.s $LL4@printSpras

; 16   : 		}
; 17   : 		System::Threading::ThreadStart^ ts = gcnew System::Threading::ThreadStart(spr,&Sprash::printSprash);

  0002f	03		 ldarg.1 	; spr$
  00030	fe 06 00 00 00
	00		 ldftn ?printSprash@Sprash@Mogitter@@$$FQ$AAMXXZ
  00036	73 00 00 00 00	 newobj ??0ThreadStart@Threading@System@@$$FQ$AAM@P$AAVObject@2@VIntPtr@2@@Z

; 18   : 		System::Threading::Thread^ th = gcnew System::Threading::Thread(ts);

  0003b	73 00 00 00 00	 newobj ??0Thread@Threading@System@@$$FQ$AAM@P$AAVThreadStart@12@@Z
  00040	0a		 stloc.0 	; th$

; 19   : 		th->Start();

  00041	06		 ldloc.0 	; th$
  00042	28 00 00 00 00	 call ?Start@Thread@Threading@System@@$$FQ$AAMXXZ

; 20   : 		Application::Run(mt);

  00047	02		 ldarg.0 	; mt$
  00048	28 00 00 00 00	 call ?Run@Application@Forms@Windows@System@@$$FSMXP$AAVForm@234@@Z

; 21   : 		if (th->ThreadState != System::Threading::ThreadState::Unstarted)

  0004d	06		 ldloc.0 	; th$
  0004e	28 00 00 00 00	 call ?get@ThreadState@Thread@Threading@System@@$$FQ$AAM?AW4134@XZ
  00053	1e		 ldc.i.8 8	; i32 0x8
  00054	2e 06		 beq.s $LN1@printSpras

; 22   : 		{
; 23   : 			th->Abort();

  00056	06		 ldloc.0 	; th$
  00057	28 00 00 00 00	 call ?Abort@Thread@Threading@System@@$$FQ$AAMXXZ
$LN1@printSpras:

; 24   : 		}
; 25   : }

  0005c	2a		 ret 
 .end ?printSprash@@$$FYMXP$AAVForm@Forms@Windows@System@@P$AAVSprash@Mogitter@@@Z ; printSprash
;	.proc.end.void
.global	
.global	
.global	?plainText@MogiTest@Mogitter@@3P$AAVString@System@@$AA ; Mogitter::MogiTest::plainText
	.bss
.local	,4
.local	,4
.local	$TypeTok$110030E4$,4
.local	?plainText@MogiTest@Mogitter@@3P$AAVString@System@@$AA,4 ; Mogitter::MogiTest::plainText
.local	$StringLiteralTok$??_C@_19MHLFJFLO@?$AAI?$AAt?$AAe?$AAm?$AA?$AA@,4
.local	$StringLiteralTok$??_C@_1BE@MLKGBGFL@?$AAA?$AAn?$AAs?$AAw?$AAe?$AAr?$AAN?$AAu?$AAm?$AA?$AA@,4
.local	$StringLiteralTok$??_C@_1BC@DILLDECC@?$AAH?$AAe?$AAa?$AAd?$AAC?$AAh?$AAa?$AAr?$AA?$AA@,4
.local	$StringLiteralTok$??_C@_13MLMNFFMF@0B?$AA?$AA@,4
.local	$StringLiteralTok$??_C@_13BNLCBEPN@0?$KC?$AA?$AA@,4
.local	$StringLiteralTok$??_C@_13FNCBLAIF@?$AAa?$AA?$AA@,4
.local	$StringLiteralTok$??_C@_13PNBDBPLL@?$AAA?$AA?$AA@,4
.local	$StringLiteralTok$??_C@_13KKMJJCOM@0?$BA?$AA?$AA@,4
.local	$TypeTok$11003074$,4
.local	$StringLiteralTok$??_C@_15OJKDPEFE@?$AA?5?$AA?5?$AA?$AA@,4
.local	$StringLiteralTok$??_C@_17LDPHCILD@?$AA?5?$AA?0?$AA?5?$AA?$AA@,4
.local	$StringLiteralTok$??_C@_15ELOONFKJ@?$AA?3?$AA?5?$AA?$AA@,4
.local	$StringLiteralTok$??_C@_13EBCNDICG@?$AA?3?$AA?$AA@,4
.local	$StringLiteralTok$??_C@_13BCHFPFIJ@0?$BB?$AA?$AA@,4
.local	$StringLiteralTok$??_C@_15GLPPJKNC@?$AA1?$AA?0?$AA?$AA@,4
.local	$T1,0
; Function compile flags: /Ogsp
; File f:\meijin4\c++\mogitter\mogitter\mogitest.h
	.text
	.comdat	any, ?compile@MogiTest@Mogitter@@$$FQ$AAM_NP$AAVString@System@@@Z
.global	?compile@MogiTest@Mogitter@@$$FQ$AAM_NP$AAVString@System@@@Z ; Mogitter::MogiTest::compile
?compile@MogiTest@Mogitter@@$$FQ$AAM_NP$AAVString@System@@@Z: ; Mogitter::MogiTest::compile
;	.proc.def	D:I(P)

; Function Header:
; max stack depth = 5
; function size = 1583 bytes
; local varsig tk = 0x1100003E 
; Exception Information:
; 0 handlers, each consisting of filtered handlers

;	.formal.mptr 0,"this$" SIG: Optional C Binding Modifier(token:0x3D121A5).class (token:0x3D121A8)
;	.formal.mptr 1,"text$" SIG: string
;	.local.mptr 4,"temp$" SIG: string
;	.local.mptr 40,"rand$2" SIG: class (token:0x3D172AD)
;	.local.mptr 30,"bufbef$3" SIG: szarray (token:0x3D1E3B5)
;	.local.mptr 39,"$T4" SIG: szarray (token:0x3D1C00D)
;	.local.mptr 18,"buf$5" SIG: szarray (token:0x3D1E3B5)
;	.local.i4 17,"i$6" SIG: i4
;	.local.mptr 37,"aft$7" SIG: string
;	.local.mptr 38,"$T8" SIG: szarray (token:0x3D1C00D)
;	.local.i4 16,"qnum$9" SIG: i4
;	.local.mptr 11,"comTxt$10" SIG: string
;	.local.mptr 36,"ret$11" SIG: szarray (token:0x3D1E3B5)
;	.local.mptr 10,"alreadyGot$12" SIG: szarray (token:0x3D77FE5)
;	.local.i4 34,"len$13" SIG: i4
;	.local.i4 25,"i$14" SIG: i4
;	.local.i4 24,"i$15" SIG: i4
;	.local.i4 15,"index$16" SIG: i4
;	.local.i4 23,"i$17" SIG: i4
;	.local.i4 3,"qCount$" SIG: i4
;	.local.i4 33,"index$" SIG: i4
;	.local.i4 14,"tempI$18" SIG: i4
;	.local.i4 44,"lastI$19" SIG: i4
;	.local.mptr 9,"inKakko$20" SIG: string
;	.local.mptr 32,"saveInKakko$21" SIG: string
;	.local.mptr 6,"spliters$22" SIG: szarray (token:0x3D1C00D)
;	.local.mptr 2,"listAddStr$23" SIG: string
;	.local.mptr 29,"options$24" SIG: szarray (token:0x3D1E3B5)
;	.local.mptr 22,"headMode$25" SIG: string
;	.local.mptr 28,"answer$26" SIG: string
;	.local.i4 27,"ansNum$27" SIG: i4
;	.local.i4 21,"i$28" SIG: i4
;	.local.mptr 5,"ope$29" SIG: szarray (token:0x3D1E3B5)
;	.local.mptr 19,"items$30" SIG: szarray (token:0x3D1E3B5)
;	.local.mptr 1,"headers$31" SIG: szarray (token:0x3D1C00D)
;	.local.i4 26,"step$32" SIG: i4
;	.local.i4 13,"j$33" SIG: i4
;	.local.mptr 0,"retStr$34" SIG: string
;	.local.i4 12,"otherCount$35" SIG: i4
;	.local.i4 47,"$T36" SIG: i4
;	.local.i4 46,"$T37" SIG: i4
;	.local.i4 8,"j$38" SIG: i4
;	.local.u2 45,"$T39" SIG: char
;	.local.mptr 7,"answer$40" SIG: string
;	.local.mb16  43,"$T41" SIG: valueType (token:0x3D226AD)
;	.local.mb16  42,"$T42" SIG: valueType (token:0x3D226AD)
;	.local.mb16  41,"$T43" SIG: valueType (token:0x3D226AD)
;	.local.i4 20,"i$44" SIG: i4
;	.local.i4 31,"$T45" SIG: string

;	.proc.beg

; 584  : 		public: bool compile(String^ text){

  0000b	14		 ldnull 0	; i32 0x0
  0000c	13 13		 stloc.s 19	; items$30

; 585  : 					String^ temp = "";
; 586  : 					if (text->StartsWith("{@Random="))

  0000e	03		 ldarg.1 	; text$
  0000f	72 00 00 00 00	 ldstr $StringLiteralTok$??_C@_1BE@EPLDMCPJ@?$AA?$HL?$AA?$EA?$AAR?$AAa?$AAn?$AAd?$AAo?$AAm?$AA?$DN?$AA?$AA@
  00014	28 00 00 00 00	 call ?StartsWith@String@System@@$$FQ$AAM_NP$AAV12@@Z
  00019	39 58 01 00 00	 brfalse $LN49@compile

; 587  : 					{
; 588  : 						Random^ rand = gcnew Random();

  0001e	73 00 00 00 00	 newobj ??0Random@System@@$$FQ$AAM@XZ
  00023	13 28		 stloc.s 40	; rand$2

; 589  : 						array<String^> ^bufbef = text->Split('\n');

  00025	17		 ldc.i.1 1	; i32 0x1
  00026	8d 00 00 00 00	 newarr $TypeTok$11003218$
  0002b	13 27		 stloc.s 39	; $T4
  0002d	11 27		 ldloc.s 39	; $T4
  0002f	16		 ldc.i.0 0	; i32 0x0
  00030	8f 00 00 00 00	 ldelema $va_argTok$_W
  00035	1f 0a		 ldc.i4.s 10	; u16 0xa
  00037	53		 stind.i2 
  00038	03		 ldarg.1 	; text$
  00039	11 27		 ldloc.s 39	; $T4
  0003b	28 00 00 00 00	 call ?Split@String@System@@$$FQ$AAMP$01AP$AAV12@P$01A_W@Z
  00040	13 1e		 stloc.s 30	; bufbef$3

; 590  : 						array<String^> ^buf = gcnew array<String^>(bufbef->Length-1);

  00042	11 1e		 ldloc.s 30	; bufbef$3
  00044	8e		 ldlen 
  00045	17		 ldc.i.1 1	; i32 0x1
  00046	59		 sub 
  00047	8d 00 00 00 00	 newarr $TypeTok$110E9D94$
  0004c	13 12		 stloc.s 18	; buf$5

; 591  : 						for (int i = 0; i < buf->Length; i++)

  0004e	16		 ldc.i.0 0	; i32 0x0
  0004f	13 11		 stloc.s 17	; i$6
  00051	16		 ldc.i.0 0	; i32 0x0
  00052	11 12		 ldloc.s 18	; buf$5
  00054	8e		 ldlen 
  00055	2f 1a		 bge.s $LN46@compile
$LL48@compile:

; 592  : 						{
; 593  : 							buf[i] = bufbef[i+1];

  00058	11 12		 ldloc.s 18	; buf$5
  0005a	11 11		 ldloc.s 17	; i$6
  0005c	11 1e		 ldloc.s 30	; bufbef$3
  0005e	11 11		 ldloc.s 17	; i$6
  00060	17		 ldc.i.1 1	; i32 0x1
  00061	58		 add 
  00062	9a		 ldelem.ref 
  00063	a2		 stelem.ref 

; 591  : 						for (int i = 0; i < buf->Length; i++)

  00064	11 11		 ldloc.s 17	; i$6
  00066	17		 ldc.i.1 1	; i32 0x1
  00067	58		 add 
  00068	13 11		 stloc.s 17	; i$6
  0006a	11 11		 ldloc.s 17	; i$6
  0006c	11 12		 ldloc.s 18	; buf$5
  0006e	8e		 ldlen 
  0006f	32 e7		 blt.s $LL48@compile
$LN46@compile:

; 594  : 						}
; 595  : 						String^ aft = bufbef[0]->Split('=')[1];

  00071	17		 ldc.i.1 1	; i32 0x1
  00072	8d 00 00 00 00	 newarr $TypeTok$11003218$
  00077	13 26		 stloc.s 38	; $T8
  00079	11 26		 ldloc.s 38	; $T8
  0007b	16		 ldc.i.0 0	; i32 0x0
  0007c	8f 00 00 00 00	 ldelema $va_argTok$_W
  00081	1f 3d		 ldc.i4.s 61	; u16 0x3d
  00083	53		 stind.i2 
  00084	11 1e		 ldloc.s 30	; bufbef$3
  00086	16		 ldc.i.0 0	; i32 0x0
  00087	9a		 ldelem.ref 
  00088	11 26		 ldloc.s 38	; $T8
  0008a	28 00 00 00 00	 call ?Split@String@System@@$$FQ$AAMP$01AP$AAV12@P$01A_W@Z
  0008f	17		 ldc.i.1 1	; i32 0x1
  00090	9a		 ldelem.ref 
  00091	13 25		 stloc.s 37	; aft$7

; 596  : 						int qnum = int::Parse(aft->Substring(0,aft->IndexOf(";")));

  00093	11 25		 ldloc.s 37	; aft$7
  00095	16		 ldc.i.0 0	; i32 0x0
  00096	11 25		 ldloc.s 37	; aft$7
  00098	72 00 00 00 00	 ldstr $StringLiteralTok$??_C@_13PJJBFPED@?$AA?$DL?$AA?$AA@
  0009d	28 00 00 00 00	 call ?IndexOf@String@System@@$$FQ$AAMHP$AAV12@@Z
  000a2	28 00 00 00 00	 call ?Substring@String@System@@$$FQ$AAMP$AAV12@HH@Z
  000a7	28 00 00 00 00	 call ?Parse@Int32@System@@$$FSMHP$AAVString@2@@Z
  000ac	13 10		 stloc.s 16	; qnum$9

; 597  : 						String^ comTxt = "";

  000ae	72 00 00 00 00	 ldstr $StringLiteralTok$??_C@_11LOCGONAA@?$AA?$AA@
  000b3	13 0b		 stloc.s 11	; comTxt$10

; 598  : 						array<String^> ^ret = gcnew array<String^>(qnum);

  000b5	11 10		 ldloc.s 16	; qnum$9
  000b7	8d 00 00 00 00	 newarr $TypeTok$110E9D94$
  000bc	13 24		 stloc.s 36	; ret$11

; 599  : 						array<bool> ^alreadyGot = gcnew array<bool>(buf->Length);

  000be	11 12		 ldloc.s 18	; buf$5
  000c0	8e		 ldlen 
  000c1	13 23		 stloc.s 35	
  000c3	11 23		 ldloc.s 35	
  000c5	8d 00 00 00 00	 newarr $TypeTok$110030E4$
  000ca	13 0a		 stloc.s 10	; alreadyGot$12

; 600  : 						int len = buf->Length;

  000cc	11 23		 ldloc.s 35	
  000ce	13 22		 stloc.s 34	; len$13

; 601  : 						for(int i=0;i<alreadyGot->Length;i++){

  000d0	16		 ldc.i.0 0	; i32 0x0
  000d1	13 19		 stloc.s 25	; i$14
  000d3	16		 ldc.i.0 0	; i32 0x0
  000d4	11 0a		 ldloc.s 10	; alreadyGot$12
  000d6	8e		 ldlen 
  000d7	2f 13		 bge.s $LN43@compile
$LL45@compile:

; 602  : 						 alreadyGot[i] = false;

  000d9	11 0a		 ldloc.s 10	; alreadyGot$12
  000db	11 19		 ldloc.s 25	; i$14
  000dd	16		 ldc.i.0 0	; u8 0x0
  000de	9c		 stelem.i1 

; 601  : 						for(int i=0;i<alreadyGot->Length;i++){

  000df	11 19		 ldloc.s 25	; i$14
  000e1	17		 ldc.i.1 1	; i32 0x1
  000e2	58		 add 
  000e3	13 19		 stloc.s 25	; i$14
  000e5	11 19		 ldloc.s 25	; i$14
  000e7	11 0a		 ldloc.s 10	; alreadyGot$12
  000e9	8e		 ldlen 
  000ea	32 ed		 blt.s $LL45@compile
$LN43@compile:

; 603  : 						}
; 604  : 						for (int i = 0; i < qnum; i++)

  000ec	16		 ldc.i.0 0	; i32 0x0
  000ed	13 18		 stloc.s 24	; i$15
  000ef	16		 ldc.i.0 0	; i32 0x0
  000f0	11 10		 ldloc.s 16	; qnum$9
  000f2	2f 40		 bge.s $LN40@compile
$LL42@compile:

; 605  : 						{
; 606  : 						 int index = rand->Next(len);

  000f4	11 28		 ldloc.s 40	; rand$2
  000f6	11 22		 ldloc.s 34	; len$13
  000f8	6f 00 00 00 00	 callvirt ?Next@Random@System@@$$FU$AAMHH@Z
  000fd	13 0f		 stloc.s 15	; index$16

; 607  : 						 while (alreadyGot[index])

  000ff	11 0a		 ldloc.s 10	; alreadyGot$12
  00101	11 0f		 ldloc.s 15	; index$16
  00103	91		 ldelem.u1 
  00104	2c 12		 brfalse.s $LN38@compile
$LL39@compile:

; 608  : 						 {
; 609  : 							 index = rand->Next(len);

  00106	11 28		 ldloc.s 40	; rand$2
  00108	11 22		 ldloc.s 34	; len$13
  0010a	6f 00 00 00 00	 callvirt ?Next@Random@System@@$$FU$AAMHH@Z
  0010f	13 0f		 stloc.s 15	; index$16

; 607  : 						 while (alreadyGot[index])

  00111	11 0a		 ldloc.s 10	; alreadyGot$12
  00113	11 0f		 ldloc.s 15	; index$16
  00115	91		 ldelem.u1 
  00116	2d ee		 brtrue.s $LL39@compile
$LN38@compile:

; 610  : 						 }
; 611  : 						 alreadyGot[index] = true;

  00118	11 0a		 ldloc.s 10	; alreadyGot$12
  0011a	11 0f		 ldloc.s 15	; index$16
  0011c	17		 ldc.i.1 1	; u8 0x1
  0011d	9c		 stelem.i1 

; 612  : 						 ret[i] = buf[index];

  0011e	11 24		 ldloc.s 36	; ret$11
  00120	11 18		 ldloc.s 24	; i$15
  00122	11 12		 ldloc.s 18	; buf$5
  00124	11 0f		 ldloc.s 15	; index$16
  00126	9a		 ldelem.ref 
  00127	a2		 stelem.ref 

; 603  : 						}
; 604  : 						for (int i = 0; i < qnum; i++)

  00128	11 18		 ldloc.s 24	; i$15
  0012a	17		 ldc.i.1 1	; i32 0x1
  0012b	58		 add 
  0012c	13 18		 stloc.s 24	; i$15
  0012e	11 18		 ldloc.s 24	; i$15
  00130	11 10		 ldloc.s 16	; qnum$9
  00132	32 c0		 blt.s $LL42@compile
$LN40@compile:

; 613  : 						}
; 614  : 						for (int i = 0; i < qnum; i++)

  00134	16		 ldc.i.0 0	; i32 0x0
  00135	13 17		 stloc.s 23	; i$17
  00137	16		 ldc.i.0 0	; i32 0x0
  00138	11 10		 ldloc.s 16	; qnum$9
  0013a	2f 1a		 bge.s $LN35@compile
$LL37@compile:

; 615  : 						{
; 616  : 						 comTxt += ret[i];

  0013c	11 0b		 ldloc.s 11	; comTxt$10
  0013e	11 24		 ldloc.s 36	; ret$11
  00140	11 17		 ldloc.s 23	; i$17
  00142	9a		 ldelem.ref 
  00143	28 00 00 00 00	 call ?Concat@String@System@@$$FSMP$AAV12@P$AAV12@0@Z
  00148	13 0b		 stloc.s 11	; comTxt$10

; 613  : 						}
; 614  : 						for (int i = 0; i < qnum; i++)

  0014a	11 17		 ldloc.s 23	; i$17
  0014c	17		 ldc.i.1 1	; i32 0x1
  0014d	58		 add 
  0014e	13 17		 stloc.s 23	; i$17
  00150	11 17		 ldloc.s 23	; i$17
  00152	11 10		 ldloc.s 16	; qnum$9
  00154	32 e6		 blt.s $LL37@compile
$LN35@compile:

; 617  : 						}
; 618  : 						comTxt = comTxt->Substring(0,comTxt->Length-1);

  00156	11 0b		 ldloc.s 11	; comTxt$10
  00158	16		 ldc.i.0 0	; i32 0x0
  00159	11 0b		 ldloc.s 11	; comTxt$10
  0015b	28 00 00 00 00	 call ?get@Length@String@System@@$$FQ$AAMHXZ
  00160	17		 ldc.i.1 1	; i32 0x1
  00161	59		 sub 
  00162	28 00 00 00 00	 call ?Substring@String@System@@$$FQ$AAMP$AAV12@HH@Z
  00167	13 0b		 stloc.s 11	; comTxt$10

; 619  : 						plainText = text;

  00169	02		 ldarg.0 	; this$
  0016a	03		 ldarg.1 	; text$
  0016b	7d 00 00 00 00	 stfld ?plainText@MogiTest@Mogitter@@3P$AAVString@System@@$AA

; 620  : 						temp = comTxt;

  00170	11 0b		 ldloc.s 11	; comTxt$10
  00172	13 04		 stloc.s 4	; temp$

; 621  : 					}else{

  00174	2b 0a		 br.s $LN34@compile
$LN49@compile:

; 622  : 						 plainText = text;

  00176	02		 ldarg.0 	; this$
  00177	03		 ldarg.1 	; text$
  00178	7d 00 00 00 00	 stfld ?plainText@MogiTest@Mogitter@@3P$AAVString@System@@$AA

; 623  : 						 temp = text;

  0017d	03		 ldarg.1 	; text$
  0017e	13 04		 stloc.s 4	; temp$
$LN34@compile:

; 624  : 					}
; 625  : 					 //temp = temp->Replace("\"{\"","@@@");
; 626  : 					 //temp = temp->Replace("\"}\"","@@@");
; 627  : 					 int qCount = 0;

  00180	16		 ldc.i.0 0	; i32 0x0
  00181	0d		 stloc.3 	; qCount$

; 628  : 					 int index = 0;

  00182	16		 ldc.i.0 0	; i32 0x0
  00183	13 21		 stloc.s 33	; index$

; 629  : 					 questStrings = gcnew List<String^>;

  00185	02		 ldarg.0 	; this$
  00186	73 00 00 00 00	 newobj ??0?$List@P$AAVString@System@@@Generic@Collections@System@@$$FQ$AAM@XZ
  0018b	7d 00 00 00 00	 stfld ?questStrings@MogiTest@Mogitter@@3P$AAV?$List@P$AAVString@System@@@Generic@Collections@System@@$AA

; 630  : 					 answerStrings = gcnew List<String^>;

  00190	02		 ldarg.0 	; this$
  00191	73 00 00 00 00	 newobj ??0?$List@P$AAVString@System@@@Generic@Collections@System@@$$FQ$AAM@XZ
  00196	7d 00 00 00 00	 stfld ?answerStrings@MogiTest@Mogitter@@3P$AAV?$List@P$AAVString@System@@@Generic@Collections@System@@$AA
$LL33@compile:

; 634  : 						 int tempI = temp->IndexOf("{Answer=",index);

  0019b	11 04		 ldloc.s 4	; temp$
  0019d	72 00 00 00 00	 ldstr $StringLiteralTok$??_C@_1BC@PAOKIFNK@?$AA?$HL?$AAA?$AAn?$AAs?$AAw?$AAe?$AAr?$AA?$DN?$AA?$AA@
  001a2	11 21		 ldloc.s 33	; index$
  001a4	28 00 00 00 00	 call ?IndexOf@String@System@@$$FQ$AAMHP$AAV12@H@Z
  001a9	13 0e		 stloc.s 14	; tempI$18

; 635  : 						 if(tempI >=0){

  001ab	11 0e		 ldloc.s 14	; tempI$18
  001ad	16		 ldc.i.0 0	; i32 0x0
  001ae	3f 7d 03 00 00	 blt $LN31@compile

; 636  : 							 index = tempI+1;

  001b3	11 0e		 ldloc.s 14	; tempI$18
  001b5	17		 ldc.i.1 1	; i32 0x1
  001b6	58		 add 
  001b7	13 21		 stloc.s 33	; index$

; 637  : 							 qCount++;

  001b9	09		 ldloc.3 	; qCount$
  001ba	17		 ldc.i.1 1	; i32 0x1
  001bb	58		 add 
  001bc	0d		 stloc.3 	; qCount$

; 638  : 						 }else
; 639  : 							 break;
; 640  : 			 //書式："1,(answer)"
; 641  : 			 //書式："4,(ansNum),aaa:bbb:ccc:ddd"
; 642  : 						 int lastI = temp->IndexOf(";}",tempI)+2;

  001bd	11 04		 ldloc.s 4	; temp$
  001bf	72 00 00 00 00	 ldstr $StringLiteralTok$??_C@_15LJNFNBHD@?$AA?$DL?$AA?$HN?$AA?$AA@
  001c4	11 0e		 ldloc.s 14	; tempI$18
  001c6	28 00 00 00 00	 call ?IndexOf@String@System@@$$FQ$AAMHP$AAV12@H@Z
  001cb	18		 ldc.i.2 2	; i32 0x2
  001cc	58		 add 
  001cd	13 2c		 stloc.s 44	; lastI$19

; 643  : 						 String^ inKakko = temp->Substring(tempI,lastI-tempI);

  001cf	11 04		 ldloc.s 4	; temp$
  001d1	11 0e		 ldloc.s 14	; tempI$18
  001d3	11 2c		 ldloc.s 44	; lastI$19
  001d5	11 0e		 ldloc.s 14	; tempI$18
  001d7	59		 sub 
  001d8	28 00 00 00 00	 call ?Substring@String@System@@$$FQ$AAMP$AAV12@HH@Z
  001dd	13 09		 stloc.s 9	; inKakko$20

; 644  : 						 String^ saveInKakko = inKakko;

  001df	11 09		 ldloc.s 9	; inKakko$20
  001e1	13 20		 stloc.s 32	; saveInKakko$21

; 645  : 						 inKakko = escapeSet(inKakko);

  001e3	11 09		 ldloc.s 9	; inKakko$20
  001e5	28 00 00 00 00	 call ?escapeSet@MogiTest@Mogitter@@$$FSMP$AAVString@System@@P$AAV34@@Z
  001ea	13 09		 stloc.s 9	; inKakko$20

; 646  : 						 array<wchar_t> ^spliters={';'};

  001ec	17		 ldc.i.1 1	; i32 0x1
  001ed	8d 00 00 00 00	 newarr $TypeTok$11003218$
  001f2	13 06		 stloc.s 6	; spliters$22
  001f4	11 06		 ldloc.s 6	; spliters$22
  001f6	16		 ldc.i.0 0	; i32 0x0
  001f7	8f 00 00 00 00	 ldelema $va_argTok$_W
  001fc	1f 3b		 ldc.i4.s 59	; u16 0x3b
  001fe	53		 stind.i2 

; 647  : 
; 648  : 						 String^ listAddStr = "";

  001ff	72 00 00 00 00	 ldstr $StringLiteralTok$??_C@_11LOCGONAA@?$AA?$AA@
  00204	0c		 stloc.2 	; listAddStr$23

; 649  : 
; 650  : 						 if(inKakko->IndexOf("Item=")>=0){

  00205	11 09		 ldloc.s 9	; inKakko$20
  00207	72 00 00 00 00	 ldstr $StringLiteralTok$??_C@_1M@PIGCADDE@?$AAI?$AAt?$AAe?$AAm?$AA?$DN?$AA?$AA@
  0020c	28 00 00 00 00	 call ?IndexOf@String@System@@$$FQ$AAMHP$AAV12@@Z
  00211	16		 ldc.i.0 0	; i32 0x0
  00212	3f 97 02 00 00	 blt $LN29@compile

; 651  : 							 //選択問題の括弧の中を生成する作業
; 652  : 							 array<String^>^ options = inKakko->Split(spliters);

  00217	11 09		 ldloc.s 9	; inKakko$20
  00219	11 06		 ldloc.s 6	; spliters$22
  0021b	28 00 00 00 00	 call ?Split@String@System@@$$FQ$AAMP$01AP$AAV12@P$01A_W@Z
  00220	13 1d		 stloc.s 29	; options$24

; 653  : 							 array<String^>^ items;
; 654  : 							 String^ headMode="";

  00222	72 00 00 00 00	 ldstr $StringLiteralTok$??_C@_11LOCGONAA@?$AA?$AA@
  00227	13 1f		 stloc.s 31	; $T45
  00229	11 1f		 ldloc.s 31	; $T45
  0022b	13 16		 stloc.s 22	; headMode$25

; 655  : 							 array<wchar_t>^ headers;
; 656  : 							 String^ answer = "";

  0022d	11 1f		 ldloc.s 31	; $T45
  0022f	13 1c		 stloc.s 28	; answer$26

; 657  : 							 int ansNum=0;

  00231	16		 ldc.i.0 0	; i32 0x0
  00232	13 1b		 stloc.s 27	; ansNum$27

; 658  : 							 for(int i=0;i<options->Length;i++){

  00234	16		 ldc.i.0 0	; i32 0x0
  00235	13 15		 stloc.s 21	; i$28
  00237	16		 ldc.i.0 0	; i32 0x0
  00238	11 1d		 ldloc.s 29	; options$24
  0023a	8e		 ldlen 
  0023b	3c 98 00 00 00	 bge $LN26@compile
$LL28@compile:

; 659  : 								 spliters[0] = '=';

  00240	11 06		 ldloc.s 6	; spliters$22
  00242	16		 ldc.i.0 0	; i32 0x0
  00243	8f 00 00 00 00	 ldelema $va_argTok$_W
  00248	1f 3d		 ldc.i4.s 61	; u16 0x3d
  0024a	53		 stind.i2 

; 660  : 								 array<String^>^ ope = options[i]->Split(spliters);

  0024b	11 1d		 ldloc.s 29	; options$24
  0024d	11 15		 ldloc.s 21	; i$28
  0024f	9a		 ldelem.ref 
  00250	11 06		 ldloc.s 6	; spliters$22
  00252	28 00 00 00 00	 call ?Split@String@System@@$$FQ$AAMP$01AP$AAV12@P$01A_W@Z
  00257	13 05		 stloc.s 5	; ope$29

; 661  : 								 spliters[0] = ',';

  00259	11 06		 ldloc.s 6	; spliters$22
  0025b	16		 ldc.i.0 0	; i32 0x0
  0025c	8f 00 00 00 00	 ldelema $va_argTok$_W
  00261	1f 2c		 ldc.i4.s 44	; u16 0x2c
  00263	53		 stind.i2 

; 662  : 								 if(ope[0]=="{Answer")

  00264	11 05		 ldloc.s 5	; ope$29
  00266	16		 ldc.i.0 0	; i32 0x0
  00267	9a		 ldelem.ref 
  00268	72 00 00 00 00	 ldstr $StringLiteralTok$??_C@_1BA@KJMINFHD@?$AA?$HL?$AAA?$AAn?$AAs?$AAw?$AAe?$AAr?$AA?$AA@
  0026d	28 00 00 00 00	 call ??8String@System@@$$FSM_NP$AAV01@0@Z
  00272	2c 06		 brfalse.s $LN25@compile

; 663  : 									 answer = ope[1];

  00274	11 05		 ldloc.s 5	; ope$29
  00276	17		 ldc.i.1 1	; i32 0x1
  00277	9a		 ldelem.ref 
  00278	13 1c		 stloc.s 28	; answer$26
$LN25@compile:

; 664  : 								 if(ope[0]=="Item")

  0027a	11 05		 ldloc.s 5	; ope$29
  0027c	16		 ldc.i.0 0	; i32 0x0
  0027d	9a		 ldelem.ref 
  0027e	72 00 00 00 00	 ldstr $StringLiteralTok$??_C@_19MHLFJFLO@?$AAI?$AAt?$AAe?$AAm?$AA?$AA@
  00283	28 00 00 00 00	 call ??8String@System@@$$FSM_NP$AAV01@0@Z
  00288	2c 0d		 brfalse.s $LN24@compile

; 665  : 									 items = ope[1]->Split(spliters);

  0028a	11 05		 ldloc.s 5	; ope$29
  0028c	17		 ldc.i.1 1	; i32 0x1
  0028d	9a		 ldelem.ref 
  0028e	11 06		 ldloc.s 6	; spliters$22
  00290	28 00 00 00 00	 call ?Split@String@System@@$$FQ$AAMP$01AP$AAV12@P$01A_W@Z
  00295	13 13		 stloc.s 19	; items$30
$LN24@compile:

; 666  : 								 if(ope[0]=="AnswerNum")

  00297	11 05		 ldloc.s 5	; ope$29
  00299	16		 ldc.i.0 0	; i32 0x0
  0029a	9a		 ldelem.ref 
  0029b	72 00 00 00 00	 ldstr $StringLiteralTok$??_C@_1BE@MLKGBGFL@?$AAA?$AAn?$AAs?$AAw?$AAe?$AAr?$AAN?$AAu?$AAm?$AA?$AA@
  002a0	28 00 00 00 00	 call ??8String@System@@$$FSM_NP$AAV01@0@Z
  002a5	2c 0b		 brfalse.s $LN23@compile

; 667  : 									 ansNum = System::Int32::Parse(ope[1]);

  002a7	11 05		 ldloc.s 5	; ope$29
  002a9	17		 ldc.i.1 1	; i32 0x1
  002aa	9a		 ldelem.ref 
  002ab	28 00 00 00 00	 call ?Parse@Int32@System@@$$FSMHP$AAVString@2@@Z
  002b0	13 1b		 stloc.s 27	; ansNum$27
$LN23@compile:

; 668  : 								 if(ope[0]=="HeadChar"){

  002b2	11 05		 ldloc.s 5	; ope$29
  002b4	16		 ldc.i.0 0	; i32 0x0
  002b5	9a		 ldelem.ref 
  002b6	72 00 00 00 00	 ldstr $StringLiteralTok$??_C@_1BC@DILLDECC@?$AAH?$AAe?$AAa?$AAd?$AAC?$AAh?$AAa?$AAr?$AA?$AA@
  002bb	28 00 00 00 00	 call ??8String@System@@$$FSM_NP$AAV01@0@Z
  002c0	2c 06		 brfalse.s $LN27@compile

; 669  : 									 headMode = ope[1];

  002c2	11 05		 ldloc.s 5	; ope$29
  002c4	17		 ldc.i.1 1	; i32 0x1
  002c5	9a		 ldelem.ref 
  002c6	13 16		 stloc.s 22	; headMode$25
$LN27@compile:

; 658  : 							 for(int i=0;i<options->Length;i++){

  002c8	11 15		 ldloc.s 21	; i$28
  002ca	17		 ldc.i.1 1	; i32 0x1
  002cb	58		 add 
  002cc	13 15		 stloc.s 21	; i$28
  002ce	11 15		 ldloc.s 21	; i$28
  002d0	11 1d		 ldloc.s 29	; options$24
  002d2	8e		 ldlen 
  002d3	3f 68 ff ff ff	 blt $LL28@compile
$LN26@compile:

; 670  : 								 }
; 671  : 							 }
; 672  : /*
; 673  : 							 for(int i=0;i<items->Length;i++){
; 674  : 								 items[i] = escapeReady(items[i]);
; 675  : 								 items[i] = escapeSet(items[i]);
; 676  : 							 }
; 677  : 							 answer = escapeReady(answer);
; 678  : 							 answer = escapeSet(answer);
; 679  : */
; 680  : 							 headers = gcnew array<wchar_t>(items->Length+1);

  002d8	11 13		 ldloc.s 19	; items$30
  002da	8e		 ldlen 
  002db	17		 ldc.i.1 1	; i32 0x1
  002dc	58		 add 
  002dd	8d 00 00 00 00	 newarr $TypeTok$11003218$
  002e2	0b		 stloc.1 	; headers$31

; 681  : 							 int step=1;

  002e3	17		 ldc.i.1 1	; i32 0x1
  002e4	13 1a		 stloc.s 26	; step$32

; 682  : 							 if(headMode == "kana"){

  002e6	11 16		 ldloc.s 22	; headMode$25
  002e8	72 00 00 00 00	 ldstr $StringLiteralTok$??_C@_19JIFHDGGH@?$AAk?$AAa?$AAn?$AAa?$AA?$AA@
  002ed	28 00 00 00 00	 call ??8String@System@@$$FSM_NP$AAV01@0@Z
  002f2	2c 17		 brfalse.s $LN21@compile

; 683  : 								 headers[0] = System::Char::Parse("あ");

  002f4	07		 ldloc.1 	; headers$31
  002f5	16		 ldc.i.0 0	; i32 0x0
  002f6	8f 00 00 00 00	 ldelema $va_argTok$_W
  002fb	72 00 00 00 00	 ldstr $StringLiteralTok$??_C@_13MLMNFFMF@0B?$AA?$AA@
  00300	28 00 00 00 00	 call ?Parse@Char@System@@$$FSM_WP$AAVString@2@@Z
  00305	53		 stind.i2 

; 684  : 								 step = 2;

  00306	18		 ldc.i.2 2	; i32 0x2
  00307	13 1a		 stloc.s 26	; step$32
  00309	2b 59		 br.s $LN16@compile
$LN21@compile:

; 685  : 							 }else if(headMode == "katakana"){

  0030b	11 16		 ldloc.s 22	; headMode$25
  0030d	72 00 00 00 00	 ldstr $StringLiteralTok$??_C@_1BC@NBMHCKEN@?$AAk?$AAa?$AAt?$AAa?$AAk?$AAa?$AAn?$AAa?$AA?$AA@
  00312	28 00 00 00 00	 call ??8String@System@@$$FSM_NP$AAV01@0@Z
  00317	2c 17		 brfalse.s $LN19@compile

; 686  : 								 headers[0] = System::Char::Parse("ア");

  00319	07		 ldloc.1 	; headers$31
  0031a	16		 ldc.i.0 0	; i32 0x0
  0031b	8f 00 00 00 00	 ldelema $va_argTok$_W
  00320	72 00 00 00 00	 ldstr $StringLiteralTok$??_C@_13BNLCBEPN@0?$KC?$AA?$AA@
  00325	28 00 00 00 00	 call ?Parse@Char@System@@$$FSM_WP$AAVString@2@@Z
  0032a	53		 stind.i2 

; 687  : 								 step = 2;

  0032b	18		 ldc.i.2 2	; i32 0x2
  0032c	13 1a		 stloc.s 26	; step$32
  0032e	2b 34		 br.s $LN16@compile
$LN19@compile:

; 688  : 							 }else if(headMode == "abc"){

  00330	11 16		 ldloc.s 22	; headMode$25
  00332	72 00 00 00 00	 ldstr $StringLiteralTok$??_C@_17OKDDHGAP@?$AAa?$AAb?$AAc?$AA?$AA@
  00337	28 00 00 00 00	 call ??8String@System@@$$FSM_NP$AAV01@0@Z
  0033c	2c 14		 brfalse.s $LN17@compile

; 689  : 								 headers[0] = System::Char::Parse("a");

  0033e	07		 ldloc.1 	; headers$31
  0033f	16		 ldc.i.0 0	; i32 0x0
  00340	8f 00 00 00 00	 ldelema $va_argTok$_W
  00345	72 00 00 00 00	 ldstr $StringLiteralTok$??_C@_13FNCBLAIF@?$AAa?$AA?$AA@
  0034a	28 00 00 00 00	 call ?Parse@Char@System@@$$FSM_WP$AAVString@2@@Z
  0034f	53		 stind.i2 

; 690  : 							 }else{

  00350	2b 12		 br.s $LN16@compile
$LN17@compile:

; 691  : 								 headers[0] = System::Char::Parse("A");

  00352	07		 ldloc.1 	; headers$31
  00353	16		 ldc.i.0 0	; i32 0x0
  00354	8f 00 00 00 00	 ldelema $va_argTok$_W
  00359	72 00 00 00 00	 ldstr $StringLiteralTok$??_C@_13PNBDBPLL@?$AAA?$AA?$AA@
  0035e	28 00 00 00 00	 call ?Parse@Char@System@@$$FSM_WP$AAVString@2@@Z
  00363	53		 stind.i2 
$LN16@compile:

; 692  : 							 }
; 693  : 							 for(int j=1;j<headers->Length;j++){

  00364	17		 ldc.i.1 1	; i32 0x1
  00365	13 0d		 stloc.s 13	; j$33
  00367	17		 ldc.i.1 1	; i32 0x1
  00368	07		 ldloc.1 	; headers$31
  00369	8e		 ldlen 
  0036a	2f 1e		 bge.s $LN13@compile
$LL15@compile:

; 694  : 								 headers[j] = headers[j-1]+step;

  0036c	07		 ldloc.1 	; headers$31
  0036d	11 0d		 ldloc.s 13	; j$33
  0036f	8f 00 00 00 00	 ldelema $va_argTok$_W
  00374	07		 ldloc.1 	; headers$31
  00375	11 0d		 ldloc.s 13	; j$33
  00377	17		 ldc.i.1 1	; i32 0x1
  00378	59		 sub 
  00379	93		 ldelem.u2 
  0037a	11 1a		 ldloc.s 26	; step$32
  0037c	58		 add 
  0037d	53		 stind.i2 

; 692  : 							 }
; 693  : 							 for(int j=1;j<headers->Length;j++){

  0037e	11 0d		 ldloc.s 13	; j$33
  00380	17		 ldc.i.1 1	; i32 0x1
  00381	58		 add 
  00382	13 0d		 stloc.s 13	; j$33
  00384	11 0d		 ldloc.s 13	; j$33
  00386	07		 ldloc.1 	; headers$31
  00387	8e		 ldlen 
  00388	32 e2		 blt.s $LL15@compile
$LN13@compile:

; 695  : 								 //Debug::WriteLine(headers[j-1]);
; 696  : 							 }
; 697  : 							 String^ retStr = "【"+qCount+"  ";

  0038a	72 00 00 00 00	 ldstr $StringLiteralTok$??_C@_13KKMJJCOM@0?$BA?$AA?$AA@
  0038f	09		 ldloc.3 	; qCount$
  00390	8c 00 00 00 00	 box $TypeTok$11003074$
  00395	28 00 00 00 00	 call ?Concat@String@System@@$$FSMP$AAV12@P$AAVObject@2@0@Z
  0039a	72 00 00 00 00	 ldstr $StringLiteralTok$??_C@_15OJKDPEFE@?$AA?5?$AA?5?$AA?$AA@
  0039f	28 00 00 00 00	 call ?Concat@String@System@@$$FSMP$AAV12@P$AAV12@0@Z
  003a4	0a		 stloc.0 	; retStr$34

; 698  : 							 int otherCount=0;

  003a5	16		 ldc.i.0 0	; i32 0x0
  003a6	13 0c		 stloc.s 12	; otherCount$35

; 699  : 
; 700  : 							 listAddStr += headers->Length.ToString()+",";

  003a8	07		 ldloc.1 	; headers$31
  003a9	8e		 ldlen 
  003aa	13 2f		 stloc.s 47	; $T36
  003ac	08		 ldloc.2 	; listAddStr$23
  003ad	12 2f		 ldloca.s 47	; $T36
  003af	28 00 00 00 00	 call ?ToString@Int32@System@@$$FU$CAMP$AAVString@2@XZ
  003b4	72 00 00 00 00	 ldstr $StringLiteralTok$??_C@_13DEFPDAGF@?$AA?0?$AA?$AA@
  003b9	28 00 00 00 00	 call ?Concat@String@System@@$$FSMP$AAV12@P$AAV12@0@Z
  003be	28 00 00 00 00	 call ?Concat@String@System@@$$FSMP$AAV12@P$AAV12@0@Z
  003c3	0c		 stloc.2 	; listAddStr$23

; 701  : 							 listAddStr += ansNum.ToString()+",";

  003c4	11 1b		 ldloc.s 27	; ansNum$27
  003c6	13 2e		 stloc.s 46	; $T37
  003c8	08		 ldloc.2 	; listAddStr$23
  003c9	12 2e		 ldloca.s 46	; $T37
  003cb	28 00 00 00 00	 call ?ToString@Int32@System@@$$FU$CAMP$AAVString@2@XZ
  003d0	72 00 00 00 00	 ldstr $StringLiteralTok$??_C@_13DEFPDAGF@?$AA?0?$AA?$AA@
  003d5	28 00 00 00 00	 call ?Concat@String@System@@$$FSMP$AAV12@P$AAV12@0@Z
  003da	28 00 00 00 00	 call ?Concat@String@System@@$$FSMP$AAV12@P$AAV12@0@Z
  003df	0c		 stloc.2 	; listAddStr$23

; 702  : 
; 703  : 							 for(int j=0;j<headers->Length;j++){

  003e0	16		 ldc.i.0 0	; i32 0x0
  003e1	13 08		 stloc.s 8	; j$38
  003e3	16		 ldc.i.0 0	; i32 0x0
  003e4	07		 ldloc.1 	; headers$31
  003e5	8e		 ldlen 
  003e6	3c 93 00 00 00	 bge $LN10@compile
$LL12@compile:

; 704  : 								 if(j>=1)

  003eb	11 08		 ldloc.s 8	; j$38
  003ed	17		 ldc.i.1 1	; i32 0x1
  003ee	32 0c		 blt.s $LN9@compile

; 705  : 									 retStr += " , ";

  003f0	06		 ldloc.0 	; retStr$34
  003f1	72 00 00 00 00	 ldstr $StringLiteralTok$??_C@_17LDPHCILD@?$AA?5?$AA?0?$AA?5?$AA?$AA@
  003f6	28 00 00 00 00	 call ?Concat@String@System@@$$FSMP$AAV12@P$AAV12@0@Z
  003fb	0a		 stloc.0 	; retStr$34
$LN9@compile:

; 706  : 								 retStr += headers[j].ToString()+": ";

  003fc	07		 ldloc.1 	; headers$31
  003fd	11 08		 ldloc.s 8	; j$38
  003ff	93		 ldelem.u2 
  00400	13 2d		 stloc.s 45	; $T39
  00402	06		 ldloc.0 	; retStr$34
  00403	12 2d		 ldloca.s 45	; $T39
  00405	28 00 00 00 00	 call ?ToString@Char@System@@$$FU$CAMP$AAVString@2@XZ
  0040a	72 00 00 00 00	 ldstr $StringLiteralTok$??_C@_15ELOONFKJ@?$AA?3?$AA?5?$AA?$AA@
  0040f	28 00 00 00 00	 call ?Concat@String@System@@$$FSMP$AAV12@P$AAV12@0@Z
  00414	28 00 00 00 00	 call ?Concat@String@System@@$$FSMP$AAV12@P$AAV12@0@Z
  00419	0a		 stloc.0 	; retStr$34

; 707  : 								 if((j+1)==ansNum || otherCount >= items->Length){

  0041a	11 08		 ldloc.s 8	; j$38
  0041c	17		 ldc.i.1 1	; i32 0x1
  0041d	58		 add 
  0041e	11 1b		 ldloc.s 27	; ansNum$27
  00420	2e 31		 beq.s $LN7@compile
  00422	11 0c		 ldloc.s 12	; otherCount$35
  00424	11 13		 ldloc.s 19	; items$30
  00426	8e		 ldlen 
  00427	2f 2a		 bge.s $LN7@compile

; 710  : 								 }else{
; 711  : 									 retStr += items[otherCount];

  00429	06		 ldloc.0 	; retStr$34
  0042a	11 13		 ldloc.s 19	; items$30
  0042c	11 0c		 ldloc.s 12	; otherCount$35
  0042e	9a		 ldelem.ref 
  0042f	28 00 00 00 00	 call ?Concat@String@System@@$$FSMP$AAV12@P$AAV12@0@Z
  00434	0a		 stloc.0 	; retStr$34

; 712  : 									 listAddStr +=  items[otherCount]+":";

  00435	08		 ldloc.2 	; listAddStr$23
  00436	11 13		 ldloc.s 19	; items$30
  00438	11 0c		 ldloc.s 12	; otherCount$35
  0043a	9a		 ldelem.ref 
  0043b	72 00 00 00 00	 ldstr $StringLiteralTok$??_C@_13EBCNDICG@?$AA?3?$AA?$AA@
  00440	28 00 00 00 00	 call ?Concat@String@System@@$$FSMP$AAV12@P$AAV12@0@Z
  00445	28 00 00 00 00	 call ?Concat@String@System@@$$FSMP$AAV12@P$AAV12@0@Z
  0044a	0c		 stloc.2 	; listAddStr$23

; 713  : 									 otherCount++;

  0044b	11 0c		 ldloc.s 12	; otherCount$35
  0044d	17		 ldc.i.1 1	; i32 0x1
  0044e	58		 add 
  0044f	13 0c		 stloc.s 12	; otherCount$35
  00451	2b 1c		 br.s $LN11@compile
$LN7@compile:

; 708  : 									 retStr += answer;

  00453	06		 ldloc.0 	; retStr$34
  00454	11 1c		 ldloc.s 28	; answer$26
  00456	28 00 00 00 00	 call ?Concat@String@System@@$$FSMP$AAV12@P$AAV12@0@Z
  0045b	0a		 stloc.0 	; retStr$34

; 709  : 									 listAddStr += answer+":";

  0045c	08		 ldloc.2 	; listAddStr$23
  0045d	11 1c		 ldloc.s 28	; answer$26
  0045f	72 00 00 00 00	 ldstr $StringLiteralTok$??_C@_13EBCNDICG@?$AA?3?$AA?$AA@
  00464	28 00 00 00 00	 call ?Concat@String@System@@$$FSMP$AAV12@P$AAV12@0@Z
  00469	28 00 00 00 00	 call ?Concat@String@System@@$$FSMP$AAV12@P$AAV12@0@Z
  0046e	0c		 stloc.2 	; listAddStr$23
$LN11@compile:

; 702  : 
; 703  : 							 for(int j=0;j<headers->Length;j++){

  0046f	11 08		 ldloc.s 8	; j$38
  00471	17		 ldc.i.1 1	; i32 0x1
  00472	58		 add 
  00473	13 08		 stloc.s 8	; j$38
  00475	11 08		 ldloc.s 8	; j$38
  00477	07		 ldloc.1 	; headers$31
  00478	8e		 ldlen 
  00479	3f 6d ff ff ff	 blt $LL12@compile
$LN10@compile:

; 714  : 								 }
; 715  : 							 }
; 716  : 							 retStr += "】";

  0047e	06		 ldloc.0 	; retStr$34
  0047f	72 00 00 00 00	 ldstr $StringLiteralTok$??_C@_13BCHFPFIJ@0?$BB?$AA?$AA@
  00484	28 00 00 00 00	 call ?Concat@String@System@@$$FSMP$AAV12@P$AAV12@0@Z
  00489	0a		 stloc.0 	; retStr$34

; 717  : 							 retStr = escapeReSet(retStr);

  0048a	06		 ldloc.0 	; retStr$34
  0048b	28 00 00 00 00	 call ?escapeReSet@MogiTest@Mogitter@@$$FSMP$AAVString@System@@P$AAV34@@Z
  00490	0a		 stloc.0 	; retStr$34

; 718  : 
; 719  : 							 temp = temp->Replace(saveInKakko,retStr);

  00491	11 04		 ldloc.s 4	; temp$
  00493	11 20		 ldloc.s 32	; saveInKakko$21
  00495	06		 ldloc.0 	; retStr$34
  00496	28 00 00 00 00	 call ?Replace@String@System@@$$FQ$AAMP$AAV12@P$AAV12@0@Z
  0049b	13 04		 stloc.s 4	; temp$

; 720  : 							 questStrings->Add(listAddStr);

  0049d	02		 ldarg.0 	; this$
  0049e	7b 00 00 00 00	 ldfld ?questStrings@MogiTest@Mogitter@@3P$AAV?$List@P$AAVString@System@@@Generic@Collections@System@@$AA
  004a3	08		 ldloc.2 	; listAddStr$23
  004a4	6f 00 00 00 00	 callvirt ?Add@?$List@P$AAVString@System@@@Generic@Collections@System@@$$FU$AAMXP$AAVString@4@@Z

; 721  : 
; 722  : 						 }else{

  004a9	38 77 00 00 00	 br $LN5@compile
$LN29@compile:

; 723  : 							 spliters[0] = '=';

  004ae	11 06		 ldloc.s 6	; spliters$22
  004b0	16		 ldc.i.0 0	; i32 0x0
  004b1	8f 00 00 00 00	 ldelema $va_argTok$_W
  004b6	1f 3d		 ldc.i4.s 61	; u16 0x3d
  004b8	53		 stind.i2 

; 724  : 							 String^ answer = inKakko->Split(spliters)[1];

  004b9	11 09		 ldloc.s 9	; inKakko$20
  004bb	11 06		 ldloc.s 6	; spliters$22
  004bd	28 00 00 00 00	 call ?Split@String@System@@$$FQ$AAMP$01AP$AAV12@P$01A_W@Z
  004c2	17		 ldc.i.1 1	; i32 0x1
  004c3	9a		 ldelem.ref 
  004c4	13 07		 stloc.s 7	; answer$40

; 725  : 							 //****!!!!
; 726  : 							 //特殊文字の問題。"," ";" "="はエスケープすべき。
; 727  : //							 try{
; 728  : 								answer = answer->Substring(0,answer->Length-2);

  004c6	11 07		 ldloc.s 7	; answer$40
  004c8	16		 ldc.i.0 0	; i32 0x0
  004c9	11 07		 ldloc.s 7	; answer$40
  004cb	28 00 00 00 00	 call ?get@Length@String@System@@$$FQ$AAMHXZ
  004d0	18		 ldc.i.2 2	; i32 0x2
  004d1	59		 sub 
  004d2	28 00 00 00 00	 call ?Substring@String@System@@$$FQ$AAMP$AAV12@HH@Z
  004d7	13 07		 stloc.s 7	; answer$40

; 729  : //							 }catch(Exception^){
; 730  : //								Debug::WriteLine(answer);
; 731  : //							 }
; 732  : 
; 733  : 							 answer = escapeReSet(answer);

  004d9	11 07		 ldloc.s 7	; answer$40
  004db	28 00 00 00 00	 call ?escapeReSet@MogiTest@Mogitter@@$$FSMP$AAVString@System@@P$AAV34@@Z
  004e0	13 07		 stloc.s 7	; answer$40

; 734  : 
; 735  : 							 listAddStr = "1,"+escapeReady(answer);

  004e2	72 00 00 00 00	 ldstr $StringLiteralTok$??_C@_15GLPPJKNC@?$AA1?$AA?0?$AA?$AA@
  004e7	11 07		 ldloc.s 7	; answer$40
  004e9	28 00 00 00 00	 call ?escapeReady@MogiTest@Mogitter@@$$FSMP$AAVString@System@@P$AAV34@@Z
  004ee	28 00 00 00 00	 call ?Concat@String@System@@$$FSMP$AAV12@P$AAV12@0@Z
  004f3	0c		 stloc.2 	; listAddStr$23

; 736  : 							 questStrings->Add(listAddStr);

  004f4	02		 ldarg.0 	; this$
  004f5	7b 00 00 00 00	 ldfld ?questStrings@MogiTest@Mogitter@@3P$AAV?$List@P$AAVString@System@@@Generic@Collections@System@@$AA
  004fa	08		 ldloc.2 	; listAddStr$23
  004fb	6f 00 00 00 00	 callvirt ?Add@?$List@P$AAVString@System@@@Generic@Collections@System@@$$FU$AAMXP$AAVString@4@@Z

; 737  : 
; 738  : 							 temp = temp->Replace(saveInKakko,"【"+qCount+"】");

  00500	11 04		 ldloc.s 4	; temp$
  00502	11 20		 ldloc.s 32	; saveInKakko$21
  00504	72 00 00 00 00	 ldstr $StringLiteralTok$??_C@_13KKMJJCOM@0?$BA?$AA?$AA@
  00509	09		 ldloc.3 	; qCount$
  0050a	8c 00 00 00 00	 box $TypeTok$11003074$
  0050f	28 00 00 00 00	 call ?Concat@String@System@@$$FSMP$AAV12@P$AAVObject@2@0@Z
  00514	72 00 00 00 00	 ldstr $StringLiteralTok$??_C@_13BCHFPFIJ@0?$BB?$AA?$AA@
  00519	28 00 00 00 00	 call ?Concat@String@System@@$$FSMP$AAV12@P$AAV12@0@Z
  0051e	28 00 00 00 00	 call ?Replace@String@System@@$$FQ$AAMP$AAV12@P$AAV12@0@Z
  00523	13 04		 stloc.s 4	; temp$
$LN5@compile:

; 631  : 					 //questStrings->Clear();
; 632  : 					 //answerStrings->Clear();
; 633  : 					 while(qCount < 1000){

  00525	09		 ldloc.3 	; qCount$
  00526	20 e8 03 00 00	 ldc.i4 1000	; i32 0x3e8
  0052b	3f 6b fc ff ff	 blt $LL33@compile
$LN31@compile:

; 739  : 							}
; 740  : 					 }
; 741  : 					 //正解を取り出す作業は後でいいのでは?
; 742  : 					 //array<String^>^ answers = gcnew  array<String^>(qCount);
; 743  : 					 if (qCount==0)

  00530	09		 ldloc.3 	; qCount$
  00531	2d 02		 brtrue.s $LN4@compile

; 744  : 					 {
; 745  : 						 return false;

  00533	16		 ldc.i.0 0	; u8 0x0
  00534	2a		 ret 
$LN4@compile:

; 746  : 					 }
; 747  : 					 QNumUpDown->Enabled = true;

  00535	02		 ldarg.0 	; this$
  00536	7b 00 00 00 00	 ldfld ?QNumUpDown@MogiTest@Mogitter@@3P$AAVNumericUpDown@Forms@Windows@System@@$AA
  0053b	17		 ldc.i.1 1	; u8 0x1
  0053c	28 00 00 00 00	 call ?set@Enabled@Control@Forms@Windows@System@@$$FQ$AAMX_N@Z

; 748  : 					 QNumUpDown->Minimum = 1;

  00541	17		 ldc.i.1 1	; i32 0x1
  00542	28 00 00 00 00	 call ??BDecimal@System@@$$FSM?AV01@H@Z
  00547	13 2b		 stloc.s 43	; $T41
  00549	02		 ldarg.0 	; this$
  0054a	7b 00 00 00 00	 ldfld ?QNumUpDown@MogiTest@Mogitter@@3P$AAVNumericUpDown@Forms@Windows@System@@$AA
  0054f	11 2b		 ldloc.s 43	; $T41
  00551	28 00 00 00 00	 call ?set@Minimum@NumericUpDown@Forms@Windows@System@@$$FQ$AAMXVDecimal@5@@Z

; 749  : 					 QNumUpDown->Maximum = qCount;

  00556	09		 ldloc.3 	; qCount$
  00557	28 00 00 00 00	 call ??BDecimal@System@@$$FSM?AV01@H@Z
  0055c	13 2a		 stloc.s 42	; $T42
  0055e	02		 ldarg.0 	; this$
  0055f	7b 00 00 00 00	 ldfld ?QNumUpDown@MogiTest@Mogitter@@3P$AAVNumericUpDown@Forms@Windows@System@@$AA
  00564	11 2a		 ldloc.s 42	; $T42
  00566	28 00 00 00 00	 call ?set@Maximum@NumericUpDown@Forms@Windows@System@@$$FQ$AAMXVDecimal@5@@Z

; 750  : 					 QNumUpDown->Value = 1;

  0056b	17		 ldc.i.1 1	; i32 0x1
  0056c	28 00 00 00 00	 call ??BDecimal@System@@$$FSM?AV01@H@Z
  00571	13 29		 stloc.s 41	; $T43
  00573	02		 ldarg.0 	; this$
  00574	7b 00 00 00 00	 ldfld ?QNumUpDown@MogiTest@Mogitter@@3P$AAVNumericUpDown@Forms@Windows@System@@$AA
  00579	11 29		 ldloc.s 41	; $T43
  0057b	28 00 00 00 00	 call ?set@Value@NumericUpDown@Forms@Windows@System@@$$FQ$AAMXVDecimal@5@@Z

; 751  : 
; 752  : 					 QuestSentence->Text = temp;

  00580	02		 ldarg.0 	; this$
  00581	7b 00 00 00 00	 ldfld ?QuestSentence@MogiTest@Mogitter@@3P$AAVAzukiControl@WinForms@Azuki@Sgry@@$AA
  00586	11 04		 ldloc.s 4	; temp$
  00588	6f 00 00 00 00	 callvirt ?set@Text@AzukiControl@WinForms@Azuki@Sgry@@$$FU$AAMXP$AAVString@System@@@Z

; 753  : 					 userAnswerArea->Text = "";

  0058d	02		 ldarg.0 	; this$
  0058e	7b 00 00 00 00	 ldfld ?userAnswerArea@MogiTest@Mogitter@@3P$AAVAzukiControl@WinForms@Azuki@Sgry@@$AA
  00593	72 00 00 00 00	 ldstr $StringLiteralTok$??_C@_11LOCGONAA@?$AA?$AA@
  00598	6f 00 00 00 00	 callvirt ?set@Text@AzukiControl@WinForms@Azuki@Sgry@@$$FU$AAMXP$AAVString@System@@@Z

; 754  : 					 for(int i = 0;i<=qCount;i++){

  0059d	16		 ldc.i.0 0	; i32 0x0
  0059e	13 14		 stloc.s 20	; i$44
  005a0	16		 ldc.i.0 0	; i32 0x0
  005a1	09		 ldloc.3 	; qCount$
  005a2	30 4d		 bgt.s $LN1@compile
$LL3@compile:

; 755  : 						 answerStrings->Add("");

  005a4	02		 ldarg.0 	; this$
  005a5	7b 00 00 00 00	 ldfld ?answerStrings@MogiTest@Mogitter@@3P$AAV?$List@P$AAVString@System@@@Generic@Collections@System@@$AA
  005aa	72 00 00 00 00	 ldstr $StringLiteralTok$??_C@_11LOCGONAA@?$AA?$AA@
  005af	6f 00 00 00 00	 callvirt ?Add@?$List@P$AAVString@System@@@Generic@Collections@System@@$$FU$AAMXP$AAVString@4@@Z

; 756  : 						 userAnswerArea->Text +=answerStrings[i]+"\n";

  005b4	02		 ldarg.0 	; this$
  005b5	7b 00 00 00 00	 ldfld ?userAnswerArea@MogiTest@Mogitter@@3P$AAVAzukiControl@WinForms@Azuki@Sgry@@$AA
  005ba	02		 ldarg.0 	; this$
  005bb	7b 00 00 00 00	 ldfld ?userAnswerArea@MogiTest@Mogitter@@3P$AAVAzukiControl@WinForms@Azuki@Sgry@@$AA
  005c0	6f 00 00 00 00	 callvirt ?get@Text@AzukiControl@WinForms@Azuki@Sgry@@$$FU$AAMP$AAVString@System@@XZ
  005c5	02		 ldarg.0 	; this$
  005c6	7b 00 00 00 00	 ldfld ?answerStrings@MogiTest@Mogitter@@3P$AAV?$List@P$AAVString@System@@@Generic@Collections@System@@$AA
  005cb	11 14		 ldloc.s 20	; i$44
  005cd	6f 00 00 00 00	 callvirt ?get@default@?$List@P$AAVString@System@@@Generic@Collections@System@@$$FU$AAMP$AAVString@5@H@Z
  005d2	72 00 00 00 00	 ldstr $StringLiteralTok$??_C@_13LBAGMAIH@?$AA?6?$AA?$AA@
  005d7	28 00 00 00 00	 call ?Concat@String@System@@$$FSMP$AAV12@P$AAV12@0@Z
  005dc	28 00 00 00 00	 call ?Concat@String@System@@$$FSMP$AAV12@P$AAV12@0@Z
  005e1	6f 00 00 00 00	 callvirt ?set@Text@AzukiControl@WinForms@Azuki@Sgry@@$$FU$AAMXP$AAVString@System@@@Z

; 754  : 					 for(int i = 0;i<=qCount;i++){

  005e6	11 14		 ldloc.s 20	; i$44
  005e8	17		 ldc.i.1 1	; i32 0x1
  005e9	58		 add 
  005ea	13 14		 stloc.s 20	; i$44
  005ec	11 14		 ldloc.s 20	; i$44
  005ee	09		 ldloc.3 	; qCount$
  005ef	31 b3		 ble.s $LL3@compile
$LN1@compile:

; 757  : 					 }
; 758  : 					 anaumeAnsBox->Text = "";

  005f1	02		 ldarg.0 	; this$
  005f2	7b 00 00 00 00	 ldfld ?anaumeAnsBox@MogiTest@Mogitter@@3P$AAVRichTextBox@Forms@Windows@System@@$AA
  005f7	72 00 00 00 00	 ldstr $StringLiteralTok$??_C@_11LOCGONAA@?$AA?$AA@
  005fc	6f 00 00 00 00	 callvirt ?set@Text@RichTextBox@Forms@Windows@System@@$$FU$AAMXP$AAVString@5@@Z

; 759  : 					 sentakushiCombo->Items->Clear();

  00601	02		 ldarg.0 	; this$
  00602	7b 00 00 00 00	 ldfld ?sentakushiCombo@MogiTest@Mogitter@@3P$AAVComboBox@Forms@Windows@System@@$AA
  00607	28 00 00 00 00	 call ?get@Items@ComboBox@Forms@Windows@System@@$$FQ$AAMP$AAVObjectCollection@2345@XZ
  0060c	6f 00 00 00 00	 callvirt ?Clear@ObjectCollection@ComboBox@Forms@Windows@System@@$$FU$AAMXXZ

; 760  : 					 sentakushiCombo->Items->Add("(none)");

  00611	02		 ldarg.0 	; this$
  00612	7b 00 00 00 00	 ldfld ?sentakushiCombo@MogiTest@Mogitter@@3P$AAVComboBox@Forms@Windows@System@@$AA
  00617	28 00 00 00 00	 call ?get@Items@ComboBox@Forms@Windows@System@@$$FQ$AAMP$AAVObjectCollection@2345@XZ
  0061c	72 00 00 00 00	 ldstr $StringLiteralTok$??_C@_1O@HBJEMMOJ@?$AA?$CI?$AAn?$AAo?$AAn?$AAe?$AA?$CJ?$AA?$AA@
  00621	28 00 00 00 00	 call ?Add@ObjectCollection@ComboBox@Forms@Windows@System@@$$FQ$AAMHP$AAVObject@5@@Z
  00626	26		 pop 

; 761  : 
; 762  : 					 qnumDoing();

  00627	02		 ldarg.0 	; this$
  00628	28 00 00 00 00	 call ?qnumDoing@MogiTest@Mogitter@@$$FA$AAMXXZ

; 763  : 					 anaumeAnsBox->Focus();

  0062d	02		 ldarg.0 	; this$
  0062e	7b 00 00 00 00	 ldfld ?anaumeAnsBox@MogiTest@Mogitter@@3P$AAVRichTextBox@Forms@Windows@System@@$AA
  00633	28 00 00 00 00	 call ?Focus@Control@Forms@Windows@System@@$$FQ$AAM_NXZ
  00638	26		 pop 

; 764  : 					 return true;

  00639	17		 ldc.i.1 1	; u8 0x1
  0063a	2a		 ret 
 .end ?compile@MogiTest@Mogitter@@$$FQ$AAM_NP$AAVString@System@@@Z ; Mogitter::MogiTest::compile
;	.proc.end.u1
; Function compile flags: /Ogsp
; File f:\meijin4\c++\mogitter\mogitter\mogitest.h
	.text
	.comdat	any, ?marutsukeButton_Click@MogiTest@Mogitter@@$$FA$AAMXP$AAVObject@System@@P$AAVEventArgs@4@@Z
.global	?marutsukeButton_Click@MogiTest@Mogitter@@$$FA$AAMXP$AAVObject@System@@P$AAVEventArgs@4@@Z ; Mogitter::MogiTest::marutsukeButton_Click
?marutsukeButton_Click@MogiTest@Mogitter@@$$FA$AAMXP$AAVObject@System@@P$AAVEventArgs@4@@Z: ; Mogitter::MogiTest::marutsukeButton_Click
;	.proc.def	D:V(PP)

; Function Header:
; max stack depth = 1
; function size = 7 bytes
; local varsig tk = 0x0 
; Exception Information:
; 0 handlers, each consisting of filtered handlers

;	.formal.mptr 0,"this$" SIG: Optional C Binding Modifier(token:0x3D121A5).class (token:0x3D121A8)

;	.proc.beg

; 839  : 				 marking();

  0000b	02		 ldarg.0 	; this$
  0000c	28 00 00 00 00	 call ?marking@MogiTest@Mogitter@@$$FA$AAMXXZ

; 840  : 			 }

  00011	2a		 ret 
 .end ?marutsukeButton_Click@MogiTest@Mogitter@@$$FA$AAMXP$AAVObject@System@@P$AAVEventArgs@4@@Z ; Mogitter::MogiTest::marutsukeButton_Click
;	.proc.end.void
; Function compile flags: /Ogsp
; File f:\meijin4\c++\mogitter\mogitter\mogitest.h
	.text
	.comdat	any, ?QNumUpDown_ValueChanged@MogiTest@Mogitter@@$$FA$AAMXP$AAVObject@System@@P$AAVEventArgs@4@@Z
.global	?QNumUpDown_ValueChanged@MogiTest@Mogitter@@$$FA$AAMXP$AAVObject@System@@P$AAVEventArgs@4@@Z ; Mogitter::MogiTest::QNumUpDown_ValueChanged
?QNumUpDown_ValueChanged@MogiTest@Mogitter@@$$FA$AAMXP$AAVObject@System@@P$AAVEventArgs@4@@Z: ; Mogitter::MogiTest::QNumUpDown_ValueChanged
;	.proc.def	D:V(PP)

; Function Header:
; max stack depth = 1
; function size = 7 bytes
; local varsig tk = 0x0 
; Exception Information:
; 0 handlers, each consisting of filtered handlers

;	.formal.mptr 0,"this$" SIG: Optional C Binding Modifier(token:0x3D121A5).class (token:0x3D121A8)

;	.proc.beg

; 842  : 				 qnumDoing();

  0000b	02		 ldarg.0 	; this$
  0000c	28 00 00 00 00	 call ?qnumDoing@MogiTest@Mogitter@@$$FA$AAMXXZ

; 843  : 			 }

  00011	2a		 ret 
 .end ?QNumUpDown_ValueChanged@MogiTest@Mogitter@@$$FA$AAMXP$AAVObject@System@@P$AAVEventArgs@4@@Z ; Mogitter::MogiTest::QNumUpDown_ValueChanged
;	.proc.end.void
	.bss
.local	$T1,0
; Function compile flags: /Ogsp
; File f:\meijin4\c++\mogitter\mogitter\mogitest.h
	.text
	.comdat	any, ?anaumeAnsBox_KeyDown@MogiTest@Mogitter@@$$FA$AAMXP$AAVObject@System@@P$AAVKeyEventArgs@Forms@Windows@4@@Z
.global	?anaumeAnsBox_KeyDown@MogiTest@Mogitter@@$$FA$AAMXP$AAVObject@System@@P$AAVKeyEventArgs@Forms@Windows@4@@Z ; Mogitter::MogiTest::anaumeAnsBox_KeyDown
?anaumeAnsBox_KeyDown@MogiTest@Mogitter@@$$FA$AAMXP$AAVObject@System@@P$AAVKeyEventArgs@Forms@Windows@4@@Z: ; Mogitter::MogiTest::anaumeAnsBox_KeyDown
;	.proc.def	D:V(PP)

; Function Header:
; max stack depth = 3
; function size = 224 bytes
; local varsig tk = 0x1100003F 
; Exception Information:
; 0 handlers, each consisting of filtered handlers

;	.formal.mptr 0,"this$" SIG: Optional C Binding Modifier(token:0x3D121A5).class (token:0x3D121A8)
;	.formal.mptr 2,"e$" SIG: class (token:0x3D8D765)
;	.formal.mptr 1,"sender$" SIG: Unknown COM+ Object Signature
;	.local.mb16  3,"$T2" SIG: valueType (token:0x3D226AD)
;	.local.mb16  2,"$T3" SIG: valueType (token:0x3D226AD)
;	.local.mb16  1,"$T4" SIG: valueType (token:0x3D226AD)
;	.local.mb16  0,"$T5" SIG: valueType (token:0x3D226AD)

;	.proc.beg

; 964  : 			 if(e->KeyCode == Keys::Enter && e->Modifiers == Keys::Control){

  0000b	04		 ldarg.2 	; e$
  0000c	28 00 00 00 00	 call ?get@KeyCode@KeyEventArgs@Forms@Windows@System@@$$FQ$AAM?AW4Keys@345@XZ
  00011	1f 0d		 ldc.i4.s 13	; i32 0xd
  00013	33 64		 bne.un.s $LN7@anaumeAnsB
  00015	04		 ldarg.2 	; e$
  00016	28 00 00 00 00	 call ?get@Modifiers@KeyEventArgs@Forms@Windows@System@@$$FQ$AAM?AW4Keys@345@XZ
  0001b	20 00 00 02 00	 ldc.i4 131072	; i32 0x20000
  00020	33 57		 bne.un.s $LN7@anaumeAnsB

; 965  : 				 e->Handled = true;

  00022	04		 ldarg.2 	; e$
  00023	17		 ldc.i.1 1	; u8 0x1
  00024	28 00 00 00 00	 call ?set@Handled@KeyEventArgs@Forms@Windows@System@@$$FQ$AAMX_N@Z

; 966  : 					 if(QNumUpDown->Value > 1){

  00029	17		 ldc.i.1 1	; i32 0x1
  0002a	28 00 00 00 00	 call ??BDecimal@System@@$$FSM?AV01@H@Z
  0002f	0d		 stloc.3 	; $T2
  00030	02		 ldarg.0 	; this$
  00031	7b 00 00 00 00	 ldfld ?QNumUpDown@MogiTest@Mogitter@@3P$AAVNumericUpDown@Forms@Windows@System@@$AA
  00036	28 00 00 00 00	 call ?get@Value@NumericUpDown@Forms@Windows@System@@$$FQ$AAM?AVDecimal@5@XZ
  0003b	09		 ldloc.3 	; $T2
  0003c	28 00 00 00 00	 call ??ODecimal@System@@$$FSM_NV01@0@Z
  00041	39 a5 00 00 00	 brfalse $LN1@anaumeAnsB

; 967  : 						 QNumUpDown->Value = Decimal::ToInt32(QNumUpDown->Value)-1;

  00046	02		 ldarg.0 	; this$
  00047	7b 00 00 00 00	 ldfld ?QNumUpDown@MogiTest@Mogitter@@3P$AAVNumericUpDown@Forms@Windows@System@@$AA
  0004c	28 00 00 00 00	 call ?get@Value@NumericUpDown@Forms@Windows@System@@$$FQ$AAM?AVDecimal@5@XZ
  00051	28 00 00 00 00	 call ?ToInt32@Decimal@System@@$$FSMHV12@@Z
  00056	17		 ldc.i.1 1	; i32 0x1
  00057	59		 sub 
  00058	28 00 00 00 00	 call ??BDecimal@System@@$$FSM?AV01@H@Z
  0005d	0c		 stloc.2 	; $T3
  0005e	02		 ldarg.0 	; this$
  0005f	7b 00 00 00 00	 ldfld ?QNumUpDown@MogiTest@Mogitter@@3P$AAVNumericUpDown@Forms@Windows@System@@$AA
  00064	08		 ldloc.2 	; $T3
  00065	28 00 00 00 00	 call ?set@Value@NumericUpDown@Forms@Windows@System@@$$FQ$AAMXVDecimal@5@@Z

; 968  : 						 QNumUpDown_ValueChanged(sender,gcnew EventArgs());

  0006a	02		 ldarg.0 	; this$
  0006b	03		 ldarg.1 	; sender$
  0006c	73 00 00 00 00	 newobj ??0EventArgs@System@@$$FQ$AAM@XZ
  00071	28 00 00 00 00	 call ?QNumUpDown_ValueChanged@MogiTest@Mogitter@@$$FA$AAMXP$AAVObject@System@@P$AAVEventArgs@4@@Z

; 969  : 					 }

  00076	2b 73		 br.s $LN1@anaumeAnsB
$LN7@anaumeAnsB:

; 970  : 			 }else if(e->KeyCode == Keys::Enter){

  00079	04		 ldarg.2 	; e$
  0007a	28 00 00 00 00	 call ?get@KeyCode@KeyEventArgs@Forms@Windows@System@@$$FQ$AAM?AW4Keys@345@XZ
  0007f	1f 0d		 ldc.i4.s 13	; i32 0xd
  00081	33 58		 bne.un.s $LN4@anaumeAnsB

; 971  : 				 e->Handled = true;

  00083	04		 ldarg.2 	; e$
  00084	17		 ldc.i.1 1	; u8 0x1
  00085	28 00 00 00 00	 call ?set@Handled@KeyEventArgs@Forms@Windows@System@@$$FQ$AAMX_N@Z

; 972  : 				 if(QNumUpDown->Value < QNumUpDown->Maximum){

  0008a	02		 ldarg.0 	; this$
  0008b	7b 00 00 00 00	 ldfld ?QNumUpDown@MogiTest@Mogitter@@3P$AAVNumericUpDown@Forms@Windows@System@@$AA
  00090	28 00 00 00 00	 call ?get@Maximum@NumericUpDown@Forms@Windows@System@@$$FQ$AAM?AVDecimal@5@XZ
  00095	0b		 stloc.1 	; $T4
  00096	02		 ldarg.0 	; this$
  00097	7b 00 00 00 00	 ldfld ?QNumUpDown@MogiTest@Mogitter@@3P$AAVNumericUpDown@Forms@Windows@System@@$AA
  0009c	28 00 00 00 00	 call ?get@Value@NumericUpDown@Forms@Windows@System@@$$FQ$AAM?AVDecimal@5@XZ
  000a1	07		 ldloc.1 	; $T4
  000a2	28 00 00 00 00	 call ??MDecimal@System@@$$FSM_NV01@0@Z
  000a7	2c 42		 brfalse.s $LN1@anaumeAnsB

; 973  : 						 QNumUpDown->Value = Decimal::ToInt32(QNumUpDown->Value)+1;

  000a9	02		 ldarg.0 	; this$
  000aa	7b 00 00 00 00	 ldfld ?QNumUpDown@MogiTest@Mogitter@@3P$AAVNumericUpDown@Forms@Windows@System@@$AA
  000af	28 00 00 00 00	 call ?get@Value@NumericUpDown@Forms@Windows@System@@$$FQ$AAM?AVDecimal@5@XZ
  000b4	28 00 00 00 00	 call ?ToInt32@Decimal@System@@$$FSMHV12@@Z
  000b9	17		 ldc.i.1 1	; i32 0x1
  000ba	58		 add 
  000bb	28 00 00 00 00	 call ??BDecimal@System@@$$FSM?AV01@H@Z
  000c0	0a		 stloc.0 	; $T5
  000c1	02		 ldarg.0 	; this$
  000c2	7b 00 00 00 00	 ldfld ?QNumUpDown@MogiTest@Mogitter@@3P$AAVNumericUpDown@Forms@Windows@System@@$AA
  000c7	06		 ldloc.0 	; $T5
  000c8	28 00 00 00 00	 call ?set@Value@NumericUpDown@Forms@Windows@System@@$$FQ$AAMXVDecimal@5@@Z

; 974  : 						 QNumUpDown_ValueChanged(sender,gcnew EventArgs());

  000cd	02		 ldarg.0 	; this$
  000ce	03		 ldarg.1 	; sender$
  000cf	73 00 00 00 00	 newobj ??0EventArgs@System@@$$FQ$AAM@XZ
  000d4	28 00 00 00 00	 call ?QNumUpDown_ValueChanged@MogiTest@Mogitter@@$$FA$AAMXP$AAVObject@System@@P$AAVEventArgs@4@@Z

; 975  : 					 }

  000d9	2b 10		 br.s $LN1@anaumeAnsB
$LN4@anaumeAnsB:

; 976  : 			 }else if (e->KeyCode == Keys::F1)

  000db	04		 ldarg.2 	; e$
  000dc	28 00 00 00 00	 call ?get@KeyCode@KeyEventArgs@Forms@Windows@System@@$$FQ$AAM?AW4Keys@345@XZ
  000e1	1f 70		 ldc.i4.s 112	; i32 0x70
  000e3	33 06		 bne.un.s $LN1@anaumeAnsB

; 977  : 			 {
; 978  : 				 marking();

  000e5	02		 ldarg.0 	; this$
  000e6	28 00 00 00 00	 call ?marking@MogiTest@Mogitter@@$$FA$AAMXXZ
$LN1@anaumeAnsB:

; 979  : 			 }
; 980  : 		 }

  000eb	2a		 ret 
 .end ?anaumeAnsBox_KeyDown@MogiTest@Mogitter@@$$FA$AAMXP$AAVObject@System@@P$AAVKeyEventArgs@Forms@Windows@4@@Z ; Mogitter::MogiTest::anaumeAnsBox_KeyDown
;	.proc.end.void
	.bss
.local	$StringLiteralTok$??_C@_1DA@LBEJIGFL@?$AAM?$AAo?$AAg?$AAi0?U0?$KB0?$KE0?k?$AA?$CI?$AA?$CK?$AA?4?$AAm?$AAo?$AAg?$AAi?$AA?$CJ?$AA?$HM?$AA?$CK?$AA?4?$AAm?$AAo?$AAg?$AAi?$AA?$AA@,4
.local	$StringLiteralTok$??_C@_1BE@HKELIMGC@?$AAs?$AAh?$AAi?$AAf?$AAt?$AA?9?$AAj?$AAi?$AAs?$AA?$AA@,4
.local	$T1,0
; Function compile flags: /Ogsp
; File f:\meijin4\c++\mogitter\mogitter\mogitest.h
	.text
	.comdat	any, ?openMenuItem_Click@MogiTest@Mogitter@@$$FA$AAMXP$AAVObject@System@@P$AAVEventArgs@4@@Z
.global	?openMenuItem_Click@MogiTest@Mogitter@@$$FA$AAMXP$AAVObject@System@@P$AAVEventArgs@4@@Z ; Mogitter::MogiTest::openMenuItem_Click
?openMenuItem_Click@MogiTest@Mogitter@@$$FA$AAMXP$AAVObject@System@@P$AAVEventArgs@4@@Z: ; Mogitter::MogiTest::openMenuItem_Click
;	.proc.def	D:V(PP)

; Function Header:
; max stack depth = 2
; function size = 62 bytes
; local varsig tk = 0x11000040 
; Exception Information:
; 0 handlers, each consisting of filtered handlers

;	.formal.mptr 0,"this$" SIG: Optional C Binding Modifier(token:0x3D121A5).class (token:0x3D121A8)
;	.local.mptr 0,"ofd$" SIG: class (token:0x3D1BA1D)
;	.local.mptr 1,"str$" SIG: string

;	.proc.beg

; 1004 : 				 OpenFileDialog^ ofd = gcnew OpenFileDialog();

  0000b	73 00 00 00 00	 newobj ??0OpenFileDialog@Forms@Windows@System@@$$FQ$AAM@XZ
  00010	0a		 stloc.0 	; ofd$

; 1005 : 				 ofd->Filter = "Mogiファイル(*.mogi)|*.mogi";

  00011	06		 ldloc.0 	; ofd$
  00012	72 00 00 00 00	 ldstr $StringLiteralTok$??_C@_1DA@LBEJIGFL@?$AAM?$AAo?$AAg?$AAi0?U0?$KB0?$KE0?k?$AA?$CI?$AA?$CK?$AA?4?$AAm?$AAo?$AAg?$AAi?$AA?$CJ?$AA?$HM?$AA?$CK?$AA?4?$AAm?$AAo?$AAg?$AAi?$AA?$AA@
  00017	28 00 00 00 00	 call ?set@Filter@FileDialog@Forms@Windows@System@@$$FQ$AAMXP$AAVString@5@@Z

; 1006 : 				 if(ofd->ShowDialog() != System::Windows::Forms::DialogResult::OK){

  0001c	06		 ldloc.0 	; ofd$
  0001d	28 00 00 00 00	 call ?ShowDialog@CommonDialog@Forms@Windows@System@@$$FQ$AAM?AW4DialogResult@234@XZ
  00022	17		 ldc.i.1 1	; i32 0x1
  00023	33 24		 bne.un.s $LN2@openMenuIt

; 1007 : 					 return;
; 1008 : 				 }
; 1009 : 				 StreamReader^ reader = gcnew StreamReader(ofd->FileName,System::Text::Encoding::GetEncoding("shift-jis"));

  00025	06		 ldloc.0 	; ofd$
  00026	28 00 00 00 00	 call ?get@FileName@FileDialog@Forms@Windows@System@@$$FQ$AAMP$AAVString@5@XZ
  0002b	72 00 00 00 00	 ldstr $StringLiteralTok$??_C@_1BE@HKELIMGC@?$AAs?$AAh?$AAi?$AAf?$AAt?$AA?9?$AAj?$AAi?$AAs?$AA?$AA@
  00030	28 00 00 00 00	 call ?GetEncoding@Encoding@Text@System@@$$FSMP$AAV123@P$AAVString@3@@Z
  00035	73 00 00 00 00	 newobj ??0StreamReader@IO@System@@$$FQ$AAM@P$AAVString@2@P$AAVEncoding@Text@2@@Z

; 1010 : 				 String^ str = reader->ReadToEnd();

  0003a	6f 00 00 00 00	 callvirt ?ReadToEnd@StreamReader@IO@System@@$$FU$AAMP$AAVString@3@XZ
  0003f	0b		 stloc.1 	; str$

; 1011 : 				 this->compile(str);

  00040	02		 ldarg.0 	; this$
  00041	07		 ldloc.1 	; str$
  00042	28 00 00 00 00	 call ?compile@MogiTest@Mogitter@@$$FQ$AAM_NP$AAVString@System@@@Z
  00047	26		 pop 
$LN2@openMenuIt:

; 1012 : 			 }

  00049	2a		 ret 
 .end ?openMenuItem_Click@MogiTest@Mogitter@@$$FA$AAMXP$AAVObject@System@@P$AAVEventArgs@4@@Z ; Mogitter::MogiTest::openMenuItem_Click
;	.proc.end.void
; Function compile flags: /Ogsp
; File f:\meijin4\c++\mogitter\mogitter\qbuild.h
	.text
	.comdat	any, ??0QBuild@Mogitter@@$$FQ$AAM@XZ
.global	??0QBuild@Mogitter@@$$FQ$AAM@XZ			; Mogitter::QBuild::QBuild
??0QBuild@Mogitter@@$$FQ$AAM@XZ:			; Mogitter::QBuild::QBuild
;	.proc.def	D:V()

; Function Header:
; max stack depth = 2
; function size = 23 bytes
; local varsig tk = 0x0 
; Exception Information:
; 1 handlers, each consisting of filtered handlers

;	.formal.mptr 0,"this$" SIG: Optional C Binding Modifier(token:0x3D19CDD).class (token:0x3D19CE0)

;	.proc.beg

; 26   : 		QBuild(void)

  0000b	02		 ldarg.0 	; this$
  0000c	28 00 00 00 00	 call ??0Form@Forms@Windows@System@@$$FQ$AAM@XZ
$LN4@QBuild:

; 27   : 		{
; 28   : 			InitializeComponent();

  00012	02		 ldarg.0 	; this$
  00013	28 00 00 00 00	 call ?InitializeComponent@QBuild@Mogitter@@$$FA$AAMXXZ
  00018	de 08		 leave.s $LN5@QBuild
$LN6@QBuild:
  0001a	02		 ldarg.0 	; this$
  0001b	17		 ldc.i.1 1	; u8 0x1
  0001c	28 00 00 00 00	 call ?<Dispose>@Form@Forms@Windows@System@@$$FM$AAMX_N@Z
  00021	dc		 endfinally 
$LN5@QBuild:

; 29   : 			//
; 30   : 			//TODO: ここにコンストラクタ コードを追加します
; 31   : 			//
; 32   : 		}

  00022	2a		 ret 
 .end ??0QBuild@Mogitter@@$$FQ$AAM@XZ			; Mogitter::QBuild::QBuild
;	.proc.end.void
; Function compile flags: /Ogsp
; File f:\meijin4\c++\mogitter\mogitter\sprash.h
	.text
	.comdat	any, ??0Sprash@Mogitter@@$$FQ$AAM@XZ
.global	??0Sprash@Mogitter@@$$FQ$AAM@XZ			; Mogitter::Sprash::Sprash
??0Sprash@Mogitter@@$$FQ$AAM@XZ:			; Mogitter::Sprash::Sprash
;	.proc.def	D:V()

; Function Header:
; max stack depth = 2
; function size = 23 bytes
; local varsig tk = 0x0 
; Exception Information:
; 1 handlers, each consisting of filtered handlers

;	.formal.mptr 0,"this$" SIG: Optional C Binding Modifier(token:0x3D7841D).class (token:0x3D78420)

;	.proc.beg

; 25   : 		Sprash(void)

  0000b	02		 ldarg.0 	; this$
  0000c	28 00 00 00 00	 call ??0Form@Forms@Windows@System@@$$FQ$AAM@XZ
$LN4@Sprash:

; 26   : 		{
; 27   : 			InitializeComponent();

  00012	02		 ldarg.0 	; this$
  00013	28 00 00 00 00	 call ?InitializeComponent@Sprash@Mogitter@@$$FA$AAMXXZ
  00018	de 08		 leave.s $LN5@Sprash
$LN6@Sprash:
  0001a	02		 ldarg.0 	; this$
  0001b	17		 ldc.i.1 1	; u8 0x1
  0001c	28 00 00 00 00	 call ?<Dispose>@Form@Forms@Windows@System@@$$FM$AAMX_N@Z
  00021	dc		 endfinally 
$LN5@Sprash:

; 28   : 			//
; 29   : 			//TODO: ここにコンストラクタ コードを追加します
; 30   : 			//
; 31   : 		}

  00022	2a		 ret 
 .end ??0Sprash@Mogitter@@$$FQ$AAM@XZ			; Mogitter::Sprash::Sprash
;	.proc.end.void
; Function compile flags: /Ogsp
; File f:\meijin4\c++\mogitter\mogitter\qmarking.h
	.text
	.comdat	any, ??0QMarking@Mogitter@@$$FQ$AAM@XZ
.global	??0QMarking@Mogitter@@$$FQ$AAM@XZ		; Mogitter::QMarking::QMarking
??0QMarking@Mogitter@@$$FQ$AAM@XZ:			; Mogitter::QMarking::QMarking
;	.proc.def	D:V()

; Function Header:
; max stack depth = 2
; function size = 30 bytes
; local varsig tk = 0x0 
; Exception Information:
; 1 handlers, each consisting of filtered handlers

;	.formal.mptr 0,"this$" SIG: Optional C Binding Modifier(token:0x3D0DB75).class (token:0x3D0DB78)

;	.proc.beg

; 29   : 		QMarking(void)

  0000b	02		 ldarg.0 	; this$
  0000c	28 00 00 00 00	 call ??0Form@Forms@Windows@System@@$$FQ$AAM@XZ
$LN4@QMarking:

; 30   : 		{
; 31   : 			InitializeComponent();

  00012	02		 ldarg.0 	; this$
  00013	28 00 00 00 00	 call ?InitializeComponent@QMarking@Mogitter@@$$FA$AAMXXZ

; 32   : 			//
; 33   : 			//TODO: ここにコンストラクタ コードを追加します
; 34   : 			//
; 35   : 			byButtonClose = false;

  00018	02		 ldarg.0 	; this$
  00019	16		 ldc.i.0 0	; u8 0x0
  0001a	7d 00 00 00 00	 stfld ?byButtonClose@QMarking@Mogitter@@3_NA
  0001f	de 08		 leave.s $LN5@QMarking
$LN6@QMarking:
  00021	02		 ldarg.0 	; this$
  00022	17		 ldc.i.1 1	; u8 0x1
  00023	28 00 00 00 00	 call ?<Dispose>@Form@Forms@Windows@System@@$$FM$AAMX_N@Z
  00028	dc		 endfinally 
$LN5@QMarking:

; 36   : 		}

  00029	2a		 ret 
 .end ??0QMarking@Mogitter@@$$FQ$AAM@XZ			; Mogitter::QMarking::QMarking
;	.proc.end.void
	.bss
.local	$StringLiteralTok$??_C@_1O@DJMKKBIG@UO?$JILO?20?$IKv?t0W?$AA?$AA@,4
.local	$T1,0
; Function compile flags: /Ogsp
; File f:\meijin4\c++\mogitter\mogitter\form1.h
	.text
	.comdat	any, ?remake_doing@Form1@Mogitter@@$$FA$AAMXP$AAVString@System@@@Z
.global	?remake_doing@Form1@Mogitter@@$$FA$AAMXP$AAVString@System@@@Z ; Mogitter::Form1::remake_doing
?remake_doing@Form1@Mogitter@@$$FA$AAMXP$AAVString@System@@@Z: ; Mogitter::Form1::remake_doing
;	.proc.def	D:V(P)

; Function Header:
; max stack depth = 4
; function size = 466 bytes
; local varsig tk = 0x11000041 
; Exception Information:
; 0 handlers, each consisting of filtered handlers

;	.formal.mptr 0,"this$" SIG: Optional C Binding Modifier(token:0x38BA05).class (token:0x38BA08)
;	.formal.mptr 1,"sele$" SIG: string
;	.local.mptr 1,"spliters$2" SIG: szarray (token:0x3D1C00D)
;	.local.mptr 2,"commands$3" SIG: szarray (token:0x3D1E3B5)
;	.local.mptr 9,"ansStr$4" SIG: string
;	.local.mptr 5,"headMode$5" SIG: string
;	.local.mptr 4,"items$6" SIG: szarray (token:0x3D1E3B5)
;	.local.mptr 0,"exec$7" SIG: class (token:0x3D1268D)
;	.local.mb16  8,"$T8" SIG: valueType (token:0x3D226AD)
;	.local.mb16  7,"$T9" SIG: valueType (token:0x3D226AD)
;	.local.i4 3,"$I$10" SIG: i4
;	.local.mptr 6,"item$11" SIG: string

;	.proc.beg

; 822  : //					 String ^saveSele = sele;
; 823  : 					 if(sele ==nullptr || sele->Length <= 0){

  0000b	03		 ldarg.1 	; sele$
  0000c	14		 ldnull 0	; i32 0x0
  0000d	28 00 00 00 00	 call ??8String@System@@$$FSM_NP$AAV01@0@Z
  00012	3a c6 01 00 00	 brtrue $LN13@remake_doi
  00017	03		 ldarg.1 	; sele$
  00018	28 00 00 00 00	 call ?get@Length@String@System@@$$FQ$AAMHXZ
  0001d	16		 ldc.i.0 0	; i32 0x0
  0001e	3e ba 01 00 00	 ble $LN13@remake_doi

; 824  : 							 return;
; 825  : 				     }
; 826  : 					 if(sele->StartsWith("{Answer") && sele->EndsWith(";}")){

  00023	03		 ldarg.1 	; sele$
  00024	72 00 00 00 00	 ldstr $StringLiteralTok$??_C@_1BA@KJMINFHD@?$AA?$HL?$AAA?$AAn?$AAs?$AAw?$AAe?$AAr?$AA?$AA@
  00029	28 00 00 00 00	 call ?StartsWith@String@System@@$$FQ$AAM_NP$AAV12@@Z
  0002e	39 97 01 00 00	 brfalse $LN12@remake_doi
  00033	03		 ldarg.1 	; sele$
  00034	72 00 00 00 00	 ldstr $StringLiteralTok$??_C@_15LJNFNBHD@?$AA?$DL?$AA?$HN?$AA?$AA@
  00039	28 00 00 00 00	 call ?EndsWith@String@System@@$$FQ$AAM_NP$AAV12@@Z
  0003e	39 87 01 00 00	 brfalse $LN12@remake_doi

; 827  : 								 array<wchar_t> ^spliters={';'};

  00043	17		 ldc.i.1 1	; i32 0x1
  00044	8d 00 00 00 00	 newarr $TypeTok$11003218$
  00049	0b		 stloc.1 	; spliters$2
  0004a	07		 ldloc.1 	; spliters$2
  0004b	16		 ldc.i.0 0	; i32 0x0
  0004c	8f 00 00 00 00	 ldelema $va_argTok$_W
  00051	1f 3b		 ldc.i4.s 59	; u16 0x3b
  00053	53		 stind.i2 

; 828  : 								 //array<wchar_t>^ sep = {'\n'};
; 829  : 								 sele = MogiTest::escapeSet(sele);

  00054	03		 ldarg.1 	; sele$
  00055	28 00 00 00 00	 call ?escapeSet@MogiTest@Mogitter@@$$FSMP$AAVString@System@@P$AAV34@@Z
  0005a	10 01		 starg.s 1	; sele$

; 830  : 								 array<String^> ^commands = sele->Split(spliters);

  0005c	03		 ldarg.1 	; sele$
  0005d	07		 ldloc.1 	; spliters$2
  0005e	28 00 00 00 00	 call ?Split@String@System@@$$FQ$AAMP$01AP$AAV12@P$01A_W@Z
  00063	0c		 stloc.2 	; commands$3

; 831  : 								 spliters[0] = '=';

  00064	07		 ldloc.1 	; spliters$2
  00065	16		 ldc.i.0 0	; i32 0x0
  00066	8f 00 00 00 00	 ldelema $va_argTok$_W
  0006b	1f 3d		 ldc.i4.s 61	; u16 0x3d
  0006d	53		 stind.i2 

; 832  : 								 if(commands->Length<3){

  0006e	08		 ldloc.2 	; commands$3
  0006f	8e		 ldlen 
  00070	19		 ldc.i.3 3	; i32 0x3
  00071	2f 0d		 bge.s $LN11@remake_doi

; 833  : 									torikeshi_doing(sele);

  00073	02		 ldarg.0 	; this$
  00074	03		 ldarg.1 	; sele$
  00075	28 00 00 00 00	 call ?torikeshi_doing@Form1@Mogitter@@$$FA$AAMXP$AAVString@System@@@Z

; 834  : 									return;

  0007a	38 5e 01 00 00	 br $LN13@remake_doi
$LN11@remake_doi:

; 835  : 								 }
; 836  : //								 Debug::WriteLine(commands[0]);
; 837  : //								 Debug::WriteLine(commands[1]);
; 838  : //								 Debug::WriteLine(commands[2]);
; 839  : //								 Debug::WriteLine(commands[3]);
; 840  : 								 String^ ansStr = commands[0]->Split(spliters)[1];

  00080	08		 ldloc.2 	; commands$3
  00081	16		 ldc.i.0 0	; i32 0x0
  00082	9a		 ldelem.ref 
  00083	07		 ldloc.1 	; spliters$2
  00084	28 00 00 00 00	 call ?Split@String@System@@$$FQ$AAMP$01AP$AAV12@P$01A_W@Z
  00089	17		 ldc.i.1 1	; i32 0x1
  0008a	9a		 ldelem.ref 
  0008b	13 09		 stloc.s 9	; ansStr$4

; 841  : 								 int ansNum = int::Parse(commands[2]->Split(spliters)[1]);

  0008d	08		 ldloc.2 	; commands$3
  0008e	18		 ldc.i.2 2	; i32 0x2
  0008f	9a		 ldelem.ref 
  00090	07		 ldloc.1 	; spliters$2
  00091	28 00 00 00 00	 call ?Split@String@System@@$$FQ$AAMP$01AP$AAV12@P$01A_W@Z
  00096	17		 ldc.i.1 1	; i32 0x1
  00097	9a		 ldelem.ref 
  00098	28 00 00 00 00	 call ?Parse@Int32@System@@$$FSMHP$AAVString@2@@Z

; 842  : 								 String^ headMode = commands[3]->Split(spliters)[1];

  0009d	08		 ldloc.2 	; commands$3
  0009e	19		 ldc.i.3 3	; i32 0x3
  0009f	9a		 ldelem.ref 
  000a0	07		 ldloc.1 	; spliters$2
  000a1	28 00 00 00 00	 call ?Split@String@System@@$$FQ$AAMP$01AP$AAV12@P$01A_W@Z
  000a6	17		 ldc.i.1 1	; i32 0x1
  000a7	9a		 ldelem.ref 
  000a8	13 05		 stloc.s 5	; headMode$5

; 843  : 								 String^ itemsStr = commands[1]->Split(spliters)[1];

  000aa	08		 ldloc.2 	; commands$3
  000ab	17		 ldc.i.1 1	; i32 0x1
  000ac	9a		 ldelem.ref 
  000ad	07		 ldloc.1 	; spliters$2
  000ae	28 00 00 00 00	 call ?Split@String@System@@$$FQ$AAMP$01AP$AAV12@P$01A_W@Z
  000b3	17		 ldc.i.1 1	; i32 0x1
  000b4	9a		 ldelem.ref 

; 844  : 								 spliters[0] = ',';

  000b5	07		 ldloc.1 	; spliters$2
  000b6	16		 ldc.i.0 0	; i32 0x0
  000b7	8f 00 00 00 00	 ldelema $va_argTok$_W
  000bc	1f 2c		 ldc.i4.s 44	; u16 0x2c
  000be	53		 stind.i2 

; 845  : 								 array<String^>^ items = itemsStr->Split(spliters);

  000bf	07		 ldloc.1 	; spliters$2
  000c0	28 00 00 00 00	 call ?Split@String@System@@$$FQ$AAMP$01AP$AAV12@P$01A_W@Z
  000c5	13 04		 stloc.s 4	; items$6

; 846  : 
; 847  : 								 QBuild^ exec = gcnew QBuild();

  000c7	73 00 00 00 00	 newobj ??0QBuild@Mogitter@@$$FQ$AAM@XZ
  000cc	0a		 stloc.0 	; exec$7

; 848  : 								 exec->answerBox->Text = MogiTest::escapeReSet(ansStr);

  000cd	06		 ldloc.0 	; exec$7
  000ce	7b 00 00 00 00	 ldfld ?answerBox@QBuild@Mogitter@@3P$AAVTextBox@Forms@Windows@System@@$AA
  000d3	11 09		 ldloc.s 9	; ansStr$4
  000d5	28 00 00 00 00	 call ?escapeReSet@MogiTest@Mogitter@@$$FSMP$AAVString@System@@P$AAV34@@Z
  000da	6f 00 00 00 00	 callvirt ?set@Text@TextBox@Forms@Windows@System@@$$FU$AAMXP$AAVString@5@@Z

; 849  : 								 exec->seikaiNumber->Maximum = items->Length + 1;

  000df	11 04		 ldloc.s 4	; items$6
  000e1	8e		 ldlen 
  000e2	17		 ldc.i.1 1	; i32 0x1
  000e3	58		 add 
  000e4	28 00 00 00 00	 call ??BDecimal@System@@$$FSM?AV01@H@Z
  000e9	13 08		 stloc.s 8	; $T8
  000eb	06		 ldloc.0 	; exec$7
  000ec	7b 00 00 00 00	 ldfld ?seikaiNumber@QBuild@Mogitter@@3P$AAVNumericUpDown@Forms@Windows@System@@$AA
  000f1	11 08		 ldloc.s 8	; $T8
  000f3	28 00 00 00 00	 call ?set@Maximum@NumericUpDown@Forms@Windows@System@@$$FQ$AAMXVDecimal@5@@Z

; 850  : 								 exec->seikaiNumber->Value = ansNum;

  000f8	28 00 00 00 00	 call ??BDecimal@System@@$$FSM?AV01@H@Z
  000fd	13 07		 stloc.s 7	; $T9
  000ff	06		 ldloc.0 	; exec$7
  00100	7b 00 00 00 00	 ldfld ?seikaiNumber@QBuild@Mogitter@@3P$AAVNumericUpDown@Forms@Windows@System@@$AA
  00105	11 07		 ldloc.s 7	; $T9
  00107	28 00 00 00 00	 call ?set@Value@NumericUpDown@Forms@Windows@System@@$$FQ$AAMXVDecimal@5@@Z

; 851  : 								 for each(String^ item in items){

  0010c	16		 ldc.i.0 0	; i32 0x0
  0010d	0d		 stloc.3 	; $I$10
  0010e	16		 ldc.i.0 0	; i32 0x0
  0010f	11 04		 ldloc.s 4	; items$6
  00111	8e		 ldlen 
  00112	2f 3c		 bge.s $LN8@remake_doi
$LL10@remake_doi:
  00114	11 04		 ldloc.s 4	; items$6
  00116	09		 ldloc.3 	; $I$10
  00117	9a		 ldelem.ref 
  00118	13 06		 stloc.s 6	; item$11

; 852  : 									 exec->sentakushi->Text += MogiTest::escapeReSet(item) + "\n";

  0011a	06		 ldloc.0 	; exec$7
  0011b	7b 00 00 00 00	 ldfld ?sentakushi@QBuild@Mogitter@@3P$AAVAzukiControl@WinForms@Azuki@Sgry@@$AA
  00120	06		 ldloc.0 	; exec$7
  00121	7b 00 00 00 00	 ldfld ?sentakushi@QBuild@Mogitter@@3P$AAVAzukiControl@WinForms@Azuki@Sgry@@$AA
  00126	6f 00 00 00 00	 callvirt ?get@Text@AzukiControl@WinForms@Azuki@Sgry@@$$FU$AAMP$AAVString@System@@XZ
  0012b	11 06		 ldloc.s 6	; item$11
  0012d	28 00 00 00 00	 call ?escapeReSet@MogiTest@Mogitter@@$$FSMP$AAVString@System@@P$AAV34@@Z
  00132	72 00 00 00 00	 ldstr $StringLiteralTok$??_C@_13LBAGMAIH@?$AA?6?$AA?$AA@
  00137	28 00 00 00 00	 call ?Concat@String@System@@$$FSMP$AAV12@P$AAV12@0@Z
  0013c	28 00 00 00 00	 call ?Concat@String@System@@$$FSMP$AAV12@P$AAV12@0@Z
  00141	6f 00 00 00 00	 callvirt ?set@Text@AzukiControl@WinForms@Azuki@Sgry@@$$FU$AAMXP$AAVString@System@@@Z

; 851  : 								 for each(String^ item in items){

  00146	09		 ldloc.3 	; $I$10
  00147	17		 ldc.i.1 1	; i32 0x1
  00148	58		 add 
  00149	0d		 stloc.3 	; $I$10
  0014a	09		 ldloc.3 	; $I$10
  0014b	11 04		 ldloc.s 4	; items$6
  0014d	8e		 ldlen 
  0014e	32 c4		 blt.s $LL10@remake_doi
$LN8@remake_doi:

; 853  : 								 }
; 854  : 								 if(headMode == "kana"){

  00150	11 05		 ldloc.s 5	; headMode$5
  00152	72 00 00 00 00	 ldstr $StringLiteralTok$??_C@_19JIFHDGGH@?$AAk?$AAa?$AAn?$AAa?$AA?$AA@
  00157	28 00 00 00 00	 call ??8String@System@@$$FSM_NP$AAV01@0@Z
  0015c	2c 0e		 brfalse.s $LN7@remake_doi

; 855  : 									 exec->kana_abc->Checked = true;

  0015e	06		 ldloc.0 	; exec$7
  0015f	7b 00 00 00 00	 ldfld ?kana_abc@QBuild@Mogitter@@3P$AAVRadioButton@Forms@Windows@System@@$AA
  00164	17		 ldc.i.1 1	; u8 0x1
  00165	28 00 00 00 00	 call ?set@Checked@RadioButton@Forms@Windows@System@@$$FQ$AAMX_N@Z
  0016a	2b 44		 br.s $LN2@remake_doi
$LN7@remake_doi:

; 856  : 								 }else if(headMode == "katakana"){

  0016c	11 05		 ldloc.s 5	; headMode$5
  0016e	72 00 00 00 00	 ldstr $StringLiteralTok$??_C@_1BC@NBMHCKEN@?$AAk?$AAa?$AAt?$AAa?$AAk?$AAa?$AAn?$AAa?$AA?$AA@
  00173	28 00 00 00 00	 call ??8String@System@@$$FSM_NP$AAV01@0@Z
  00178	2c 0e		 brfalse.s $LN5@remake_doi

; 857  : 									 exec->katakana_abc->Checked = true;

  0017a	06		 ldloc.0 	; exec$7
  0017b	7b 00 00 00 00	 ldfld ?katakana_abc@QBuild@Mogitter@@3P$AAVRadioButton@Forms@Windows@System@@$AA
  00180	17		 ldc.i.1 1	; u8 0x1
  00181	28 00 00 00 00	 call ?set@Checked@RadioButton@Forms@Windows@System@@$$FQ$AAMX_N@Z
  00186	2b 28		 br.s $LN2@remake_doi
$LN5@remake_doi:

; 858  : 								 }else if(headMode == "abc"){

  00188	11 05		 ldloc.s 5	; headMode$5
  0018a	72 00 00 00 00	 ldstr $StringLiteralTok$??_C@_17OKDDHGAP@?$AAa?$AAb?$AAc?$AA?$AA@
  0018f	28 00 00 00 00	 call ??8String@System@@$$FSM_NP$AAV01@0@Z
  00194	2c 0e		 brfalse.s $LN3@remake_doi

; 859  : 									 exec->abc->Checked = true;

  00196	06		 ldloc.0 	; exec$7
  00197	7b 00 00 00 00	 ldfld ?abc@QBuild@Mogitter@@3P$AAVRadioButton@Forms@Windows@System@@$AA
  0019c	17		 ldc.i.1 1	; u8 0x1
  0019d	28 00 00 00 00	 call ?set@Checked@RadioButton@Forms@Windows@System@@$$FQ$AAMX_N@Z

; 860  : 								 }else{

  001a2	2b 0c		 br.s $LN2@remake_doi
$LN3@remake_doi:

; 861  : 									 exec->ABC_->Checked = true;

  001a4	06		 ldloc.0 	; exec$7
  001a5	7b 00 00 00 00	 ldfld ?ABC_@QBuild@Mogitter@@3P$AAVRadioButton@Forms@Windows@System@@$AA
  001aa	17		 ldc.i.1 1	; u8 0x1
  001ab	28 00 00 00 00	 call ?set@Checked@RadioButton@Forms@Windows@System@@$$FQ$AAMX_N@Z
$LN2@remake_doi:

; 862  : 								 }
; 863  : 								 exec->Text = "問題作り直し";

  001b0	06		 ldloc.0 	; exec$7
  001b1	72 00 00 00 00	 ldstr $StringLiteralTok$??_C@_1O@DJMKKBIG@UO?$JILO?20?$IKv?t0W?$AA?$AA@
  001b6	6f 00 00 00 00	 callvirt ?set@Text@Form@Forms@Windows@System@@$$FU$AAMXP$AAVString@5@@Z

; 864  : 								 QBuild_doing(exec,MogiTest::escapeReSet(sele));

  001bb	02		 ldarg.0 	; this$
  001bc	06		 ldloc.0 	; exec$7
  001bd	03		 ldarg.1 	; sele$
  001be	28 00 00 00 00	 call ?escapeReSet@MogiTest@Mogitter@@$$FSMP$AAVString@System@@P$AAV34@@Z
  001c3	28 00 00 00 00	 call ?QBuild_doing@Form1@Mogitter@@$$FA$AAMXP$AAVQBuild@2@P$AAVString@System@@@Z

; 865  : 
; 866  : 					 }else

  001c8	2b 13		 br.s $LN13@remake_doi
$LN12@remake_doi:

; 867  : 							 MessageBox::Show("\"{\"から\"}\"まで選択してください。","警告!!",MessageBoxButtons::OK,MessageBoxIcon::Error);

  001ca	72 00 00 00 00	 ldstr $StringLiteralTok$??_C@_1CI@CJODEADL@?$AA?$CC?$AA?$HL?$AA?$CC0K0?$IJ?$AA?$CC?$AA?$HN?$AA?$CC0?$HO0g?$JAxb?$JO0W0f0O0?$GA0U0D0?$AC?$AA?$AA@
  001cf	72 00 00 00 00	 ldstr $StringLiteralTok$??_C@_19JPDFHAGF@?$ILfTJ?$AA?$CB?$AA?$CB?$AA?$AA@
  001d4	16		 ldc.i.0 0	; i32 0x0
  001d5	1f 10		 ldc.i4.s 16	; i32 0x10
  001d7	28 00 00 00 00	 call ?Show@MessageBox@Forms@Windows@System@@$$FSM?AW4DialogResult@234@P$AAVString@4@0W4MessageBoxButtons@234@W4MessageBoxIcon@234@@Z
  001dc	26		 pop 
$LN13@remake_doi:

; 868  : 			 }

  001dd	2a		 ret 
 .end ?remake_doing@Form1@Mogitter@@$$FA$AAMXP$AAVString@System@@@Z ; Mogitter::Form1::remake_doing
;	.proc.end.void
.global	
.global	?deleteRB@Form1@Mogitter@@3P$AAVRadioButton@Forms@Windows@System@@$AA ; Mogitter::Form1::deleteRB
	.bss
.local	,4
.local	?deleteRB@Form1@Mogitter@@3P$AAVRadioButton@Forms@Windows@System@@$AA,4 ; Mogitter::Form1::deleteRB
.local	$StringLiteralTok$??_C@_1BO@DOAHAKND@?$JAxb?$JOOM?$HPn0L?$AA?$CC?$AA?$HL?$AA?$HN?$AA?$CC0nN?90g0Y0?$AC?$AA?$AA@,4
.local	$StringLiteralTok$??_C@_1BG@FAGMFKJJ@?$JAxb?$JO0W0_0?F0?$KN0?$LJ0?H0k?$AA?$CC?$AA?$AA@,4
.local	$StringLiteralTok$??_C@_1BG@GFDNKNIK@?$AA?$CC0LT?$CL0?$HO0?$IM0f0D0?$HO0Y0?$AC?$AA?$AA@,4
.local	$StringLiteralTok$??_C@_17CHAMLACK@?$AA?$EA?$AA?$EA?$AA?$EA?$AA?$AA@,4
.local	$StringLiteralTok$??_C@_1BO@EJIMCDNP@?$IJ?$AHep?$IIL0?$JCUO?$JIL0k0o0g0M0?$HO0?$FL0?$JD0?$AC?$AA?$AA@,4
.local	$StringLiteralTok$??_C@_17DDKHMHLO@0?$KI0?i0?$PM?$AA?$AA@,4
.local	$T1,0
; Function compile flags: /Ogsp
; File f:\meijin4\c++\mogitter\mogitter\form1.h
	.text
	.comdat	any, ?tArea_MouseUp@Form1@Mogitter@@$$FA$AAMXP$AAVObject@System@@P$AAVMouseEventArgs@Forms@Windows@4@@Z
.global	?tArea_MouseUp@Form1@Mogitter@@$$FA$AAMXP$AAVObject@System@@P$AAVMouseEventArgs@Forms@Windows@4@@Z ; Mogitter::Form1::tArea_MouseUp
?tArea_MouseUp@Form1@Mogitter@@$$FA$AAMXP$AAVObject@System@@P$AAVMouseEventArgs@Forms@Windows@4@@Z: ; Mogitter::Form1::tArea_MouseUp
;	.proc.def	D:V(PP)

; Function Header:
; max stack depth = 4
; function size = 493 bytes
; local varsig tk = 0x11000043 
; Exception Information:
; 0 handlers, each consisting of filtered handlers

;	.formal.mptr 0,"this$" SIG: Optional C Binding Modifier(token:0x38BA05).class (token:0x38BA08)
;	.local.mptr 0,"sele$" SIG: string
;	.local.mptr 8,"errMsg$" SIG: string
;	.local.u1 1,"isOK$" SIG: bool
;	.local.mptr 7,"$S199$2" SIG: szarray (token:0x3D1E3B5)
;	.local.i4 6,"$I$3" SIG: i4
;	.local.mptr 11,"kak$4" SIG: string
;	.local.i4 4,"caretposi$" SIG: i4
;	.local.i4 5,"ancposi$" SIG: i4
;	.local.mptr 2,"text$" SIG: string
;	.local.mptr 10,"before$" SIG: string
;	.local.mptr 3,"after$" SIG: string
;	.local.mptr 9,"exec$5" SIG: class (token:0x3D1268D)

;	.proc.beg

; 916  : 				 String^ sele = azukiArea->GetSelectedText();

  0000b	02		 ldarg.0 	; this$
  0000c	7b 00 00 00 00	 ldfld ?azukiArea@Form1@Mogitter@@3P$AAVAzukiControl@WinForms@Azuki@Sgry@@$AA
  00011	6f 00 00 00 00	 callvirt ?GetSelectedText@AzukiControl@WinForms@Azuki@Sgry@@$$FU$AAMP$AAVString@System@@XZ
  00016	0a		 stloc.0 	; sele$

; 917  : 				 if(deleteRB->Checked){

  00017	02		 ldarg.0 	; this$
  00018	7b 00 00 00 00	 ldfld ?deleteRB@Form1@Mogitter@@3P$AAVRadioButton@Forms@Windows@System@@$AA
  0001d	28 00 00 00 00	 call ?get@Checked@RadioButton@Forms@Windows@System@@$$FQ$AAM_NXZ
  00022	2c 0d		 brfalse.s $LN18@tArea_Mous

; 918  : 						 torikeshi_doing(sele);

  00024	02		 ldarg.0 	; this$
  00025	06		 ldloc.0 	; sele$
  00026	28 00 00 00 00	 call ?torikeshi_doing@Form1@Mogitter@@$$FA$AAMXP$AAVString@System@@@Z

; 919  : 						 return;

  0002b	38 c8 01 00 00	 br $LN15@tArea_Mous
$LN18@tArea_Mous:

; 920  : 				 }
; 921  : 				 if(sele->StartsWith("{Answer") && sele->EndsWith(";}")){

  00031	06		 ldloc.0 	; sele$
  00032	72 00 00 00 00	 ldstr $StringLiteralTok$??_C@_1BA@KJMINFHD@?$AA?$HL?$AAA?$AAn?$AAs?$AAw?$AAe?$AAr?$AA?$AA@
  00037	28 00 00 00 00	 call ?StartsWith@String@System@@$$FQ$AAM_NP$AAV12@@Z
  0003c	2c 19		 brfalse.s $LN17@tArea_Mous
  0003e	06		 ldloc.0 	; sele$
  0003f	72 00 00 00 00	 ldstr $StringLiteralTok$??_C@_15LJNFNBHD@?$AA?$DL?$AA?$HN?$AA?$AA@
  00044	28 00 00 00 00	 call ?EndsWith@String@System@@$$FQ$AAM_NP$AAV12@@Z
  00049	2c 0c		 brfalse.s $LN17@tArea_Mous

; 922  : 					 remake_doing(sele);

  0004b	02		 ldarg.0 	; this$
  0004c	06		 ldloc.0 	; sele$
  0004d	28 00 00 00 00	 call ?remake_doing@Form1@Mogitter@@$$FA$AAMXP$AAVString@System@@@Z

; 923  : 					 return;

  00052	38 a1 01 00 00	 br $LN15@tArea_Mous
$LN17@tArea_Mous:

; 924  : 				 }
; 925  : 				 String ^errMsg = "選択位置が\"{}\"の中です。";

  00057	72 00 00 00 00	 ldstr $StringLiteralTok$??_C@_1BO@DOAHAKND@?$JAxb?$JOOM?$HPn0L?$AA?$CC?$AA?$HL?$AA?$HN?$AA?$CC0nN?90g0Y0?$AC?$AA?$AA@
  0005c	13 08		 stloc.s 8	; errMsg$

; 926  : 				 bool isOK = true;

  0005e	17		 ldc.i.1 1	; u8 0x1
  0005f	0b		 stloc.1 	; isOK$

; 927  : 				 if(sele ==nullptr || sele->Length <= 0){

  00060	06		 ldloc.0 	; sele$
  00061	14		 ldnull 0	; i32 0x0
  00062	28 00 00 00 00	 call ??8String@System@@$$FSM_NP$AAV01@0@Z
  00067	3a 8c 01 00 00	 brtrue $LN15@tArea_Mous
  0006c	06		 ldloc.0 	; sele$
  0006d	28 00 00 00 00	 call ?get@Length@String@System@@$$FQ$AAMHXZ
  00072	16		 ldc.i.0 0	; i32 0x0
  00073	3e 80 01 00 00	 ble $LN15@tArea_Mous

; 928  : 						 return;
; 929  : 				 }
; 930  : 				 for each (String^ kak in kakkos){

  00078	7e 00 00 00 00	 ldsfld ?kakkos@Form1@Mogitter@@1P$01AP$AAVString@System@@A
  0007d	13 07		 stloc.s 7	; $S199$2
  0007f	16		 ldc.i.0 0	; i32 0x0
  00080	13 06		 stloc.s 6	; $I$3
  00082	16		 ldc.i.0 0	; i32 0x0
  00083	11 07		 ldloc.s 7	; $S199$2
  00085	8e		 ldlen 
  00086	2f 39		 bge.s $LN12@tArea_Mous
$LL14@tArea_Mous:
  00088	11 07		 ldloc.s 7	; $S199$2
  0008a	11 06		 ldloc.s 6	; $I$3
  0008c	9a		 ldelem.ref 
  0008d	13 0b		 stloc.s 11	; kak$4

; 931  : 						 if(sele->IndexOf(kak)>=0){

  0008f	06		 ldloc.0 	; sele$
  00090	11 0b		 ldloc.s 11	; kak$4
  00092	28 00 00 00 00	 call ?IndexOf@String@System@@$$FQ$AAMHP$AAV12@@Z
  00097	16		 ldc.i.0 0	; i32 0x0
  00098	32 1a		 blt.s $LN13@tArea_Mous

; 932  : 								 errMsg = "選択したテキストに\""+kak+"\"が含まれています。";

  0009a	72 00 00 00 00	 ldstr $StringLiteralTok$??_C@_1BG@FAGMFKJJ@?$JAxb?$JO0W0_0?F0?$KN0?$LJ0?H0k?$AA?$CC?$AA?$AA@
  0009f	11 0b		 ldloc.s 11	; kak$4
  000a1	28 00 00 00 00	 call ?Concat@String@System@@$$FSMP$AAV12@P$AAV12@0@Z
  000a6	72 00 00 00 00	 ldstr $StringLiteralTok$??_C@_1BG@GFDNKNIK@?$AA?$CC0LT?$CL0?$HO0?$IM0f0D0?$HO0Y0?$AC?$AA?$AA@
  000ab	28 00 00 00 00	 call ?Concat@String@System@@$$FSMP$AAV12@P$AAV12@0@Z
  000b0	13 08		 stloc.s 8	; errMsg$

; 933  : 								 isOK = false;

  000b2	16		 ldc.i.0 0	; u8 0x0
  000b3	0b		 stloc.1 	; isOK$
$LN13@tArea_Mous:

; 928  : 						 return;
; 929  : 				 }
; 930  : 				 for each (String^ kak in kakkos){

  000b4	11 06		 ldloc.s 6	; $I$3
  000b6	17		 ldc.i.1 1	; i32 0x1
  000b7	58		 add 
  000b8	13 06		 stloc.s 6	; $I$3
  000ba	11 06		 ldloc.s 6	; $I$3
  000bc	11 07		 ldloc.s 7	; $S199$2
  000be	8e		 ldlen 
  000bf	32 c7		 blt.s $LL14@tArea_Mous
$LN12@tArea_Mous:

; 934  : 						 }
; 935  : 				 }
; 936  : 				 int caretposi = 	azukiArea->CaretIndex;

  000c1	02		 ldarg.0 	; this$
  000c2	7b 00 00 00 00	 ldfld ?azukiArea@Form1@Mogitter@@3P$AAVAzukiControl@WinForms@Azuki@Sgry@@$AA
  000c7	6f 00 00 00 00	 callvirt ?get@CaretIndex@AzukiControl@WinForms@Azuki@Sgry@@$$FU$AAMHXZ
  000cc	13 04		 stloc.s 4	; caretposi$

; 937  : 				 int ancposi = azukiArea->Document->AnchorIndex;

  000ce	02		 ldarg.0 	; this$
  000cf	7b 00 00 00 00	 ldfld ?azukiArea@Form1@Mogitter@@3P$AAVAzukiControl@WinForms@Azuki@Sgry@@$AA
  000d4	6f 00 00 00 00	 callvirt ?get@Document@AzukiControl@WinForms@Azuki@Sgry@@$$FU$AAMP$AAV145@XZ
  000d9	28 00 00 00 00	 call ?get@AnchorIndex@Document@Azuki@Sgry@@$$FQ$AAMHXZ
  000de	13 05		 stloc.s 5	; ancposi$

; 938  : 
; 939  : 				 if(ancposi > caretposi){

  000e0	11 05		 ldloc.s 5	; ancposi$
  000e2	11 04		 ldloc.s 4	; caretposi$
  000e4	31 08		 ble.s $LN10@tArea_Mous

; 940  : 						 int temp = caretposi;

  000e6	11 04		 ldloc.s 4	; caretposi$

; 941  : 						 caretposi = ancposi;

  000e8	11 05		 ldloc.s 5	; ancposi$
  000ea	13 04		 stloc.s 4	; caretposi$

; 942  : 						 ancposi = temp;

  000ec	13 05		 stloc.s 5	; ancposi$
$LN10@tArea_Mous:

; 943  : 				 }
; 944  : 
; 945  : 				 String^ text = azukiArea->Text;

  000ee	02		 ldarg.0 	; this$
  000ef	7b 00 00 00 00	 ldfld ?azukiArea@Form1@Mogitter@@3P$AAVAzukiControl@WinForms@Azuki@Sgry@@$AA
  000f4	6f 00 00 00 00	 callvirt ?get@Text@AzukiControl@WinForms@Azuki@Sgry@@$$FU$AAMP$AAVString@System@@XZ
  000f9	0c		 stloc.2 	; text$

; 946  : 				 text = text->Replace("\"{\"","@@@");

  000fa	08		 ldloc.2 	; text$
  000fb	72 00 00 00 00	 ldstr $StringLiteralTok$??_C@_17EKFANPAK@?$AA?$CC?$AA?$HL?$AA?$CC?$AA?$AA@
  00100	72 00 00 00 00	 ldstr $StringLiteralTok$??_C@_17CHAMLACK@?$AA?$EA?$AA?$EA?$AA?$EA?$AA?$AA@
  00105	28 00 00 00 00	 call ?Replace@String@System@@$$FQ$AAMP$AAV12@P$AAV12@0@Z
  0010a	0c		 stloc.2 	; text$

; 947  : 				 text = text->Replace("\"}\"","@@@");

  0010b	08		 ldloc.2 	; text$
  0010c	72 00 00 00 00	 ldstr $StringLiteralTok$??_C@_17JMAJDMBH@?$AA?$CC?$AA?$HN?$AA?$CC?$AA?$AA@
  00111	72 00 00 00 00	 ldstr $StringLiteralTok$??_C@_17CHAMLACK@?$AA?$EA?$AA?$EA?$AA?$EA?$AA?$AA@
  00116	28 00 00 00 00	 call ?Replace@String@System@@$$FQ$AAMP$AAV12@P$AAV12@0@Z
  0011b	0c		 stloc.2 	; text$

; 948  : 				 String^ before = text->Substring(0,ancposi);

  0011c	08		 ldloc.2 	; text$
  0011d	16		 ldc.i.0 0	; i32 0x0
  0011e	11 05		 ldloc.s 5	; ancposi$
  00120	28 00 00 00 00	 call ?Substring@String@System@@$$FQ$AAMP$AAV12@HH@Z
  00125	13 0a		 stloc.s 10	; before$

; 949  : 				 String^ after = text->Substring(caretposi,text->Length-caretposi);

  00127	08		 ldloc.2 	; text$
  00128	11 04		 ldloc.s 4	; caretposi$
  0012a	08		 ldloc.2 	; text$
  0012b	28 00 00 00 00	 call ?get@Length@String@System@@$$FQ$AAMHXZ
  00130	11 04		 ldloc.s 4	; caretposi$
  00132	59		 sub 
  00133	28 00 00 00 00	 call ?Substring@String@System@@$$FQ$AAMP$AAV12@HH@Z
  00138	0d		 stloc.3 	; after$

; 950  : 				 if(before->IndexOf("{") > before->IndexOf("}"))

  00139	11 0a		 ldloc.s 10	; before$
  0013b	72 00 00 00 00	 ldstr $StringLiteralTok$??_C@_13GCIFAHHO@?$AA?$HL?$AA?$AA@
  00140	28 00 00 00 00	 call ?IndexOf@String@System@@$$FQ$AAMHP$AAV12@@Z
  00145	11 0a		 ldloc.s 10	; before$
  00147	72 00 00 00 00	 ldstr $StringLiteralTok$??_C@_13EHOOFIKC@?$AA?$HN?$AA?$AA@
  0014c	28 00 00 00 00	 call ?IndexOf@String@System@@$$FQ$AAMHP$AAV12@@Z
  00151	30 03		 bgt.s $LN23@tArea_Mous
  00153	07		 ldloc.1 	; isOK$
  00154	2b 01		 br.s $LN24@tArea_Mous
$LN23@tArea_Mous:
  00156	16		 ldc.i.0 0	; u8 0x0
$LN24@tArea_Mous:
  00157	0b		 stloc.1 	; isOK$

; 951  : 						 isOK = false;
; 952  : 				 if(after->IndexOf("{")<0){

  00158	09		 ldloc.3 	; after$
  00159	72 00 00 00 00	 ldstr $StringLiteralTok$??_C@_13GCIFAHHO@?$AA?$HL?$AA?$AA@
  0015e	28 00 00 00 00	 call ?IndexOf@String@System@@$$FQ$AAMHP$AAV12@@Z
  00163	16		 ldc.i.0 0	; i32 0x0
  00164	2f 12		 bge.s $LN8@tArea_Mous

; 953  : 						 if(after->IndexOf("}") >=0)

  00166	09		 ldloc.3 	; after$
  00167	72 00 00 00 00	 ldstr $StringLiteralTok$??_C@_13EHOOFIKC@?$AA?$HN?$AA?$AA@
  0016c	28 00 00 00 00	 call ?IndexOf@String@System@@$$FQ$AAMHP$AAV12@@Z
  00171	16		 ldc.i.0 0	; i32 0x0
  00172	32 2f		 blt.s $LN4@tArea_Mous

; 954  : 								 isOK = false;

  00174	16		 ldc.i.0 0	; u8 0x0
  00175	0b		 stloc.1 	; isOK$

; 955  : 				 }else if(after->IndexOf("{") > after->IndexOf("}"))

  00176	2b 2b		 br.s $LN4@tArea_Mous
$LN8@tArea_Mous:
  00178	09		 ldloc.3 	; after$
  00179	72 00 00 00 00	 ldstr $StringLiteralTok$??_C@_13GCIFAHHO@?$AA?$HL?$AA?$AA@
  0017e	28 00 00 00 00	 call ?IndexOf@String@System@@$$FQ$AAMHP$AAV12@@Z
  00183	09		 ldloc.3 	; after$
  00184	72 00 00 00 00	 ldstr $StringLiteralTok$??_C@_13EHOOFIKC@?$AA?$HN?$AA?$AA@
  00189	28 00 00 00 00	 call ?IndexOf@String@System@@$$FQ$AAMHP$AAV12@@Z
  0018e	31 13		 ble.s $LN4@tArea_Mous

; 956  : 						 if(after->IndexOf("}") >=0)

  00190	09		 ldloc.3 	; after$
  00191	72 00 00 00 00	 ldstr $StringLiteralTok$??_C@_13EHOOFIKC@?$AA?$HN?$AA?$AA@
  00196	28 00 00 00 00	 call ?IndexOf@String@System@@$$FQ$AAMHP$AAV12@@Z
  0019b	16		 ldc.i.0 0	; i32 0x0
  0019c	2f 03		 bge.s $LN25@tArea_Mous
  0019e	07		 ldloc.1 	; isOK$
  0019f	2b 01		 br.s $LN26@tArea_Mous
$LN25@tArea_Mous:
  001a1	16		 ldc.i.0 0	; u8 0x0
$LN26@tArea_Mous:
  001a2	0b		 stloc.1 	; isOK$
$LN4@tArea_Mous:

; 957  : 						    	 isOK = false;
; 958  : 
; 959  : 				 if(sele->IndexOf("\n") >=0){

  001a3	06		 ldloc.0 	; sele$
  001a4	72 00 00 00 00	 ldstr $StringLiteralTok$??_C@_13LBAGMAIH@?$AA?6?$AA?$AA@
  001a9	28 00 00 00 00	 call ?IndexOf@String@System@@$$FQ$AAMHP$AAV12@@Z
  001ae	16		 ldc.i.0 0	; i32 0x0
  001af	32 09		 blt.s $LN3@tArea_Mous

; 960  : 						 isOK = false;

  001b1	16		 ldc.i.0 0	; u8 0x0
  001b2	0b		 stloc.1 	; isOK$

; 961  : 						 errMsg = "複数行を問題にはできません。";

  001b3	72 00 00 00 00	 ldstr $StringLiteralTok$??_C@_1BO@EJIMCDNP@?$IJ?$AHep?$IIL0?$JCUO?$JIL0k0o0g0M0?$HO0?$FL0?$JD0?$AC?$AA?$AA@
  001b8	13 08		 stloc.s 8	; errMsg$
$LN3@tArea_Mous:

; 962  : 				 }
; 963  : 
; 964  : 				 if(isOK){

  001ba	07		 ldloc.1 	; isOK$
  001bb	2c 1a		 brfalse.s $LN2@tArea_Mous

; 965  : 					QBuild^ exec = gcnew QBuild();

  001bd	73 00 00 00 00	 newobj ??0QBuild@Mogitter@@$$FQ$AAM@XZ
  001c2	13 09		 stloc.s 9	; exec$5

; 966  : 				    exec->beginSet(sele);

  001c4	11 09		 ldloc.s 9	; exec$5
  001c6	06		 ldloc.0 	; sele$
  001c7	28 00 00 00 00	 call ?beginSet@QBuild@Mogitter@@$$FQ$AAMXP$AAVString@System@@@Z

; 967  : 					QBuild_doing(exec,sele);

  001cc	02		 ldarg.0 	; this$
  001cd	11 09		 ldloc.s 9	; exec$5
  001cf	06		 ldloc.0 	; sele$
  001d0	28 00 00 00 00	 call ?QBuild_doing@Form1@Mogitter@@$$FA$AAMXP$AAVQBuild@2@P$AAVString@System@@@Z

; 968  : 				 }else{

  001d5	2b 21		 br.s $LN15@tArea_Mous
$LN2@tArea_Mous:

; 969  : 						MessageBox::Show(errMsg,"エラー",MessageBoxButtons::OK,MessageBoxIcon::Stop);

  001d7	11 08		 ldloc.s 8	; errMsg$
  001d9	72 00 00 00 00	 ldstr $StringLiteralTok$??_C@_17DDKHMHLO@0?$KI0?i0?$PM?$AA?$AA@
  001de	16		 ldc.i.0 0	; i32 0x0
  001df	1f 10		 ldc.i4.s 16	; i32 0x10
  001e1	28 00 00 00 00	 call ?Show@MessageBox@Forms@Windows@System@@$$FSM?AW4DialogResult@234@P$AAVString@4@0W4MessageBoxButtons@234@W4MessageBoxIcon@234@@Z
  001e6	26		 pop 

; 970  : 						azukiArea->Document->Replace(sele);

  001e7	02		 ldarg.0 	; this$
  001e8	7b 00 00 00 00	 ldfld ?azukiArea@Form1@Mogitter@@3P$AAVAzukiControl@WinForms@Azuki@Sgry@@$AA
  001ed	6f 00 00 00 00	 callvirt ?get@Document@AzukiControl@WinForms@Azuki@Sgry@@$$FU$AAMP$AAV145@XZ
  001f2	06		 ldloc.0 	; sele$
  001f3	28 00 00 00 00	 call ?Replace@Document@Azuki@Sgry@@$$FQ$AAMXP$AAVString@System@@@Z
$LN15@tArea_Mous:

; 971  : 				 }
; 972  : 			 }

  001f8	2a		 ret 
 .end ?tArea_MouseUp@Form1@Mogitter@@$$FA$AAMXP$AAVObject@System@@P$AAVMouseEventArgs@Forms@Windows@4@@Z ; Mogitter::Form1::tArea_MouseUp
;	.proc.end.void
; Function compile flags: /Ogsp
; File f:\meijin4\c++\mogitter\mogitter\form1.h
	.text
	.comdat	any, ?saveButton_Click@Form1@Mogitter@@$$FA$AAMXP$AAVObject@System@@P$AAVEventArgs@4@@Z
.global	?saveButton_Click@Form1@Mogitter@@$$FA$AAMXP$AAVObject@System@@P$AAVEventArgs@4@@Z ; Mogitter::Form1::saveButton_Click
?saveButton_Click@Form1@Mogitter@@$$FA$AAMXP$AAVObject@System@@P$AAVEventArgs@4@@Z: ; Mogitter::Form1::saveButton_Click
;	.proc.def	D:V(PP)

; Function Header:
; max stack depth = 3
; function size = 9 bytes
; local varsig tk = 0x0 
; Exception Information:
; 0 handlers, each consisting of filtered handlers

;	.formal.mptr 0,"this$" SIG: Optional C Binding Modifier(token:0x38BA05).class (token:0x38BA08)
;	.formal.mptr 2,"e$" SIG: class (token:0x3D1D1F5)
;	.formal.mptr 1,"sender$" SIG: Unknown COM+ Object Signature

;	.proc.beg

; 1040 : 			 over_writeMenuItem_Click(sender,e);

  0000b	02		 ldarg.0 	; this$
  0000c	03		 ldarg.1 	; sender$
  0000d	04		 ldarg.2 	; e$
  0000e	28 00 00 00 00	 call ?over_writeMenuItem_Click@Form1@Mogitter@@$$FA$AAMXP$AAVObject@System@@P$AAVEventArgs@4@@Z

; 1041 : 		 }

  00013	2a		 ret 
 .end ?saveButton_Click@Form1@Mogitter@@$$FA$AAMXP$AAVObject@System@@P$AAVEventArgs@4@@Z ; Mogitter::Form1::saveButton_Click
;	.proc.end.void
.global	
	.bss
.local	,4
.local	$StringLiteralTok$??_C@_15OBDENNPF@?$AA?W?$AA?5?$AA?$AA@,4
.local	$StringLiteralTok$??_C@_15JMABLPGB@?$CF?K?$AA?5?$AA?$AA@,4
.local	$T1,0
; Function compile flags: /Ogsp
; File f:\meijin4\c++\mogitter\mogitter\mogitest.h
	.text
	.comdat	any, ?timer1_Tick@MogiTest@Mogitter@@$$FA$AAMXP$AAVObject@System@@P$AAVEventArgs@4@@Z
.global	?timer1_Tick@MogiTest@Mogitter@@$$FA$AAMXP$AAVObject@System@@P$AAVEventArgs@4@@Z ; Mogitter::MogiTest::timer1_Tick
?timer1_Tick@MogiTest@Mogitter@@$$FA$AAMXP$AAVObject@System@@P$AAVEventArgs@4@@Z: ; Mogitter::MogiTest::timer1_Tick
;	.proc.def	D:V(PP)

; Function Header:
; max stack depth = 5
; function size = 359 bytes
; local varsig tk = 0x11000045 
; Exception Information:
; 0 handlers, each consisting of filtered handlers

;	.formal.mptr 0,"this$" SIG: Optional C Binding Modifier(token:0x3D121A5).class (token:0x3D121A8)
;	.local.mptr 4,"qm$2" SIG: class (token:0x3D0FBA5)
;	.local.i4 1,"i$" SIG: i4
;	.local.i4 0,"head$" SIG: i4
;	.local.i4 3,"len$" SIG: i4
;	.local.mptr 2,"line$" SIG: string
;	.local.i4 5,"$T3" SIG: i4

;	.proc.beg

; 930  : 				 if(countUp >= qCountField){

  0000b	02		 ldarg.0 	; this$
  0000c	7b 00 00 00 00	 ldfld ?countUp@MogiTest@Mogitter@@3HA
  00011	13 05		 stloc.s 5	; $T3
  00013	11 05		 ldloc.s 5	; $T3
  00015	02		 ldarg.0 	; this$
  00016	7b 00 00 00 00	 ldfld ?qCountField@MogiTest@Mogitter@@3HA
  0001b	32 2f		 blt.s $LN5@timer1_Tic

; 931  : 					 timer1->Stop();

  0001d	02		 ldarg.0 	; this$
  0001e	7b 00 00 00 00	 ldfld ?timer1@MogiTest@Mogitter@@3P$AAVTimer@Forms@Windows@System@@$AA
  00023	28 00 00 00 00	 call ?Stop@Timer@Forms@Windows@System@@$$FQ$AAMXXZ

; 932  : 					 //Debug::WriteLine(timer1->Enabled);
; 933  : 					 //MessageBox::Show(qCountField.ToString()+"問中"+score.ToString()+"問正解です!!","結果発表!!",MessageBoxButtons::OK,MessageBoxIcon::Information);
; 934  : 					 QMarking^ qm = gcnew QMarking();

  00028	73 00 00 00 00	 newobj ??0QMarking@Mogitter@@$$FQ$AAM@XZ
  0002d	13 04		 stloc.s 4	; qm$2

; 935  : 					 qm->Owner = this;

  0002f	11 04		 ldloc.s 4	; qm$2
  00031	02		 ldarg.0 	; this$
  00032	28 00 00 00 00	 call ?set@Owner@Form@Forms@Windows@System@@$$FQ$AAMXP$AAV2345@@Z

; 936  : 					 qm->Show();

  00037	11 04		 ldloc.s 4	; qm$2
  00039	28 00 00 00 00	 call ?Show@Control@Forms@Windows@System@@$$FQ$AAMXXZ

; 937  : 					 qm->markingX();

  0003e	11 04		 ldloc.s 4	; qm$2
  00040	28 00 00 00 00	 call ?markingX@QMarking@Mogitter@@$$FQ$AAMHXZ
  00045	26		 pop 

; 938  : 					 return;

  00046	38 27 01 00 00	 br $LN6@timer1_Tic
$LN5@timer1_Tic:

; 939  : 				 }
; 940  : 				 int i = countUp;

  0004c	11 05		 ldloc.s 5	; $T3
  0004e	0b		 stloc.1 	; i$

; 941  : 				 String^ all = userAnswerArea->Text;

  0004f	02		 ldarg.0 	; this$
  00050	7b 00 00 00 00	 ldfld ?userAnswerArea@MogiTest@Mogitter@@3P$AAVAzukiControl@WinForms@Azuki@Sgry@@$AA
  00055	6f 00 00 00 00	 callvirt ?get@Text@AzukiControl@WinForms@Azuki@Sgry@@$$FU$AAMP$AAVString@System@@XZ
  0005a	26		 pop 

; 942  : 				 int head = userAnswerArea->GetLineHeadIndex(i);

  0005b	02		 ldarg.0 	; this$
  0005c	7b 00 00 00 00	 ldfld ?userAnswerArea@MogiTest@Mogitter@@3P$AAVAzukiControl@WinForms@Azuki@Sgry@@$AA
  00061	07		 ldloc.1 	; i$
  00062	6f 00 00 00 00	 callvirt ?GetLineHeadIndex@AzukiControl@WinForms@Azuki@Sgry@@$$FU$AAMHH@Z
  00067	0a		 stloc.0 	; head$

; 943  : 				 int len = userAnswerArea->GetLineLength(i);

  00068	02		 ldarg.0 	; this$
  00069	7b 00 00 00 00	 ldfld ?userAnswerArea@MogiTest@Mogitter@@3P$AAVAzukiControl@WinForms@Azuki@Sgry@@$AA
  0006e	07		 ldloc.1 	; i$
  0006f	6f 00 00 00 00	 callvirt ?GetLineLength@AzukiControl@WinForms@Azuki@Sgry@@$$FU$AAMHH@Z
  00074	0d		 stloc.3 	; len$

; 944  : 				 String^ line = userAnswerArea->Text->Substring(head,len);

  00075	02		 ldarg.0 	; this$
  00076	7b 00 00 00 00	 ldfld ?userAnswerArea@MogiTest@Mogitter@@3P$AAVAzukiControl@WinForms@Azuki@Sgry@@$AA
  0007b	6f 00 00 00 00	 callvirt ?get@Text@AzukiControl@WinForms@Azuki@Sgry@@$$FU$AAMP$AAVString@System@@XZ
  00080	06		 ldloc.0 	; head$
  00081	09		 ldloc.3 	; len$
  00082	28 00 00 00 00	 call ?Substring@String@System@@$$FQ$AAMP$AAV12@HH@Z
  00087	0c		 stloc.2 	; line$

; 945  : 				 if(line->Trim()->Length <= 0) userAnswerArea->Document->Replace("× " + collects[i]+"  ",head,head);

  00088	08		 ldloc.2 	; line$
  00089	28 00 00 00 00	 call ?Trim@String@System@@$$FQ$AAMP$AAV12@XZ
  0008e	28 00 00 00 00	 call ?get@Length@String@System@@$$FQ$AAMHXZ
  00093	16		 ldc.i.0 0	; i32 0x0
  00094	30 33		 bgt.s $LN4@timer1_Tic
  00096	02		 ldarg.0 	; this$
  00097	7b 00 00 00 00	 ldfld ?userAnswerArea@MogiTest@Mogitter@@3P$AAVAzukiControl@WinForms@Azuki@Sgry@@$AA
  0009c	6f 00 00 00 00	 callvirt ?get@Document@AzukiControl@WinForms@Azuki@Sgry@@$$FU$AAMP$AAV145@XZ
  000a1	72 00 00 00 00	 ldstr $StringLiteralTok$??_C@_15OBDENNPF@?$AA?W?$AA?5?$AA?$AA@
  000a6	02		 ldarg.0 	; this$
  000a7	7b 00 00 00 00	 ldfld ?collects@MogiTest@Mogitter@@3P$01AP$AAVString@System@@A
  000ac	07		 ldloc.1 	; i$
  000ad	9a		 ldelem.ref 
  000ae	28 00 00 00 00	 call ?Concat@String@System@@$$FSMP$AAV12@P$AAV12@0@Z
  000b3	72 00 00 00 00	 ldstr $StringLiteralTok$??_C@_15OJKDPEFE@?$AA?5?$AA?5?$AA?$AA@
  000b8	28 00 00 00 00	 call ?Concat@String@System@@$$FSMP$AAV12@P$AAV12@0@Z
  000bd	06		 ldloc.0 	; head$
  000be	25		 dup 
  000bf	28 00 00 00 00	 call ?Replace@Document@Azuki@Sgry@@$$FQ$AAMXP$AAVString@System@@HH@Z
  000c4	38 80 00 00 00	 br $LN1@timer1_Tic
$LN4@timer1_Tic:

; 946  : 				 else if(collects[i] == answerStrings[i])

  000c9	02		 ldarg.0 	; this$
  000ca	7b 00 00 00 00	 ldfld ?collects@MogiTest@Mogitter@@3P$01AP$AAVString@System@@A
  000cf	07		 ldloc.1 	; i$
  000d0	9a		 ldelem.ref 
  000d1	02		 ldarg.0 	; this$
  000d2	7b 00 00 00 00	 ldfld ?answerStrings@MogiTest@Mogitter@@3P$AAV?$List@P$AAVString@System@@@Generic@Collections@System@@$AA
  000d7	07		 ldloc.1 	; i$
  000d8	6f 00 00 00 00	 callvirt ?get@default@?$List@P$AAVString@System@@@Generic@Collections@System@@$$FU$AAMP$AAVString@5@H@Z
  000dd	28 00 00 00 00	 call ??8String@System@@$$FSM_NP$AAV01@0@Z
  000e2	2c 2f		 brfalse.s $LN2@timer1_Tic

; 947  : 				 {
; 948  : 					 //userAnswerArea->Text = all->Replace(line,"○ "+line);
; 949  : 					 userAnswerArea->Document->Replace("○ "+line,head,head+len);

  000e4	02		 ldarg.0 	; this$
  000e5	7b 00 00 00 00	 ldfld ?userAnswerArea@MogiTest@Mogitter@@3P$AAVAzukiControl@WinForms@Azuki@Sgry@@$AA
  000ea	6f 00 00 00 00	 callvirt ?get@Document@AzukiControl@WinForms@Azuki@Sgry@@$$FU$AAMP$AAV145@XZ
  000ef	72 00 00 00 00	 ldstr $StringLiteralTok$??_C@_15JMABLPGB@?$CF?K?$AA?5?$AA?$AA@
  000f4	08		 ldloc.2 	; line$
  000f5	28 00 00 00 00	 call ?Concat@String@System@@$$FSMP$AAV12@P$AAV12@0@Z
  000fa	06		 ldloc.0 	; head$
  000fb	09		 ldloc.3 	; len$
  000fc	06		 ldloc.0 	; head$
  000fd	58		 add 
  000fe	28 00 00 00 00	 call ?Replace@Document@Azuki@Sgry@@$$FQ$AAMXP$AAVString@System@@HH@Z

; 950  : 					 score++;

  00103	02		 ldarg.0 	; this$
  00104	25		 dup 
  00105	7b 00 00 00 00	 ldfld ?score@MogiTest@Mogitter@@3HA
  0010a	17		 ldc.i.1 1	; i32 0x1
  0010b	58		 add 
  0010c	7d 00 00 00 00	 stfld ?score@MogiTest@Mogitter@@3HA

; 951  : 				 }
; 952  : 				 else

  00111	2b 36		 br.s $LN1@timer1_Tic
$LN2@timer1_Tic:

; 953  : 				 {
; 954  : //					 array<String^>^ batsu = {"×"};
; 955  : //	      			 marubatsu->AddKeywordSet(maru,Sgry::Azuki::CharClass::Function);
; 956  : 					 //userAnswerArea->Text = all->Replace(line,"× "+line);
; 957  : 					 userAnswerArea->Document->Replace("× " + collects[i] + "  "+line,head,head+len);

  00113	02		 ldarg.0 	; this$
  00114	7b 00 00 00 00	 ldfld ?userAnswerArea@MogiTest@Mogitter@@3P$AAVAzukiControl@WinForms@Azuki@Sgry@@$AA
  00119	6f 00 00 00 00	 callvirt ?get@Document@AzukiControl@WinForms@Azuki@Sgry@@$$FU$AAMP$AAV145@XZ
  0011e	72 00 00 00 00	 ldstr $StringLiteralTok$??_C@_15OBDENNPF@?$AA?W?$AA?5?$AA?$AA@
  00123	02		 ldarg.0 	; this$
  00124	7b 00 00 00 00	 ldfld ?collects@MogiTest@Mogitter@@3P$01AP$AAVString@System@@A
  00129	07		 ldloc.1 	; i$
  0012a	9a		 ldelem.ref 
  0012b	28 00 00 00 00	 call ?Concat@String@System@@$$FSMP$AAV12@P$AAV12@0@Z
  00130	72 00 00 00 00	 ldstr $StringLiteralTok$??_C@_15OJKDPEFE@?$AA?5?$AA?5?$AA?$AA@
  00135	28 00 00 00 00	 call ?Concat@String@System@@$$FSMP$AAV12@P$AAV12@0@Z
  0013a	08		 ldloc.2 	; line$
  0013b	28 00 00 00 00	 call ?Concat@String@System@@$$FSMP$AAV12@P$AAV12@0@Z
  00140	06		 ldloc.0 	; head$
  00141	09		 ldloc.3 	; len$
  00142	06		 ldloc.0 	; head$
  00143	58		 add 
  00144	28 00 00 00 00	 call ?Replace@Document@Azuki@Sgry@@$$FQ$AAMXP$AAVString@System@@HH@Z
$LN1@timer1_Tic:

; 958  : 				 }
; 959  : 				 userAnswerArea->Highlighter->Highlight(userAnswerArea->Document);

  00149	02		 ldarg.0 	; this$
  0014a	7b 00 00 00 00	 ldfld ?userAnswerArea@MogiTest@Mogitter@@3P$AAVAzukiControl@WinForms@Azuki@Sgry@@$AA
  0014f	6f 00 00 00 00	 callvirt ?get@Highlighter@AzukiControl@WinForms@Azuki@Sgry@@$$FU$AAMP$AAUIHighlighter@145@XZ
  00154	02		 ldarg.0 	; this$
  00155	7b 00 00 00 00	 ldfld ?userAnswerArea@MogiTest@Mogitter@@3P$AAVAzukiControl@WinForms@Azuki@Sgry@@$AA
  0015a	6f 00 00 00 00	 callvirt ?get@Document@AzukiControl@WinForms@Azuki@Sgry@@$$FU$AAMP$AAV145@XZ
  0015f	6f 00 00 00 00	 callvirt ?Highlight@IHighlighter@Highlighter@Azuki@Sgry@@$$FU$AAMXP$AAVDocument@34@@Z

; 960  : //				 userAnswerArea->Update();
; 961  : 				 countUp++;

  00164	02		 ldarg.0 	; this$
  00165	25		 dup 
  00166	7b 00 00 00 00	 ldfld ?countUp@MogiTest@Mogitter@@3HA
  0016b	17		 ldc.i.1 1	; i32 0x1
  0016c	58		 add 
  0016d	7d 00 00 00 00	 stfld ?countUp@MogiTest@Mogitter@@3HA
$LN6@timer1_Tic:

; 962  : 			 }

  00172	2a		 ret 
 .end ?timer1_Tick@MogiTest@Mogitter@@$$FA$AAMXP$AAVObject@System@@P$AAVEventArgs@4@@Z ; Mogitter::MogiTest::timer1_Tick
;	.proc.end.void
.global	
.global	?components@MogiTest@Mogitter@@3P$AAUIContainer@ComponentModel@System@@$AA ; Mogitter::MogiTest::components
.global	?time_limit@MogiTest@Mogitter@@3P$AAVLabel@Forms@Windows@System@@$AA ; Mogitter::MogiTest::time_limit
.global	?label2@MogiTest@Mogitter@@3P$AAVLabel@Forms@Windows@System@@$AA ; Mogitter::MogiTest::label2
.global	?label3@MogiTest@Mogitter@@3P$AAVLabel@Forms@Windows@System@@$AA ; Mogitter::MogiTest::label3
.global	?label4@MogiTest@Mogitter@@3P$AAVLabel@Forms@Windows@System@@$AA ; Mogitter::MogiTest::label4
.global	?label5@MogiTest@Mogitter@@3P$AAVLabel@Forms@Windows@System@@$AA ; Mogitter::MogiTest::label5
.global	?marutsukeButton@MogiTest@Mogitter@@3P$AAVButton@Forms@Windows@System@@$AA ; Mogitter::MogiTest::marutsukeButton
.global	?menuStrip1@MogiTest@Mogitter@@3P$AAVMenuStrip@Forms@Windows@System@@$AA ; Mogitter::MogiTest::menuStrip1
.global	?FileMenuItem@MogiTest@Mogitter@@3P$AAVToolStripMenuItem@Forms@Windows@System@@$AA ; Mogitter::MogiTest::FileMenuItem
.global	?openMenuItem@MogiTest@Mogitter@@3P$AAVToolStripMenuItem@Forms@Windows@System@@$AA ; Mogitter::MogiTest::openMenuItem
.global	?toolStripSeparator@MogiTest@Mogitter@@3P$AAVToolStripSeparator@Forms@Windows@System@@$AA ; Mogitter::MogiTest::toolStripSeparator
.global	?exportMenuItem@MogiTest@Mogitter@@3P$AAVToolStripMenuItem@Forms@Windows@System@@$AA ; Mogitter::MogiTest::exportMenuItem
.global	?toolStripSeparator1@MogiTest@Mogitter@@3P$AAVToolStripSeparator@Forms@Windows@System@@$AA ; Mogitter::MogiTest::toolStripSeparator1
.global	?endMenuItem@MogiTest@Mogitter@@3P$AAVToolStripMenuItem@Forms@Windows@System@@$AA ; Mogitter::MogiTest::endMenuItem
.global	?ToolMenuItem@MogiTest@Mogitter@@3P$AAVToolStripMenuItem@Forms@Windows@System@@$AA ; Mogitter::MogiTest::ToolMenuItem
.global	?optionMenuItem@MogiTest@Mogitter@@3P$AAVToolStripMenuItem@Forms@Windows@System@@$AA ; Mogitter::MogiTest::optionMenuItem
.global	?HelpMenu@MogiTest@Mogitter@@3P$AAVToolStripMenuItem@Forms@Windows@System@@$AA ; Mogitter::MogiTest::HelpMenu
.global	?helpMenuItem@MogiTest@Mogitter@@3P$AAVToolStripMenuItem@Forms@Windows@System@@$AA ; Mogitter::MogiTest::helpMenuItem
.global	?splitContainer1@MogiTest@Mogitter@@3P$AAVSplitContainer@Forms@Windows@System@@$AA ; Mogitter::MogiTest::splitContainer1
.global	?panel1@MogiTest@Mogitter@@3P$AAVPanel@Forms@Windows@System@@$AA ; Mogitter::MogiTest::panel1
	.bss
.local	,4
.local	?components@MogiTest@Mogitter@@3P$AAUIContainer@ComponentModel@System@@$AA,4 ; Mogitter::MogiTest::components
.local	$TypeTok$1168B948$,4
.local	?time_limit@MogiTest@Mogitter@@3P$AAVLabel@Forms@Windows@System@@$AA,4 ; Mogitter::MogiTest::time_limit
.local	?label2@MogiTest@Mogitter@@3P$AAVLabel@Forms@Windows@System@@$AA,4 ; Mogitter::MogiTest::label2
.local	?label3@MogiTest@Mogitter@@3P$AAVLabel@Forms@Windows@System@@$AA,4 ; Mogitter::MogiTest::label3
.local	?label4@MogiTest@Mogitter@@3P$AAVLabel@Forms@Windows@System@@$AA,4 ; Mogitter::MogiTest::label4
.local	?label5@MogiTest@Mogitter@@3P$AAVLabel@Forms@Windows@System@@$AA,4 ; Mogitter::MogiTest::label5
.local	?marutsukeButton@MogiTest@Mogitter@@3P$AAVButton@Forms@Windows@System@@$AA,4 ; Mogitter::MogiTest::marutsukeButton
.local	?menuStrip1@MogiTest@Mogitter@@3P$AAVMenuStrip@Forms@Windows@System@@$AA,4 ; Mogitter::MogiTest::menuStrip1
.local	?FileMenuItem@MogiTest@Mogitter@@3P$AAVToolStripMenuItem@Forms@Windows@System@@$AA,4 ; Mogitter::MogiTest::FileMenuItem
.local	?openMenuItem@MogiTest@Mogitter@@3P$AAVToolStripMenuItem@Forms@Windows@System@@$AA,4 ; Mogitter::MogiTest::openMenuItem
.local	?toolStripSeparator@MogiTest@Mogitter@@3P$AAVToolStripSeparator@Forms@Windows@System@@$AA,4 ; Mogitter::MogiTest::toolStripSeparator
.local	?exportMenuItem@MogiTest@Mogitter@@3P$AAVToolStripMenuItem@Forms@Windows@System@@$AA,4 ; Mogitter::MogiTest::exportMenuItem
.local	?toolStripSeparator1@MogiTest@Mogitter@@3P$AAVToolStripSeparator@Forms@Windows@System@@$AA,4 ; Mogitter::MogiTest::toolStripSeparator1
.local	?endMenuItem@MogiTest@Mogitter@@3P$AAVToolStripMenuItem@Forms@Windows@System@@$AA,4 ; Mogitter::MogiTest::endMenuItem
.local	?ToolMenuItem@MogiTest@Mogitter@@3P$AAVToolStripMenuItem@Forms@Windows@System@@$AA,4 ; Mogitter::MogiTest::ToolMenuItem
.local	?optionMenuItem@MogiTest@Mogitter@@3P$AAVToolStripMenuItem@Forms@Windows@System@@$AA,4 ; Mogitter::MogiTest::optionMenuItem
.local	?HelpMenu@MogiTest@Mogitter@@3P$AAVToolStripMenuItem@Forms@Windows@System@@$AA,4 ; Mogitter::MogiTest::HelpMenu
.local	?helpMenuItem@MogiTest@Mogitter@@3P$AAVToolStripMenuItem@Forms@Windows@System@@$AA,4 ; Mogitter::MogiTest::helpMenuItem
.local	?splitContainer1@MogiTest@Mogitter@@3P$AAVSplitContainer@Forms@Windows@System@@$AA,4 ; Mogitter::MogiTest::splitContainer1
.local	?panel1@MogiTest@Mogitter@@3P$AAVPanel@Forms@Windows@System@@$AA,4 ; Mogitter::MogiTest::panel1
.local	$StringLiteralTok$??_C@_1BG@JBOMMBPC@?$AAt?$AAi?$AAm?$AAe?$AA_?$AAl?$AAi?$AAm?$AAi?$AAt?$AA?$AA@,4
.local	$StringLiteralTok$??_C@_1BG@PEJMBMAE@R6?$JGPfB?$JF?$JD0o0B0?$IK0?$HO0?$FL0?$JD?$AA?$AA@,4
.local	$StringLiteralTok$??_C@_1BM@GKBLIADK@?$AAQ?$AAu?$AAe?$AAs?$AAt?$AAS?$AAe?$AAn?$AAt?$AAe?$AAn?$AAc?$AAe?$AA?$AA@,4
.local	$StringLiteralTok$??_C@_1O@BOAFODNB@?$IJ?c?$HLT?$IIhy?3k?$AE?$PP?$BK?$AA?$AA@,4
.local	$StringLiteralTok$??_C@_19EACNNBA@UO?$JILujS?w?$AA?$AA@,4
.local	$StringLiteralTok$??_C@_1BI@FMKKAMPO@?$AAa?$AAn?$AAa?$AAu?$AAm?$AAe?$AAG?$AAr?$AAo?$AAu?$AAp?$AA?$AA@,4
.local	$StringLiteralTok$??_C@_1M@DCEKIGFM@ztW?K0?$IBUO?$JIL?$AA?$AA@,4
.local	$StringLiteralTok$??_C@_1BK@JMMIDEEG@?$AAa?$AAn?$AAa?$AAu?$AAm?$AAe?$AAA?$AAn?$AAs?$AAB?$AAo?$AAx?$AA?$AA@,4
.local	$StringLiteralTok$??_C@_19DJGCBNBL@?$JAxb?$JOUO?$JIL?$AA?$AA@,4
.local	$StringLiteralTok$??_C@_1CA@OPLIGOPG@?$AAs?$AAe?$AAn?$AAt?$AAa?$AAk?$AAu?$AAs?$AAh?$AAi?$AAC?$AAo?$AAm?$AAb?$AAo?$AA?$AA@,4
.local	$StringLiteralTok$??_C@_1O@CJENLHNH@?$AAH?$AAG?$AAP?$IILf?xOS?$AA?$AA@,4
.local	$StringLiteralTok$??_C@_1CM@HJFNPIEN@?$AAm?$AAa?$AAr?$AAu?$AAt?$AAs?$AAu?$AAk?$AAe?$AAB?$AAu?$AAt?$AAt?$AAo?$AAn?$AA?4?$AAI?$AAm?$AAa?$AAg?$AAe?$AA?$AA@,4
.local	$StringLiteralTok$??_C@_1CA@CIJHGILD@?$AAm?$AAa?$AAr?$AAu?$AAt?$AAs?$AAu?$AAk?$AAe?$AAB?$AAu?$AAt?$AAt?$AAo?$AAn?$AA?$AA@,4
.local	$StringLiteralTok$??_C@_15HGGEPIMK@c?$KBp?$LJ?$AA?$AA@,4
.local	$TypeTok$116E771C$,4
.local	$StringLiteralTok$??_C@_1BG@LKBBJCPC@?$AAm?$AAe?$AAn?$AAu?$AAS?$AAt?$AAr?$AAi?$AAp?$AA1?$AA?$AA@,4
.local	$StringLiteralTok$??_C@_1BK@KJNJEDGP@?$AAF?$AAi?$AAl?$AAe?$AAM?$AAe?$AAn?$AAu?$AAI?$AAt?$AAe?$AAm?$AA?$AA@,4
.local	$StringLiteralTok$??_C@_1BC@HAKDKOCG@0?U0?$KB0?$KE0?k?$AA?$CI?$AA?$CG?$AAF?$AA?$CJ?$AA?$AA@,4
.local	$StringLiteralTok$??_C@_1BK@CEGCIHOJ@?$AAo?$AAp?$AAe?$AAn?$AAM?$AAe?$AAn?$AAu?$AAI?$AAt?$AAe?$AAm?$AA?$AA@,4
.local	$StringLiteralTok$??_C@_1O@MBHHHBIM@?$JF?$IL0O?$AA?$CI?$AA?$CG?$AAO?$AA?$CJ?$AA?$AA@,4
.local	$StringLiteralTok$??_C@_1CG@CLECPKCF@?$AAt?$AAo?$AAo?$AAl?$AAS?$AAt?$AAr?$AAi?$AAp?$AAS?$AAe?$AAp?$AAa?$AAr?$AAa?$AAt?$AAo?$AAr?$AA?$AA@,4
.local	$StringLiteralTok$??_C@_1BO@DCHLDNNP@?$AAe?$AAx?$AAp?$AAo?$AAr?$AAt?$AAM?$AAe?$AAn?$AAu?$AAI?$AAt?$AAe?$AAm?$AA?$AA@,4
.local	$StringLiteralTok$??_C@_1BK@LNCMEKJH@T?$ANRM0?$JCN?X0Q0fO?$NN?$FLX?$AA?$CI?$AA?$CG?$AAA?$AA?$CJ?$AA?$AA@,4
.local	$StringLiteralTok$??_C@_1CI@PNAMHPGD@?$AAt?$AAo?$AAo?$AAl?$AAS?$AAt?$AAr?$AAi?$AAp?$AAS?$AAe?$AAp?$AAa?$AAr?$AAa?$AAt?$AAo?$AAr?$AA1?$AA?$AA@,4
.local	$StringLiteralTok$??_C@_1BI@KOMMNNMI@?$AAe?$AAn?$AAd?$AAM?$AAe?$AAn?$AAu?$AAI?$AAt?$AAe?$AAm?$AA?$AA@,4
.local	$StringLiteralTok$??_C@_1O@CGPLBDKM@?$HNBN?$IG?$AA?$CI?$AA?$CG?$AAX?$AA?$CJ?$AA?$AA@,4
.local	$StringLiteralTok$??_C@_1BK@GHDIEBJM@?$AAT?$AAo?$AAo?$AAl?$AAM?$AAe?$AAn?$AAu?$AAI?$AAt?$AAe?$AAm?$AA?$AA@,4
.local	$StringLiteralTok$??_C@_1BA@FBKAMAN@0?D0?$PM0?k?$AA?$CI?$AA?$CG?$AAT?$AA?$CJ?$AA?$AA@,4
.local	$StringLiteralTok$??_C@_1BO@JCEFJDC@?$AAo?$AAp?$AAt?$AAi?$AAo?$AAn?$AAM?$AAe?$AAn?$AAu?$AAI?$AAt?$AAe?$AAm?$AA?$AA@,4
.local	$StringLiteralTok$??_C@_1BE@KLBCCDPI@0?$KK0?W0?$LH0?g0?s?$AA?$CI?$AA?$CG?$AAO?$AA?$CJ?$AA?$AA@,4
.local	$StringLiteralTok$??_C@_1BC@GJBCDNPE@?$AAH?$AAe?$AAl?$AAp?$AAM?$AAe?$AAn?$AAu?$AA?$AA@,4
.local	$StringLiteralTok$??_C@_1BA@CCFHMOJC@0?X0?k0?W?$AA?$CI?$AA?$CG?$AAH?$AA?$CJ?$AA?$AA@,4
.local	$StringLiteralTok$??_C@_1BK@DMLMNKAI@?$AAh?$AAe?$AAl?$AAp?$AAM?$AAe?$AAn?$AAu?$AAI?$AAt?$AAe?$AAm?$AA?$AA@,4
.local	$StringLiteralTok$??_C@_1O@HIDFGANF@Q?$IF?$FL?$LJ?$AA?$CI?$AA?$CG?$AAC?$AA?$CJ?$AA?$AA@,4
.local	$StringLiteralTok$??_C@_1BG@MGHIBONJ@?$AAQ?$AAN?$AAu?$AAm?$AAU?$AAp?$AAD?$AAo?$AAw?$AAn?$AA?$AA@,4
.local	$StringLiteralTok$??_C@_1O@IPAAHFDB@?$AAH?$AAG?$AASf?$AOg?$BN?$AAE?$AA?$AA@,4
.local	$StringLiteralTok$??_C@_1BO@GPDKIKPE@?$AAu?$AAs?$AAe?$AAr?$AAA?$AAn?$AAs?$AAw?$AAe?$AAr?$AAA?$AAr?$AAe?$AAa?$AA?$AA@,4
.local	$StringLiteralTok$??_C@_1CA@DLBIODHN@?$AAs?$AAp?$AAl?$AAi?$AAt?$AAC?$AAo?$AAn?$AAt?$AAa?$AAi?$AAn?$AAe?$AAr?$AA1?$AA?$AA@,4
.local	$StringLiteralTok$??_C@_1BC@HLJNNGLN@?$AAM?$AAo?$AAg?$AAi?$AAT?$AAe?$AAs?$AAt?$AA?$AA@,4
.local	$T1,0
; Function compile flags: /Ogsp
; File f:\meijin4\c++\mogitter\mogitter\mogitest.h
	.text
	.comdat	any, ?InitializeComponent@MogiTest@Mogitter@@$$FA$AAMXXZ
.global	?InitializeComponent@MogiTest@Mogitter@@$$FA$AAMXXZ ; Mogitter::MogiTest::InitializeComponent
?InitializeComponent@MogiTest@Mogitter@@$$FA$AAMXXZ:	; Mogitter::MogiTest::InitializeComponent
;	.proc.def	D:V()

; Function Header:
; max stack depth = 6
; function size = 5334 bytes
; local varsig tk = 0x11000047 
; Exception Information:
; 0 handlers, each consisting of filtered handlers

;	.formal.mptr 0,"this$" SIG: Optional C Binding Modifier(token:0x3D121A5).class (token:0x3D121A8)
;	.local.mptr 6,"fontInfo1$" SIG: class (token:0x3D1E795)
;	.local.mptr 9,"resources$" SIG: class (token:0x3D1E79D)
;	.local.mptr 5,"fontInfo2$" SIG: class (token:0x3D1E795)
;	.local.mb8   69,"$S65$" SIG: valueType (token:0x3D1E7B5)
;	.local.mb8   68,"$S66$" SIG: valueType (token:0x3D1E7AD)
;	.local.mb20  67,"$T2" SIG: valueType (token:0x3D28D25)
;	.local.mb20  66,"$T3" SIG: valueType (token:0x3D28D25)
;	.local.mb8   65,"$S67$" SIG: valueType (token:0x3D1E7B5)
;	.local.mb8   64,"$S68$" SIG: valueType (token:0x3D1E7B5)
;	.local.mb8   63,"$S69$" SIG: valueType (token:0x3D1E7AD)
;	.local.mb8   62,"$S70$" SIG: valueType (token:0x3D1E7B5)
;	.local.mb8   61,"$S71$" SIG: valueType (token:0x3D1E7AD)
;	.local.mb8   60,"$S72$" SIG: valueType (token:0x3D1E7B5)
;	.local.mb8   59,"$S73$" SIG: valueType (token:0x3D1E7AD)
;	.local.mb8   58,"$S74$" SIG: valueType (token:0x3D1E7B5)
;	.local.mb8   57,"$S75$" SIG: valueType (token:0x3D1E7AD)
;	.local.mb8   56,"$S76$" SIG: valueType (token:0x3D1E7B5)
;	.local.mb8   55,"$S77$" SIG: valueType (token:0x3D1E7AD)
;	.local.mb8   54,"$S78$" SIG: valueType (token:0x3D1E7B5)
;	.local.mb8   53,"$S79$" SIG: valueType (token:0x3D1E7AD)
;	.local.mb20  52,"$T4" SIG: valueType (token:0x3D28D25)
;	.local.mb8   51,"$S80$" SIG: valueType (token:0x3D1E7B5)
;	.local.mb8   50,"$S81$" SIG: valueType (token:0x3D1E7AD)
;	.local.mb8   49,"$S82$" SIG: valueType (token:0x3D1E7B5)
;	.local.mb8   48,"$S83$" SIG: valueType (token:0x3D1E7AD)
;	.local.mb8   47,"$S84$" SIG: valueType (token:0x3D1E7B5)
;	.local.mb8   46,"$S85$" SIG: valueType (token:0x3D1E7AD)
;	.local.mb20  45,"$T5" SIG: valueType (token:0x3D28D25)
;	.local.mb20  44,"$T6" SIG: valueType (token:0x3D28D25)
;	.local.mb8   43,"$S86$" SIG: valueType (token:0x3D1E7B5)
;	.local.mb8   42,"$S87$" SIG: valueType (token:0x3D1E7AD)
;	.local.mptr 4,"$S88$" SIG: szarray (token:0x3D1E7A5)
;	.local.mb8   41,"$S89$" SIG: valueType (token:0x3D1E7B5)
;	.local.mb8   40,"$S90$" SIG: valueType (token:0x3D1E7AD)
;	.local.mptr 0,"$S91$" SIG: szarray (token:0x3D1E7A5)
;	.local.mb8   39,"$S92$" SIG: valueType (token:0x3D1E7AD)
;	.local.mb20  38,"$T7" SIG: valueType (token:0x3D28D25)
;	.local.mb8   37,"$S93$" SIG: valueType (token:0x3D1E7AD)
;	.local.mb8   36,"$S94$" SIG: valueType (token:0x3D1E7AD)
;	.local.mb8   35,"$S95$" SIG: valueType (token:0x3D1E7AD)
;	.local.mb8   34,"$S96$" SIG: valueType (token:0x3D1E7AD)
;	.local.mb8   33,"$S97$" SIG: valueType (token:0x3D1E7AD)
;	.local.mptr 8,"$S98$" SIG: szarray (token:0x3D1E7A5)
;	.local.mb8   32,"$S99$" SIG: valueType (token:0x3D1E7AD)
;	.local.mb8   31,"$S100$" SIG: valueType (token:0x3D1E7AD)
;	.local.mptr 7,"$S101$" SIG: szarray (token:0x3D1E7A5)
;	.local.mb8   30,"$S102$" SIG: valueType (token:0x3D1E7AD)
;	.local.mb8   29,"$S103$" SIG: valueType (token:0x3D1E7AD)
;	.local.mb20  28,"$T8" SIG: valueType (token:0x3D28D25)
;	.local.mb8   27,"$S104$" SIG: valueType (token:0x3D1E7B5)
;	.local.mptr 3,"$S105$" SIG: szarray (token:0x3D1EB2D)
;	.local.mb16  26,"$T9" SIG: valueType (token:0x3D226AD)
;	.local.mptr 2,"$S106$" SIG: szarray (token:0x3D1EB2D)
;	.local.mb16  25,"$T10" SIG: valueType (token:0x3D226AD)
;	.local.mb8   24,"$S107$" SIG: valueType (token:0x3D1E7AD)
;	.local.mptr 1,"$S108$" SIG: szarray (token:0x3D1EB2D)
;	.local.mb16  23,"$T11" SIG: valueType (token:0x3D226AD)
;	.local.mb20  22,"$T12" SIG: valueType (token:0x3D28D25)
;	.local.mb20  21,"$T13" SIG: valueType (token:0x3D28D25)
;	.local.mb8   20,"$S109$" SIG: valueType (token:0x3D1E7B5)
;	.local.mb8   19,"$S110$" SIG: valueType (token:0x3D1E7B5)
;	.local.mb8   18,"$S111$" SIG: valueType (token:0x3D1E7AD)
;	.local.mb8   17,"$S112$" SIG: valueType (token:0x3D1E7B5)
;	.local.mb20  16,"$T14" SIG: valueType (token:0x3D1037D)
;	.local.mb8   15,"$S113$" SIG: valueType (token:0x3D1E7AD)
;	.local.mb20  14,"$T15" SIG: valueType (token:0x3D28D25)
;	.local.mb8   13,"$S114$" SIG: valueType (token:0x3D1E7B5)
;	.local.mb8   12,"$S115$" SIG: valueType (token:0x3D1E7AD)
;	.local.mb8   11,"$S116$" SIG: valueType (token:0x3D1EBAD)
;	.local.mb8   10,"$S117$" SIG: valueType (token:0x3D1E7AD)

;	.proc.beg

; 138  : 			this->components = (gcnew System::ComponentModel::Container());

  0000b	02		 ldarg.0 	; this$
  0000c	73 00 00 00 00	 newobj ??0Container@ComponentModel@System@@$$FQ$AAM@XZ
  00011	7d 00 00 00 00	 stfld ?components@MogiTest@Mogitter@@3P$AAUIContainer@ComponentModel@System@@$AA

; 139  : 			Sgry::Azuki::FontInfo^  fontInfo1 = (gcnew Sgry::Azuki::FontInfo());

  00016	73 00 00 00 00	 newobj ??0FontInfo@Azuki@Sgry@@$$FQ$AAM@XZ
  0001b	13 06		 stloc.s 6	; fontInfo1$

; 140  : 			System::ComponentModel::ComponentResourceManager^  resources = (gcnew System::ComponentModel::ComponentResourceManager(MogiTest::typeid));

  0001d	d0 00 00 00 00	 ldtoken $TypeTok$1168B948$
  00022	28 00 00 00 00	 call ?GetTypeFromHandle@Type@System@@$$FSMP$AAV12@VRuntimeTypeHandle@2@@Z
  00027	73 00 00 00 00	 newobj ??0ComponentResourceManager@ComponentModel@System@@$$FQ$AAM@P$AAVType@2@@Z
  0002c	13 09		 stloc.s 9	; resources$

; 141  : 			Sgry::Azuki::FontInfo^  fontInfo2 = (gcnew Sgry::Azuki::FontInfo());

  0002e	73 00 00 00 00	 newobj ??0FontInfo@Azuki@Sgry@@$$FQ$AAM@XZ
  00033	13 05		 stloc.s 5	; fontInfo2$

; 142  : 			this->time_limit = (gcnew System::Windows::Forms::Label());

  00035	02		 ldarg.0 	; this$
  00036	73 00 00 00 00	 newobj ??0Label@Forms@Windows@System@@$$FQ$AAM@XZ
  0003b	7d 00 00 00 00	 stfld ?time_limit@MogiTest@Mogitter@@3P$AAVLabel@Forms@Windows@System@@$AA

; 143  : 			this->QuestSentence = (gcnew Sgry::Azuki::WinForms::AzukiControl());

  00040	02		 ldarg.0 	; this$
  00041	73 00 00 00 00	 newobj ??0AzukiControl@WinForms@Azuki@Sgry@@$$FQ$AAM@XZ
  00046	7d 00 00 00 00	 stfld ?QuestSentence@MogiTest@Mogitter@@3P$AAVAzukiControl@WinForms@Azuki@Sgry@@$AA

; 144  : 			this->label2 = (gcnew System::Windows::Forms::Label());

  0004b	02		 ldarg.0 	; this$
  0004c	73 00 00 00 00	 newobj ??0Label@Forms@Windows@System@@$$FQ$AAM@XZ
  00051	7d 00 00 00 00	 stfld ?label2@MogiTest@Mogitter@@3P$AAVLabel@Forms@Windows@System@@$AA

; 145  : 			this->label3 = (gcnew System::Windows::Forms::Label());

  00056	02		 ldarg.0 	; this$
  00057	73 00 00 00 00	 newobj ??0Label@Forms@Windows@System@@$$FQ$AAM@XZ
  0005c	7d 00 00 00 00	 stfld ?label3@MogiTest@Mogitter@@3P$AAVLabel@Forms@Windows@System@@$AA

; 146  : 			this->anaumeGroup = (gcnew System::Windows::Forms::GroupBox());

  00061	02		 ldarg.0 	; this$
  00062	73 00 00 00 00	 newobj ??0GroupBox@Forms@Windows@System@@$$FQ$AAM@XZ
  00067	7d 00 00 00 00	 stfld ?anaumeGroup@MogiTest@Mogitter@@3P$AAVGroupBox@Forms@Windows@System@@$AA

; 147  : 			this->anaumeAnsBox = (gcnew System::Windows::Forms::RichTextBox());

  0006c	02		 ldarg.0 	; this$
  0006d	73 00 00 00 00	 newobj ??0RichTextBox@Forms@Windows@System@@$$FQ$AAM@XZ
  00072	7d 00 00 00 00	 stfld ?anaumeAnsBox@MogiTest@Mogitter@@3P$AAVRichTextBox@Forms@Windows@System@@$AA

; 148  : 			this->label4 = (gcnew System::Windows::Forms::Label());

  00077	02		 ldarg.0 	; this$
  00078	73 00 00 00 00	 newobj ??0Label@Forms@Windows@System@@$$FQ$AAM@XZ
  0007d	7d 00 00 00 00	 stfld ?label4@MogiTest@Mogitter@@3P$AAVLabel@Forms@Windows@System@@$AA

; 149  : 			this->sentakuGroup = (gcnew System::Windows::Forms::GroupBox());

  00082	02		 ldarg.0 	; this$
  00083	73 00 00 00 00	 newobj ??0GroupBox@Forms@Windows@System@@$$FQ$AAM@XZ
  00088	7d 00 00 00 00	 stfld ?sentakuGroup@MogiTest@Mogitter@@3P$AAVGroupBox@Forms@Windows@System@@$AA

; 150  : 			this->sentakushiCombo = (gcnew System::Windows::Forms::ComboBox());

  0008d	02		 ldarg.0 	; this$
  0008e	73 00 00 00 00	 newobj ??0ComboBox@Forms@Windows@System@@$$FQ$AAM@XZ
  00093	7d 00 00 00 00	 stfld ?sentakushiCombo@MogiTest@Mogitter@@3P$AAVComboBox@Forms@Windows@System@@$AA

; 151  : 			this->label5 = (gcnew System::Windows::Forms::Label());

  00098	02		 ldarg.0 	; this$
  00099	73 00 00 00 00	 newobj ??0Label@Forms@Windows@System@@$$FQ$AAM@XZ
  0009e	7d 00 00 00 00	 stfld ?label5@MogiTest@Mogitter@@3P$AAVLabel@Forms@Windows@System@@$AA

; 152  : 			this->marutsukeButton = (gcnew System::Windows::Forms::Button());

  000a3	02		 ldarg.0 	; this$
  000a4	73 00 00 00 00	 newobj ??0Button@Forms@Windows@System@@$$FQ$AAM@XZ
  000a9	7d 00 00 00 00	 stfld ?marutsukeButton@MogiTest@Mogitter@@3P$AAVButton@Forms@Windows@System@@$AA

; 153  : 			this->menuStrip1 = (gcnew System::Windows::Forms::MenuStrip());

  000ae	02		 ldarg.0 	; this$
  000af	73 00 00 00 00	 newobj ??0MenuStrip@Forms@Windows@System@@$$FQ$AAM@XZ
  000b4	7d 00 00 00 00	 stfld ?menuStrip1@MogiTest@Mogitter@@3P$AAVMenuStrip@Forms@Windows@System@@$AA

; 154  : 			this->FileMenuItem = (gcnew System::Windows::Forms::ToolStripMenuItem());

  000b9	02		 ldarg.0 	; this$
  000ba	73 00 00 00 00	 newobj ??0ToolStripMenuItem@Forms@Windows@System@@$$FQ$AAM@XZ
  000bf	7d 00 00 00 00	 stfld ?FileMenuItem@MogiTest@Mogitter@@3P$AAVToolStripMenuItem@Forms@Windows@System@@$AA

; 155  : 			this->openMenuItem = (gcnew System::Windows::Forms::ToolStripMenuItem());

  000c4	02		 ldarg.0 	; this$
  000c5	73 00 00 00 00	 newobj ??0ToolStripMenuItem@Forms@Windows@System@@$$FQ$AAM@XZ
  000ca	7d 00 00 00 00	 stfld ?openMenuItem@MogiTest@Mogitter@@3P$AAVToolStripMenuItem@Forms@Windows@System@@$AA

; 156  : 			this->toolStripSeparator = (gcnew System::Windows::Forms::ToolStripSeparator());

  000cf	02		 ldarg.0 	; this$
  000d0	73 00 00 00 00	 newobj ??0ToolStripSeparator@Forms@Windows@System@@$$FQ$AAM@XZ
  000d5	7d 00 00 00 00	 stfld ?toolStripSeparator@MogiTest@Mogitter@@3P$AAVToolStripSeparator@Forms@Windows@System@@$AA

; 157  : 			this->exportMenuItem = (gcnew System::Windows::Forms::ToolStripMenuItem());

  000da	02		 ldarg.0 	; this$
  000db	73 00 00 00 00	 newobj ??0ToolStripMenuItem@Forms@Windows@System@@$$FQ$AAM@XZ
  000e0	7d 00 00 00 00	 stfld ?exportMenuItem@MogiTest@Mogitter@@3P$AAVToolStripMenuItem@Forms@Windows@System@@$AA

; 158  : 			this->toolStripSeparator1 = (gcnew System::Windows::Forms::ToolStripSeparator());

  000e5	02		 ldarg.0 	; this$
  000e6	73 00 00 00 00	 newobj ??0ToolStripSeparator@Forms@Windows@System@@$$FQ$AAM@XZ
  000eb	7d 00 00 00 00	 stfld ?toolStripSeparator1@MogiTest@Mogitter@@3P$AAVToolStripSeparator@Forms@Windows@System@@$AA

; 159  : 			this->endMenuItem = (gcnew System::Windows::Forms::ToolStripMenuItem());

  000f0	02		 ldarg.0 	; this$
  000f1	73 00 00 00 00	 newobj ??0ToolStripMenuItem@Forms@Windows@System@@$$FQ$AAM@XZ
  000f6	7d 00 00 00 00	 stfld ?endMenuItem@MogiTest@Mogitter@@3P$AAVToolStripMenuItem@Forms@Windows@System@@$AA

; 160  : 			this->ToolMenuItem = (gcnew System::Windows::Forms::ToolStripMenuItem());

  000fb	02		 ldarg.0 	; this$
  000fc	73 00 00 00 00	 newobj ??0ToolStripMenuItem@Forms@Windows@System@@$$FQ$AAM@XZ
  00101	7d 00 00 00 00	 stfld ?ToolMenuItem@MogiTest@Mogitter@@3P$AAVToolStripMenuItem@Forms@Windows@System@@$AA

; 161  : 			this->optionMenuItem = (gcnew System::Windows::Forms::ToolStripMenuItem());

  00106	02		 ldarg.0 	; this$
  00107	73 00 00 00 00	 newobj ??0ToolStripMenuItem@Forms@Windows@System@@$$FQ$AAM@XZ
  0010c	7d 00 00 00 00	 stfld ?optionMenuItem@MogiTest@Mogitter@@3P$AAVToolStripMenuItem@Forms@Windows@System@@$AA

; 162  : 			this->HelpMenu = (gcnew System::Windows::Forms::ToolStripMenuItem());

  00111	02		 ldarg.0 	; this$
  00112	73 00 00 00 00	 newobj ??0ToolStripMenuItem@Forms@Windows@System@@$$FQ$AAM@XZ
  00117	7d 00 00 00 00	 stfld ?HelpMenu@MogiTest@Mogitter@@3P$AAVToolStripMenuItem@Forms@Windows@System@@$AA

; 163  : 			this->helpMenuItem = (gcnew System::Windows::Forms::ToolStripMenuItem());

  0011c	02		 ldarg.0 	; this$
  0011d	73 00 00 00 00	 newobj ??0ToolStripMenuItem@Forms@Windows@System@@$$FQ$AAM@XZ
  00122	7d 00 00 00 00	 stfld ?helpMenuItem@MogiTest@Mogitter@@3P$AAVToolStripMenuItem@Forms@Windows@System@@$AA

; 164  : 			this->QNumUpDown = (gcnew System::Windows::Forms::NumericUpDown());

  00127	02		 ldarg.0 	; this$
  00128	73 00 00 00 00	 newobj ??0NumericUpDown@Forms@Windows@System@@$$FQ$AAM@XZ
  0012d	7d 00 00 00 00	 stfld ?QNumUpDown@MogiTest@Mogitter@@3P$AAVNumericUpDown@Forms@Windows@System@@$AA

; 165  : 			this->userAnswerArea = (gcnew Sgry::Azuki::WinForms::AzukiControl());

  00132	02		 ldarg.0 	; this$
  00133	73 00 00 00 00	 newobj ??0AzukiControl@WinForms@Azuki@Sgry@@$$FQ$AAM@XZ
  00138	7d 00 00 00 00	 stfld ?userAnswerArea@MogiTest@Mogitter@@3P$AAVAzukiControl@WinForms@Azuki@Sgry@@$AA

; 166  : 			this->timer1 = (gcnew System::Windows::Forms::Timer(this->components));

  0013d	02		 ldarg.0 	; this$
  0013e	25		 dup 
  0013f	7b 00 00 00 00	 ldfld ?components@MogiTest@Mogitter@@3P$AAUIContainer@ComponentModel@System@@$AA
  00144	73 00 00 00 00	 newobj ??0Timer@Forms@Windows@System@@$$FQ$AAM@P$AAUIContainer@ComponentModel@3@@Z
  00149	7d 00 00 00 00	 stfld ?timer1@MogiTest@Mogitter@@3P$AAVTimer@Forms@Windows@System@@$AA

; 167  : 			this->keikajikan = (gcnew System::Windows::Forms::Timer(this->components));

  0014e	02		 ldarg.0 	; this$
  0014f	25		 dup 
  00150	7b 00 00 00 00	 ldfld ?components@MogiTest@Mogitter@@3P$AAUIContainer@ComponentModel@System@@$AA
  00155	73 00 00 00 00	 newobj ??0Timer@Forms@Windows@System@@$$FQ$AAM@P$AAUIContainer@ComponentModel@3@@Z
  0015a	7d 00 00 00 00	 stfld ?keikajikan@MogiTest@Mogitter@@3P$AAVTimer@Forms@Windows@System@@$AA

; 168  : 			this->splitContainer1 = (gcnew System::Windows::Forms::SplitContainer());

  0015f	02		 ldarg.0 	; this$
  00160	73 00 00 00 00	 newobj ??0SplitContainer@Forms@Windows@System@@$$FQ$AAM@XZ
  00165	7d 00 00 00 00	 stfld ?splitContainer1@MogiTest@Mogitter@@3P$AAVSplitContainer@Forms@Windows@System@@$AA

; 169  : 			this->panel1 = (gcnew System::Windows::Forms::Panel());

  0016a	02		 ldarg.0 	; this$
  0016b	73 00 00 00 00	 newobj ??0Panel@Forms@Windows@System@@$$FQ$AAM@XZ
  00170	7d 00 00 00 00	 stfld ?panel1@MogiTest@Mogitter@@3P$AAVPanel@Forms@Windows@System@@$AA

; 170  : 			this->anaumeGroup->SuspendLayout();

  00175	02		 ldarg.0 	; this$
  00176	7b 00 00 00 00	 ldfld ?anaumeGroup@MogiTest@Mogitter@@3P$AAVGroupBox@Forms@Windows@System@@$AA
  0017b	28 00 00 00 00	 call ?SuspendLayout@Control@Forms@Windows@System@@$$FQ$AAMXXZ

; 171  : 			this->sentakuGroup->SuspendLayout();

  00180	02		 ldarg.0 	; this$
  00181	7b 00 00 00 00	 ldfld ?sentakuGroup@MogiTest@Mogitter@@3P$AAVGroupBox@Forms@Windows@System@@$AA
  00186	28 00 00 00 00	 call ?SuspendLayout@Control@Forms@Windows@System@@$$FQ$AAMXXZ

; 172  : 			this->menuStrip1->SuspendLayout();

  0018b	02		 ldarg.0 	; this$
  0018c	7b 00 00 00 00	 ldfld ?menuStrip1@MogiTest@Mogitter@@3P$AAVMenuStrip@Forms@Windows@System@@$AA
  00191	28 00 00 00 00	 call ?SuspendLayout@Control@Forms@Windows@System@@$$FQ$AAMXXZ

; 173  : 			(cli::safe_cast<System::ComponentModel::ISupportInitialize^  >(this->QNumUpDown))->BeginInit();

  00196	02		 ldarg.0 	; this$
  00197	7b 00 00 00 00	 ldfld ?QNumUpDown@MogiTest@Mogitter@@3P$AAVNumericUpDown@Forms@Windows@System@@$AA
  0019c	6f 00 00 00 00	 callvirt ?BeginInit@ISupportInitialize@ComponentModel@System@@$$FU$AAMXXZ

; 174  : 			(cli::safe_cast<System::ComponentModel::ISupportInitialize^  >(this->splitContainer1))->BeginInit();

  001a1	02		 ldarg.0 	; this$
  001a2	7b 00 00 00 00	 ldfld ?splitContainer1@MogiTest@Mogitter@@3P$AAVSplitContainer@Forms@Windows@System@@$AA
  001a7	6f 00 00 00 00	 callvirt ?BeginInit@ISupportInitialize@ComponentModel@System@@$$FU$AAMXXZ

; 175  : 			this->splitContainer1->Panel1->SuspendLayout();

  001ac	02		 ldarg.0 	; this$
  001ad	7b 00 00 00 00	 ldfld ?splitContainer1@MogiTest@Mogitter@@3P$AAVSplitContainer@Forms@Windows@System@@$AA
  001b2	28 00 00 00 00	 call ?get@Panel1@SplitContainer@Forms@Windows@System@@$$FQ$AAMP$AAVSplitterPanel@345@XZ
  001b7	28 00 00 00 00	 call ?SuspendLayout@Control@Forms@Windows@System@@$$FQ$AAMXXZ

; 176  : 			this->splitContainer1->Panel2->SuspendLayout();

  001bc	02		 ldarg.0 	; this$
  001bd	7b 00 00 00 00	 ldfld ?splitContainer1@MogiTest@Mogitter@@3P$AAVSplitContainer@Forms@Windows@System@@$AA
  001c2	28 00 00 00 00	 call ?get@Panel2@SplitContainer@Forms@Windows@System@@$$FQ$AAMP$AAVSplitterPanel@345@XZ
  001c7	28 00 00 00 00	 call ?SuspendLayout@Control@Forms@Windows@System@@$$FQ$AAMXXZ

; 177  : 			this->splitContainer1->SuspendLayout();

  001cc	02		 ldarg.0 	; this$
  001cd	7b 00 00 00 00	 ldfld ?splitContainer1@MogiTest@Mogitter@@3P$AAVSplitContainer@Forms@Windows@System@@$AA
  001d2	28 00 00 00 00	 call ?SuspendLayout@Control@Forms@Windows@System@@$$FQ$AAMXXZ

; 178  : 			this->panel1->SuspendLayout();

  001d7	02		 ldarg.0 	; this$
  001d8	7b 00 00 00 00	 ldfld ?panel1@MogiTest@Mogitter@@3P$AAVPanel@Forms@Windows@System@@$AA
  001dd	28 00 00 00 00	 call ?SuspendLayout@Control@Forms@Windows@System@@$$FQ$AAMXXZ

; 179  : 			this->SuspendLayout();

  001e2	02		 ldarg.0 	; this$
  001e3	28 00 00 00 00	 call ?SuspendLayout@Control@Forms@Windows@System@@$$FQ$AAMXXZ

; 180  : 			// 
; 181  : 			// time_limit
; 182  : 			// 
; 183  : 			this->time_limit->AutoSize = true;

  001e8	02		 ldarg.0 	; this$
  001e9	7b 00 00 00 00	 ldfld ?time_limit@MogiTest@Mogitter@@3P$AAVLabel@Forms@Windows@System@@$AA
  001ee	17		 ldc.i.1 1	; u8 0x1
  001ef	6f 00 00 00 00	 callvirt ?set@AutoSize@Label@Forms@Windows@System@@$$FU$AAMX_N@Z

; 184  : 			this->time_limit->Font = (gcnew System::Drawing::Font(L"メイリオ", 12, System::Drawing::FontStyle::Regular, System::Drawing::GraphicsUnit::Point, 
; 185  : 				static_cast<System::Byte>(128)));

  001f4	02		 ldarg.0 	; this$
  001f5	7b 00 00 00 00	 ldfld ?time_limit@MogiTest@Mogitter@@3P$AAVLabel@Forms@Windows@System@@$AA
  001fa	72 00 00 00 00	 ldstr $StringLiteralTok$??_C@_19HMEDOBKD@0?a0?$KE0?j0?$KK?$AA?$AA@
  001ff	22 00 00 40 41	 ldc.r4 12.000000
  00204	16		 ldc.i.0 0	; i32 0x0
  00205	19		 ldc.i.3 3	; i32 0x3
  00206	20 80 00 00 00	 ldc.i4 128	; u8 0x80
  0020b	73 00 00 00 00	 newobj ??0Font@Drawing@System@@$$FQ$AAM@P$AAVString@2@MW4FontStyle@12@W4GraphicsUnit@12@E@Z
  00210	6f 00 00 00 00	 callvirt ?set@Font@Control@Forms@Windows@System@@$$FU$AAMXP$AAV1Drawing@5@@Z

; 186  : 			this->time_limit->Location = System::Drawing::Point(8, 0);

  00215	12 45		 ldloca.s 69	; $S65$
  00217	1e		 ldc.i.8 8	; i32 0x8
  00218	16		 ldc.i.0 0	; i32 0x0
  00219	28 00 00 00 00	 call ??0Point@Drawing@System@@$$FQ$CAM@HH@Z
  0021e	02		 ldarg.0 	; this$
  0021f	7b 00 00 00 00	 ldfld ?time_limit@MogiTest@Mogitter@@3P$AAVLabel@Forms@Windows@System@@$AA
  00224	11 45		 ldloc.s 69	; $S65$
  00226	28 00 00 00 00	 call ?set@Location@Control@Forms@Windows@System@@$$FQ$AAMXVPoint@Drawing@5@@Z

; 187  : 			this->time_limit->Name = L"time_limit";

  0022b	02		 ldarg.0 	; this$
  0022c	7b 00 00 00 00	 ldfld ?time_limit@MogiTest@Mogitter@@3P$AAVLabel@Forms@Windows@System@@$AA
  00231	72 00 00 00 00	 ldstr $StringLiteralTok$??_C@_1BG@JBOMMBPC@?$AAt?$AAi?$AAm?$AAe?$AA_?$AAl?$AAi?$AAm?$AAi?$AAt?$AA?$AA@
  00236	28 00 00 00 00	 call ?set@Name@Control@Forms@Windows@System@@$$FQ$AAMXP$AAVString@5@@Z

; 188  : 			this->time_limit->Size = System::Drawing::Size(170, 24);

  0023b	12 44		 ldloca.s 68	; $S66$
  0023d	20 aa 00 00 00	 ldc.i4 170	; i32 0xaa
  00242	1f 18		 ldc.i4.s 24	; i32 0x18
  00244	28 00 00 00 00	 call ??0Size@Drawing@System@@$$FQ$CAM@HH@Z
  00249	02		 ldarg.0 	; this$
  0024a	7b 00 00 00 00	 ldfld ?time_limit@MogiTest@Mogitter@@3P$AAVLabel@Forms@Windows@System@@$AA
  0024f	11 44		 ldloc.s 68	; $S66$
  00251	28 00 00 00 00	 call ?set@Size@Control@Forms@Windows@System@@$$FQ$AAMXV1Drawing@5@@Z

; 189  : 			this->time_limit->TabIndex = 0;

  00256	02		 ldarg.0 	; this$
  00257	7b 00 00 00 00	 ldfld ?time_limit@MogiTest@Mogitter@@3P$AAVLabel@Forms@Windows@System@@$AA
  0025c	16		 ldc.i.0 0	; i32 0x0
  0025d	28 00 00 00 00	 call ?set@TabIndex@Control@Forms@Windows@System@@$$FQ$AAMXH@Z

; 190  : 			this->time_limit->Text = L"制限時間はありません";

  00262	02		 ldarg.0 	; this$
  00263	7b 00 00 00 00	 ldfld ?time_limit@MogiTest@Mogitter@@3P$AAVLabel@Forms@Windows@System@@$AA
  00268	72 00 00 00 00	 ldstr $StringLiteralTok$??_C@_1BG@PEJMBMAE@R6?$JGPfB?$JF?$JD0o0B0?$IK0?$HO0?$FL0?$JD?$AA?$AA@
  0026d	6f 00 00 00 00	 callvirt ?set@Text@Label@Forms@Windows@System@@$$FU$AAMXP$AAVString@5@@Z

; 191  : 			// 
; 192  : 			// QuestSentence
; 193  : 			// 
; 194  : 			this->QuestSentence->Anchor = static_cast<System::Windows::Forms::AnchorStyles>((((System::Windows::Forms::AnchorStyles::Top | System::Windows::Forms::AnchorStyles::Bottom) 
; 195  : 				| System::Windows::Forms::AnchorStyles::Left) 
; 196  : 				| System::Windows::Forms::AnchorStyles::Right));

  00272	02		 ldarg.0 	; this$
  00273	7b 00 00 00 00	 ldfld ?QuestSentence@MogiTest@Mogitter@@3P$AAVAzukiControl@WinForms@Azuki@Sgry@@$AA
  00278	1f 0f		 ldc.i4.s 15	; i32 0xf
  0027a	6f 00 00 00 00	 callvirt ?set@Anchor@Control@Forms@Windows@System@@$$FU$AAMXW4AnchorStyles@345@@Z

; 197  : 			this->QuestSentence->BackColor = System::Drawing::Color::FromArgb(static_cast<System::Int32>(static_cast<System::Byte>(255)), static_cast<System::Int32>(static_cast<System::Byte>(250)), 
; 198  : 				static_cast<System::Int32>(static_cast<System::Byte>(240)));

  0027f	20 ff 00 00 00	 ldc.i4 255	; i32 0xff
  00284	20 fa 00 00 00	 ldc.i4 250	; i32 0xfa
  00289	20 f0 00 00 00	 ldc.i4 240	; i32 0xf0
  0028e	28 00 00 00 00	 call ?FromArgb@Color@Drawing@System@@$$FSM?AV123@HHH@Z
  00293	13 43		 stloc.s 67	; $T2
  00295	02		 ldarg.0 	; this$
  00296	7b 00 00 00 00	 ldfld ?QuestSentence@MogiTest@Mogitter@@3P$AAVAzukiControl@WinForms@Azuki@Sgry@@$AA
  0029b	11 43		 ldloc.s 67	; $T2
  0029d	6f 00 00 00 00	 callvirt ?set@BackColor@AzukiControl@WinForms@Azuki@Sgry@@$$FU$AAMXVColor@Drawing@System@@@Z

; 199  : 			this->QuestSentence->Cursor = System::Windows::Forms::Cursors::IBeam;

  002a2	02		 ldarg.0 	; this$
  002a3	7b 00 00 00 00	 ldfld ?QuestSentence@MogiTest@Mogitter@@3P$AAVAzukiControl@WinForms@Azuki@Sgry@@$AA
  002a8	28 00 00 00 00	 call ?get@IBeam@Cursors@Forms@Windows@System@@$$FSMP$AAVCursor@345@XZ
  002ad	6f 00 00 00 00	 callvirt ?set@Cursor@Control@Forms@Windows@System@@$$FU$AAMXP$AAV1345@@Z

; 200  : 			this->QuestSentence->DrawingOption = Sgry::Azuki::DrawingOption::ShowsLineNumber;

  002b2	02		 ldarg.0 	; this$
  002b3	7b 00 00 00 00	 ldfld ?QuestSentence@MogiTest@Mogitter@@3P$AAVAzukiControl@WinForms@Azuki@Sgry@@$AA
  002b8	1f 20		 ldc.i4.s 32	; i32 0x20
  002ba	6f 00 00 00 00	 callvirt ?set@DrawingOption@AzukiControl@WinForms@Azuki@Sgry@@$$FU$AAMXW4145@@Z

; 201  : 			this->QuestSentence->DrawsEolCode = false;

  002bf	02		 ldarg.0 	; this$
  002c0	7b 00 00 00 00	 ldfld ?QuestSentence@MogiTest@Mogitter@@3P$AAVAzukiControl@WinForms@Azuki@Sgry@@$AA
  002c5	16		 ldc.i.0 0	; u8 0x0
  002c6	6f 00 00 00 00	 callvirt ?set@DrawsEolCode@AzukiControl@WinForms@Azuki@Sgry@@$$FU$AAMX_N@Z

; 202  : 			this->QuestSentence->DrawsFullWidthSpace = false;

  002cb	02		 ldarg.0 	; this$
  002cc	7b 00 00 00 00	 ldfld ?QuestSentence@MogiTest@Mogitter@@3P$AAVAzukiControl@WinForms@Azuki@Sgry@@$AA
  002d1	16		 ldc.i.0 0	; u8 0x0
  002d2	6f 00 00 00 00	 callvirt ?set@DrawsFullWidthSpace@AzukiControl@WinForms@Azuki@Sgry@@$$FU$AAMX_N@Z

; 203  : 			this->QuestSentence->DrawsTab = false;

  002d7	02		 ldarg.0 	; this$
  002d8	7b 00 00 00 00	 ldfld ?QuestSentence@MogiTest@Mogitter@@3P$AAVAzukiControl@WinForms@Azuki@Sgry@@$AA
  002dd	16		 ldc.i.0 0	; u8 0x0
  002de	6f 00 00 00 00	 callvirt ?set@DrawsTab@AzukiControl@WinForms@Azuki@Sgry@@$$FU$AAMX_N@Z

; 204  : 			this->QuestSentence->FirstVisibleLine = 0;

  002e3	02		 ldarg.0 	; this$
  002e4	7b 00 00 00 00	 ldfld ?QuestSentence@MogiTest@Mogitter@@3P$AAVAzukiControl@WinForms@Azuki@Sgry@@$AA
  002e9	16		 ldc.i.0 0	; i32 0x0
  002ea	28 00 00 00 00	 call ?set@FirstVisibleLine@AzukiControl@WinForms@Azuki@Sgry@@$$FQ$AAMXH@Z

; 205  : 			this->QuestSentence->Font = (gcnew System::Drawing::Font(L"メイリオ", 12));

  002ef	02		 ldarg.0 	; this$
  002f0	7b 00 00 00 00	 ldfld ?QuestSentence@MogiTest@Mogitter@@3P$AAVAzukiControl@WinForms@Azuki@Sgry@@$AA
  002f5	72 00 00 00 00	 ldstr $StringLiteralTok$??_C@_19HMEDOBKD@0?a0?$KE0?j0?$KK?$AA?$AA@
  002fa	22 00 00 40 41	 ldc.r4 12.000000
  002ff	73 00 00 00 00	 newobj ??0Font@Drawing@System@@$$FQ$AAM@P$AAVString@2@M@Z
  00304	6f 00 00 00 00	 callvirt ?set@Font@AzukiControl@WinForms@Azuki@Sgry@@$$FU$AAMXP$AAV1Drawing@System@@@Z

; 206  : 			fontInfo1->Name = L"メイリオ";

  00309	11 06		 ldloc.s 6	; fontInfo1$
  0030b	72 00 00 00 00	 ldstr $StringLiteralTok$??_C@_19HMEDOBKD@0?a0?$KE0?j0?$KK?$AA?$AA@
  00310	28 00 00 00 00	 call ?set@Name@FontInfo@Azuki@Sgry@@$$FQ$AAMXP$AAVString@System@@@Z

; 207  : 			fontInfo1->Size = 12;

  00315	11 06		 ldloc.s 6	; fontInfo1$
  00317	1f 0c		 ldc.i4.s 12	; i32 0xc
  00319	28 00 00 00 00	 call ?set@Size@FontInfo@Azuki@Sgry@@$$FQ$AAMXH@Z

; 208  : 			fontInfo1->Style = System::Drawing::FontStyle::Regular;

  0031e	11 06		 ldloc.s 6	; fontInfo1$
  00320	16		 ldc.i.0 0	; i32 0x0
  00321	28 00 00 00 00	 call ?set@Style@FontInfo@Azuki@Sgry@@$$FQ$AAMXW4FontStyle@Drawing@System@@@Z

; 209  : 			this->QuestSentence->FontInfo = fontInfo1;

  00326	02		 ldarg.0 	; this$
  00327	7b 00 00 00 00	 ldfld ?QuestSentence@MogiTest@Mogitter@@3P$AAVAzukiControl@WinForms@Azuki@Sgry@@$AA
  0032c	11 06		 ldloc.s 6	; fontInfo1$
  0032e	6f 00 00 00 00	 callvirt ?set@FontInfo@AzukiControl@WinForms@Azuki@Sgry@@$$FU$AAMXP$AAV145@@Z

; 210  : 			this->QuestSentence->ForeColor = System::Drawing::Color::Black;

  00333	28 00 00 00 00	 call ?get@Black@Color@Drawing@System@@$$FSM?AV234@XZ
  00338	13 42		 stloc.s 66	; $T3
  0033a	02		 ldarg.0 	; this$
  0033b	7b 00 00 00 00	 ldfld ?QuestSentence@MogiTest@Mogitter@@3P$AAVAzukiControl@WinForms@Azuki@Sgry@@$AA
  00340	11 42		 ldloc.s 66	; $T3
  00342	6f 00 00 00 00	 callvirt ?set@ForeColor@AzukiControl@WinForms@Azuki@Sgry@@$$FU$AAMXVColor@Drawing@System@@@Z

; 211  : 			this->QuestSentence->HighlightsCurrentLine = false;

  00347	02		 ldarg.0 	; this$
  00348	7b 00 00 00 00	 ldfld ?QuestSentence@MogiTest@Mogitter@@3P$AAVAzukiControl@WinForms@Azuki@Sgry@@$AA
  0034d	16		 ldc.i.0 0	; u8 0x0
  0034e	6f 00 00 00 00	 callvirt ?set@HighlightsCurrentLine@AzukiControl@WinForms@Azuki@Sgry@@$$FU$AAMX_N@Z

; 212  : 			this->QuestSentence->HighlightsMatchedBracket = false;

  00353	02		 ldarg.0 	; this$
  00354	7b 00 00 00 00	 ldfld ?QuestSentence@MogiTest@Mogitter@@3P$AAVAzukiControl@WinForms@Azuki@Sgry@@$AA
  00359	16		 ldc.i.0 0	; u8 0x0
  0035a	6f 00 00 00 00	 callvirt ?set@HighlightsMatchedBracket@AzukiControl@WinForms@Azuki@Sgry@@$$FU$AAMX_N@Z

; 213  : 			this->QuestSentence->IsReadOnly = true;

  0035f	02		 ldarg.0 	; this$
  00360	7b 00 00 00 00	 ldfld ?QuestSentence@MogiTest@Mogitter@@3P$AAVAzukiControl@WinForms@Azuki@Sgry@@$AA
  00365	17		 ldc.i.1 1	; u8 0x1
  00366	6f 00 00 00 00	 callvirt ?set@IsReadOnly@AzukiControl@WinForms@Azuki@Sgry@@$$FU$AAMX_N@Z

; 214  : 			this->QuestSentence->Location = System::Drawing::Point(12, 27);

  0036b	12 41		 ldloca.s 65	; $S67$
  0036d	1f 0c		 ldc.i4.s 12	; i32 0xc
  0036f	1f 1b		 ldc.i4.s 27	; i32 0x1b
  00371	28 00 00 00 00	 call ??0Point@Drawing@System@@$$FQ$CAM@HH@Z
  00376	02		 ldarg.0 	; this$
  00377	7b 00 00 00 00	 ldfld ?QuestSentence@MogiTest@Mogitter@@3P$AAVAzukiControl@WinForms@Azuki@Sgry@@$AA
  0037c	11 41		 ldloc.s 65	; $S67$
  0037e	28 00 00 00 00	 call ?set@Location@Control@Forms@Windows@System@@$$FQ$AAMXVPoint@Drawing@5@@Z

; 215  : 			this->QuestSentence->Name = L"QuestSentence";

  00383	02		 ldarg.0 	; this$
  00384	7b 00 00 00 00	 ldfld ?QuestSentence@MogiTest@Mogitter@@3P$AAVAzukiControl@WinForms@Azuki@Sgry@@$AA
  00389	72 00 00 00 00	 ldstr $StringLiteralTok$??_C@_1BM@GKBLIADK@?$AAQ?$AAu?$AAe?$AAs?$AAt?$AAS?$AAe?$AAn?$AAt?$AAe?$AAn?$AAc?$AAe?$AA?$AA@
  0038e	28 00 00 00 00	 call ?set@Name@Control@Forms@Windows@System@@$$FQ$AAMXP$AAVString@5@@Z

; 216  : 			this->QuestSentence->ScrollPos = System::Drawing::Point(0, 0);

  00393	12 40		 ldloca.s 64	; $S68$
  00395	16		 ldc.i.0 0	; i32 0x0
  00396	16		 ldc.i.0 0	; i32 0x0
  00397	28 00 00 00 00	 call ??0Point@Drawing@System@@$$FQ$CAM@HH@Z
  0039c	02		 ldarg.0 	; this$
  0039d	7b 00 00 00 00	 ldfld ?QuestSentence@MogiTest@Mogitter@@3P$AAVAzukiControl@WinForms@Azuki@Sgry@@$AA
  003a2	11 40		 ldloc.s 64	; $S68$
  003a4	6f 00 00 00 00	 callvirt ?set@ScrollPos@AzukiControl@WinForms@Azuki@Sgry@@$$FU$AAMXVPoint@Drawing@System@@@Z

; 217  : 			this->QuestSentence->ScrollsBeyondLastLine = false;

  003a9	02		 ldarg.0 	; this$
  003aa	7b 00 00 00 00	 ldfld ?QuestSentence@MogiTest@Mogitter@@3P$AAVAzukiControl@WinForms@Azuki@Sgry@@$AA
  003af	16		 ldc.i.0 0	; u8 0x0
  003b0	28 00 00 00 00	 call ?set@ScrollsBeyondLastLine@AzukiControl@WinForms@Azuki@Sgry@@$$FQ$AAMX_N@Z

; 218  : 			this->QuestSentence->ShowsDirtBar = false;

  003b5	02		 ldarg.0 	; this$
  003b6	7b 00 00 00 00	 ldfld ?QuestSentence@MogiTest@Mogitter@@3P$AAVAzukiControl@WinForms@Azuki@Sgry@@$AA
  003bb	16		 ldc.i.0 0	; u8 0x0
  003bc	6f 00 00 00 00	 callvirt ?set@ShowsDirtBar@AzukiControl@WinForms@Azuki@Sgry@@$$FU$AAMX_N@Z

; 219  : 			this->QuestSentence->ShowsHScrollBar = false;

  003c1	02		 ldarg.0 	; this$
  003c2	7b 00 00 00 00	 ldfld ?QuestSentence@MogiTest@Mogitter@@3P$AAVAzukiControl@WinForms@Azuki@Sgry@@$AA
  003c7	16		 ldc.i.0 0	; u8 0x0
  003c8	6f 00 00 00 00	 callvirt ?set@ShowsHScrollBar@AzukiControl@WinForms@Azuki@Sgry@@$$FU$AAMX_N@Z

; 220  : 			this->QuestSentence->Size = System::Drawing::Size(595, 510);

  003cd	12 3f		 ldloca.s 63	; $S69$
  003cf	20 53 02 00 00	 ldc.i4 595	; i32 0x253
  003d4	20 fe 01 00 00	 ldc.i4 510	; i32 0x1fe
  003d9	28 00 00 00 00	 call ??0Size@Drawing@System@@$$FQ$CAM@HH@Z
  003de	02		 ldarg.0 	; this$
  003df	7b 00 00 00 00	 ldfld ?QuestSentence@MogiTest@Mogitter@@3P$AAVAzukiControl@WinForms@Azuki@Sgry@@$AA
  003e4	11 3f		 ldloc.s 63	; $S69$
  003e6	28 00 00 00 00	 call ?set@Size@Control@Forms@Windows@System@@$$FQ$AAMXV1Drawing@5@@Z

; 221  : 			this->QuestSentence->TabIndex = 1;

  003eb	02		 ldarg.0 	; this$
  003ec	7b 00 00 00 00	 ldfld ?QuestSentence@MogiTest@Mogitter@@3P$AAVAzukiControl@WinForms@Azuki@Sgry@@$AA
  003f1	17		 ldc.i.1 1	; i32 0x1
  003f2	28 00 00 00 00	 call ?set@TabIndex@Control@Forms@Windows@System@@$$FQ$AAMXH@Z

; 222  : 			this->QuestSentence->ViewType = Sgry::Azuki::ViewType::WrappedProportional;

  003f7	02		 ldarg.0 	; this$
  003f8	7b 00 00 00 00	 ldfld ?QuestSentence@MogiTest@Mogitter@@3P$AAVAzukiControl@WinForms@Azuki@Sgry@@$AA
  003fd	17		 ldc.i.1 1	; i32 0x1
  003fe	6f 00 00 00 00	 callvirt ?set@ViewType@AzukiControl@WinForms@Azuki@Sgry@@$$FU$AAMXW4145@@Z

; 223  : 			this->QuestSentence->ViewWidth = 581;

  00403	02		 ldarg.0 	; this$
  00404	7b 00 00 00 00	 ldfld ?QuestSentence@MogiTest@Mogitter@@3P$AAVAzukiControl@WinForms@Azuki@Sgry@@$AA
  00409	20 45 02 00 00	 ldc.i4 581	; i32 0x245
  0040e	6f 00 00 00 00	 callvirt ?set@ViewWidth@AzukiControl@WinForms@Azuki@Sgry@@$$FU$AAMXH@Z

; 224  : 			this->QuestSentence->SizeChanged += gcnew System::EventHandler(this, &MogiTest::QuestSentence_SizeChanged);

  00413	02		 ldarg.0 	; this$
  00414	7b 00 00 00 00	 ldfld ?QuestSentence@MogiTest@Mogitter@@3P$AAVAzukiControl@WinForms@Azuki@Sgry@@$AA
  00419	02		 ldarg.0 	; this$
  0041a	fe 06 00 00 00
	00		 ldftn ?QuestSentence_SizeChanged@MogiTest@Mogitter@@$$FA$AAMXP$AAVObject@System@@P$AAVEventArgs@4@@Z
  00420	73 00 00 00 00	 newobj ??0EventHandler@System@@$$FQ$AAM@P$AAVObject@1@VIntPtr@1@@Z
  00425	28 00 00 00 00	 call ?add@SizeChanged@Control@Forms@Windows@System@@$$FQ$AAMXP$AAVEventHandler@5@@Z

; 225  : 			// 
; 226  : 			// label2
; 227  : 			// 
; 228  : 			this->label2->AutoSize = true;

  0042a	02		 ldarg.0 	; this$
  0042b	7b 00 00 00 00	 ldfld ?label2@MogiTest@Mogitter@@3P$AAVLabel@Forms@Windows@System@@$AA
  00430	17		 ldc.i.1 1	; u8 0x1
  00431	6f 00 00 00 00	 callvirt ?set@AutoSize@Label@Forms@Windows@System@@$$FU$AAMX_N@Z

; 229  : 			this->label2->Font = (gcnew System::Drawing::Font(L"メイリオ", 12, System::Drawing::FontStyle::Regular, System::Drawing::GraphicsUnit::Point, 
; 230  : 				static_cast<System::Byte>(128)));

  00436	02		 ldarg.0 	; this$
  00437	7b 00 00 00 00	 ldfld ?label2@MogiTest@Mogitter@@3P$AAVLabel@Forms@Windows@System@@$AA
  0043c	72 00 00 00 00	 ldstr $StringLiteralTok$??_C@_19HMEDOBKD@0?a0?$KE0?j0?$KK?$AA?$AA@
  00441	22 00 00 40 41	 ldc.r4 12.000000
  00446	16		 ldc.i.0 0	; i32 0x0
  00447	19		 ldc.i.3 3	; i32 0x3
  00448	20 80 00 00 00	 ldc.i4 128	; u8 0x80
  0044d	73 00 00 00 00	 newobj ??0Font@Drawing@System@@$$FQ$AAM@P$AAVString@2@MW4FontStyle@12@W4GraphicsUnit@12@E@Z
  00452	6f 00 00 00 00	 callvirt ?set@Font@Control@Forms@Windows@System@@$$FU$AAMXP$AAV1Drawing@5@@Z

; 231  : 			this->label2->Location = System::Drawing::Point(1, 0);

  00457	12 3e		 ldloca.s 62	; $S70$
  00459	17		 ldc.i.1 1	; i32 0x1
  0045a	16		 ldc.i.0 0	; i32 0x0
  0045b	28 00 00 00 00	 call ??0Point@Drawing@System@@$$FQ$CAM@HH@Z
  00460	02		 ldarg.0 	; this$
  00461	7b 00 00 00 00	 ldfld ?label2@MogiTest@Mogitter@@3P$AAVLabel@Forms@Windows@System@@$AA
  00466	11 3e		 ldloc.s 62	; $S70$
  00468	28 00 00 00 00	 call ?set@Location@Control@Forms@Windows@System@@$$FQ$AAMXVPoint@Drawing@5@@Z

; 232  : 			this->label2->Name = L"label2";

  0046d	02		 ldarg.0 	; this$
  0046e	7b 00 00 00 00	 ldfld ?label2@MogiTest@Mogitter@@3P$AAVLabel@Forms@Windows@System@@$AA
  00473	72 00 00 00 00	 ldstr $StringLiteralTok$??_C@_1O@FDJGDNMC@?$AAl?$AAa?$AAb?$AAe?$AAl?$AA2?$AA?$AA@
  00478	28 00 00 00 00	 call ?set@Name@Control@Forms@Windows@System@@$$FQ$AAMXP$AAVString@5@@Z

; 233  : 			this->label2->Size = System::Drawing::Size(106, 24);

  0047d	12 3d		 ldloca.s 61	; $S71$
  0047f	1f 6a		 ldc.i4.s 106	; i32 0x6a
  00481	1f 18		 ldc.i4.s 24	; i32 0x18
  00483	28 00 00 00 00	 call ??0Size@Drawing@System@@$$FQ$CAM@HH@Z
  00488	02		 ldarg.0 	; this$
  00489	7b 00 00 00 00	 ldfld ?label2@MogiTest@Mogitter@@3P$AAVLabel@Forms@Windows@System@@$AA
  0048e	11 3d		 ldloc.s 61	; $S71$
  00490	28 00 00 00 00	 call ?set@Size@Control@Forms@Windows@System@@$$FQ$AAMXV1Drawing@5@@Z

; 234  : 			this->label2->TabIndex = 3;

  00495	02		 ldarg.0 	; this$
  00496	7b 00 00 00 00	 ldfld ?label2@MogiTest@Mogitter@@3P$AAVLabel@Forms@Windows@System@@$AA
  0049b	19		 ldc.i.3 3	; i32 0x3
  0049c	28 00 00 00 00	 call ?set@TabIndex@Control@Forms@Windows@System@@$$FQ$AAMXH@Z

; 235  : 			this->label2->Text = L"解答表示欄：";

  004a1	02		 ldarg.0 	; this$
  004a2	7b 00 00 00 00	 ldfld ?label2@MogiTest@Mogitter@@3P$AAVLabel@Forms@Windows@System@@$AA
  004a7	72 00 00 00 00	 ldstr $StringLiteralTok$??_C@_1O@BOAFODNB@?$IJ?c?$HLT?$IIhy?3k?$AE?$PP?$BK?$AA?$AA@
  004ac	6f 00 00 00 00	 callvirt ?set@Text@Label@Forms@Windows@System@@$$FU$AAMXP$AAVString@5@@Z

; 236  : 			// 
; 237  : 			// label3
; 238  : 			// 
; 239  : 			this->label3->AutoSize = true;

  004b1	02		 ldarg.0 	; this$
  004b2	7b 00 00 00 00	 ldfld ?label3@MogiTest@Mogitter@@3P$AAVLabel@Forms@Windows@System@@$AA
  004b7	17		 ldc.i.1 1	; u8 0x1
  004b8	6f 00 00 00 00	 callvirt ?set@AutoSize@Label@Forms@Windows@System@@$$FU$AAMX_N@Z

; 240  : 			this->label3->Font = (gcnew System::Drawing::Font(L"メイリオ", 12, System::Drawing::FontStyle::Regular, System::Drawing::GraphicsUnit::Point, 
; 241  : 				static_cast<System::Byte>(128)));

  004bd	02		 ldarg.0 	; this$
  004be	7b 00 00 00 00	 ldfld ?label3@MogiTest@Mogitter@@3P$AAVLabel@Forms@Windows@System@@$AA
  004c3	72 00 00 00 00	 ldstr $StringLiteralTok$??_C@_19HMEDOBKD@0?a0?$KE0?j0?$KK?$AA?$AA@
  004c8	22 00 00 40 41	 ldc.r4 12.000000
  004cd	16		 ldc.i.0 0	; i32 0x0
  004ce	19		 ldc.i.3 3	; i32 0x3
  004cf	20 80 00 00 00	 ldc.i4 128	; u8 0x80
  004d4	73 00 00 00 00	 newobj ??0Font@Drawing@System@@$$FQ$AAM@P$AAVString@2@MW4FontStyle@12@W4GraphicsUnit@12@E@Z
  004d9	6f 00 00 00 00	 callvirt ?set@Font@Control@Forms@Windows@System@@$$FU$AAMXP$AAV1Drawing@5@@Z

; 242  : 			this->label3->Location = System::Drawing::Point(10, 17);

  004de	12 3c		 ldloca.s 60	; $S72$
  004e0	1f 0a		 ldc.i4.s 10	; i32 0xa
  004e2	1f 11		 ldc.i4.s 17	; i32 0x11
  004e4	28 00 00 00 00	 call ??0Point@Drawing@System@@$$FQ$CAM@HH@Z
  004e9	02		 ldarg.0 	; this$
  004ea	7b 00 00 00 00	 ldfld ?label3@MogiTest@Mogitter@@3P$AAVLabel@Forms@Windows@System@@$AA
  004ef	11 3c		 ldloc.s 60	; $S72$
  004f1	28 00 00 00 00	 call ?set@Location@Control@Forms@Windows@System@@$$FQ$AAMXVPoint@Drawing@5@@Z

; 243  : 			this->label3->Name = L"label3";

  004f6	02		 ldarg.0 	; this$
  004f7	7b 00 00 00 00	 ldfld ?label3@MogiTest@Mogitter@@3P$AAVLabel@Forms@Windows@System@@$AA
  004fc	72 00 00 00 00	 ldstr $StringLiteralTok$??_C@_1O@OLCKFKKH@?$AAl?$AAa?$AAb?$AAe?$AAl?$AA3?$AA?$AA@
  00501	28 00 00 00 00	 call ?set@Name@Control@Forms@Windows@System@@$$FQ$AAMXP$AAVString@5@@Z

; 244  : 			this->label3->Size = System::Drawing::Size(74, 24);

  00506	12 3b		 ldloca.s 59	; $S73$
  00508	1f 4a		 ldc.i4.s 74	; i32 0x4a
  0050a	1f 18		 ldc.i4.s 24	; i32 0x18
  0050c	28 00 00 00 00	 call ??0Size@Drawing@System@@$$FQ$CAM@HH@Z
  00511	02		 ldarg.0 	; this$
  00512	7b 00 00 00 00	 ldfld ?label3@MogiTest@Mogitter@@3P$AAVLabel@Forms@Windows@System@@$AA
  00517	11 3b		 ldloc.s 59	; $S73$
  00519	28 00 00 00 00	 call ?set@Size@Control@Forms@Windows@System@@$$FQ$AAMXV1Drawing@5@@Z

; 245  : 			this->label3->TabIndex = 5;

  0051e	02		 ldarg.0 	; this$
  0051f	7b 00 00 00 00	 ldfld ?label3@MogiTest@Mogitter@@3P$AAVLabel@Forms@Windows@System@@$AA
  00524	1b		 ldc.i.5 5	; i32 0x5
  00525	28 00 00 00 00	 call ?set@TabIndex@Control@Forms@Windows@System@@$$FQ$AAMXH@Z

; 246  : 			this->label3->Text = L"問題番号";

  0052a	02		 ldarg.0 	; this$
  0052b	7b 00 00 00 00	 ldfld ?label3@MogiTest@Mogitter@@3P$AAVLabel@Forms@Windows@System@@$AA
  00530	72 00 00 00 00	 ldstr $StringLiteralTok$??_C@_19EACNNBA@UO?$JILujS?w?$AA?$AA@
  00535	6f 00 00 00 00	 callvirt ?set@Text@Label@Forms@Windows@System@@$$FU$AAMXP$AAVString@5@@Z

; 247  : 			// 
; 248  : 			// anaumeGroup
; 249  : 			// 
; 250  : 			this->anaumeGroup->Controls->Add(this->anaumeAnsBox);

  0053a	02		 ldarg.0 	; this$
  0053b	7b 00 00 00 00	 ldfld ?anaumeGroup@MogiTest@Mogitter@@3P$AAVGroupBox@Forms@Windows@System@@$AA
  00540	28 00 00 00 00	 call ?get@Controls@Control@Forms@Windows@System@@$$FQ$AAMP$AAVControlCollection@2345@XZ
  00545	02		 ldarg.0 	; this$
  00546	7b 00 00 00 00	 ldfld ?anaumeAnsBox@MogiTest@Mogitter@@3P$AAVRichTextBox@Forms@Windows@System@@$AA
  0054b	6f 00 00 00 00	 callvirt ?Add@ControlCollection@Control@Forms@Windows@System@@$$FU$AAMXP$AAV2345@@Z

; 251  : 			this->anaumeGroup->Controls->Add(this->label4);

  00550	02		 ldarg.0 	; this$
  00551	7b 00 00 00 00	 ldfld ?anaumeGroup@MogiTest@Mogitter@@3P$AAVGroupBox@Forms@Windows@System@@$AA
  00556	28 00 00 00 00	 call ?get@Controls@Control@Forms@Windows@System@@$$FQ$AAMP$AAVControlCollection@2345@XZ
  0055b	02		 ldarg.0 	; this$
  0055c	7b 00 00 00 00	 ldfld ?label4@MogiTest@Mogitter@@3P$AAVLabel@Forms@Windows@System@@$AA
  00561	6f 00 00 00 00	 callvirt ?Add@ControlCollection@Control@Forms@Windows@System@@$$FU$AAMXP$AAV2345@@Z

; 252  : 			this->anaumeGroup->Font = (gcnew System::Drawing::Font(L"メイリオ", 9.75F, System::Drawing::FontStyle::Regular, System::Drawing::GraphicsUnit::Point, 
; 253  : 				static_cast<System::Byte>(128)));

  00566	02		 ldarg.0 	; this$
  00567	7b 00 00 00 00	 ldfld ?anaumeGroup@MogiTest@Mogitter@@3P$AAVGroupBox@Forms@Windows@System@@$AA
  0056c	72 00 00 00 00	 ldstr $StringLiteralTok$??_C@_19HMEDOBKD@0?a0?$KE0?j0?$KK?$AA?$AA@
  00571	22 00 00 1c 41	 ldc.r4 9.750000
  00576	16		 ldc.i.0 0	; i32 0x0
  00577	19		 ldc.i.3 3	; i32 0x3
  00578	20 80 00 00 00	 ldc.i4 128	; u8 0x80
  0057d	73 00 00 00 00	 newobj ??0Font@Drawing@System@@$$FQ$AAM@P$AAVString@2@MW4FontStyle@12@W4GraphicsUnit@12@E@Z
  00582	6f 00 00 00 00	 callvirt ?set@Font@Control@Forms@Windows@System@@$$FU$AAMXP$AAV1Drawing@5@@Z

; 254  : 			this->anaumeGroup->Location = System::Drawing::Point(125, 14);

  00587	12 3a		 ldloca.s 58	; $S74$
  00589	1f 7d		 ldc.i4.s 125	; i32 0x7d
  0058b	1f 0e		 ldc.i4.s 14	; i32 0xe
  0058d	28 00 00 00 00	 call ??0Point@Drawing@System@@$$FQ$CAM@HH@Z
  00592	02		 ldarg.0 	; this$
  00593	7b 00 00 00 00	 ldfld ?anaumeGroup@MogiTest@Mogitter@@3P$AAVGroupBox@Forms@Windows@System@@$AA
  00598	11 3a		 ldloc.s 58	; $S74$
  0059a	28 00 00 00 00	 call ?set@Location@Control@Forms@Windows@System@@$$FQ$AAMXVPoint@Drawing@5@@Z

; 255  : 			this->anaumeGroup->Name = L"anaumeGroup";

  0059f	02		 ldarg.0 	; this$
  005a0	7b 00 00 00 00	 ldfld ?anaumeGroup@MogiTest@Mogitter@@3P$AAVGroupBox@Forms@Windows@System@@$AA
  005a5	72 00 00 00 00	 ldstr $StringLiteralTok$??_C@_1BI@FMKKAMPO@?$AAa?$AAn?$AAa?$AAu?$AAm?$AAe?$AAG?$AAr?$AAo?$AAu?$AAp?$AA?$AA@
  005aa	28 00 00 00 00	 call ?set@Name@Control@Forms@Windows@System@@$$FQ$AAMXP$AAVString@5@@Z

; 256  : 			this->anaumeGroup->Size = System::Drawing::Size(306, 73);

  005af	12 39		 ldloca.s 57	; $S75$
  005b1	20 32 01 00 00	 ldc.i4 306	; i32 0x132
  005b6	1f 49		 ldc.i4.s 73	; i32 0x49
  005b8	28 00 00 00 00	 call ??0Size@Drawing@System@@$$FQ$CAM@HH@Z
  005bd	02		 ldarg.0 	; this$
  005be	7b 00 00 00 00	 ldfld ?anaumeGroup@MogiTest@Mogitter@@3P$AAVGroupBox@Forms@Windows@System@@$AA
  005c3	11 39		 ldloc.s 57	; $S75$
  005c5	28 00 00 00 00	 call ?set@Size@Control@Forms@Windows@System@@$$FQ$AAMXV1Drawing@5@@Z

; 257  : 			this->anaumeGroup->TabIndex = 6;

  005ca	02		 ldarg.0 	; this$
  005cb	7b 00 00 00 00	 ldfld ?anaumeGroup@MogiTest@Mogitter@@3P$AAVGroupBox@Forms@Windows@System@@$AA
  005d0	1c		 ldc.i.6 6	; i32 0x6
  005d1	28 00 00 00 00	 call ?set@TabIndex@Control@Forms@Windows@System@@$$FQ$AAMXH@Z

; 258  : 			this->anaumeGroup->TabStop = false;

  005d6	02		 ldarg.0 	; this$
  005d7	7b 00 00 00 00	 ldfld ?anaumeGroup@MogiTest@Mogitter@@3P$AAVGroupBox@Forms@Windows@System@@$AA
  005dc	16		 ldc.i.0 0	; u8 0x0
  005dd	28 00 00 00 00	 call ?set@TabStop@GroupBox@Forms@Windows@System@@$$FQ$AAMX_N@Z

; 259  : 			this->anaumeGroup->Text = L"穴埋め問題";

  005e2	02		 ldarg.0 	; this$
  005e3	7b 00 00 00 00	 ldfld ?anaumeGroup@MogiTest@Mogitter@@3P$AAVGroupBox@Forms@Windows@System@@$AA
  005e8	72 00 00 00 00	 ldstr $StringLiteralTok$??_C@_1M@DCEKIGFM@ztW?K0?$IBUO?$JIL?$AA?$AA@
  005ed	6f 00 00 00 00	 callvirt ?set@Text@GroupBox@Forms@Windows@System@@$$FU$AAMXP$AAVString@5@@Z

; 260  : 			// 
; 261  : 			// anaumeAnsBox
; 262  : 			// 
; 263  : 			this->anaumeAnsBox->CausesValidation = false;

  005f2	02		 ldarg.0 	; this$
  005f3	7b 00 00 00 00	 ldfld ?anaumeAnsBox@MogiTest@Mogitter@@3P$AAVRichTextBox@Forms@Windows@System@@$AA
  005f8	16		 ldc.i.0 0	; u8 0x0
  005f9	28 00 00 00 00	 call ?set@CausesValidation@Control@Forms@Windows@System@@$$FQ$AAMX_N@Z

; 264  : 			this->anaumeAnsBox->DetectUrls = false;

  005fe	02		 ldarg.0 	; this$
  005ff	7b 00 00 00 00	 ldfld ?anaumeAnsBox@MogiTest@Mogitter@@3P$AAVRichTextBox@Forms@Windows@System@@$AA
  00604	16		 ldc.i.0 0	; u8 0x0
  00605	28 00 00 00 00	 call ?set@DetectUrls@RichTextBox@Forms@Windows@System@@$$FQ$AAMX_N@Z

; 265  : 			this->anaumeAnsBox->Font = (gcnew System::Drawing::Font(L"メイリオ", 12, System::Drawing::FontStyle::Regular, System::Drawing::GraphicsUnit::Point, 
; 266  : 				static_cast<System::Byte>(128)));

  0060a	02		 ldarg.0 	; this$
  0060b	7b 00 00 00 00	 ldfld ?anaumeAnsBox@MogiTest@Mogitter@@3P$AAVRichTextBox@Forms@Windows@System@@$AA
  00610	72 00 00 00 00	 ldstr $StringLiteralTok$??_C@_19HMEDOBKD@0?a0?$KE0?j0?$KK?$AA?$AA@
  00615	22 00 00 40 41	 ldc.r4 12.000000
  0061a	16		 ldc.i.0 0	; i32 0x0
  0061b	19		 ldc.i.3 3	; i32 0x3
  0061c	20 80 00 00 00	 ldc.i4 128	; u8 0x80
  00621	73 00 00 00 00	 newobj ??0Font@Drawing@System@@$$FQ$AAM@P$AAVString@2@MW4FontStyle@12@W4GraphicsUnit@12@E@Z
  00626	6f 00 00 00 00	 callvirt ?set@Font@RichTextBox@Forms@Windows@System@@$$FU$AAMXP$AAV1Drawing@5@@Z

; 267  : 			this->anaumeAnsBox->HideSelection = false;

  0062b	02		 ldarg.0 	; this$
  0062c	7b 00 00 00 00	 ldfld ?anaumeAnsBox@MogiTest@Mogitter@@3P$AAVRichTextBox@Forms@Windows@System@@$AA
  00631	16		 ldc.i.0 0	; u8 0x0
  00632	28 00 00 00 00	 call ?set@HideSelection@TextBoxBase@Forms@Windows@System@@$$FQ$AAMX_N@Z

; 268  : 			this->anaumeAnsBox->Location = System::Drawing::Point(65, 30);

  00637	12 38		 ldloca.s 56	; $S76$
  00639	1f 41		 ldc.i4.s 65	; i32 0x41
  0063b	1f 1e		 ldc.i4.s 30	; i32 0x1e
  0063d	28 00 00 00 00	 call ??0Point@Drawing@System@@$$FQ$CAM@HH@Z
  00642	02		 ldarg.0 	; this$
  00643	7b 00 00 00 00	 ldfld ?anaumeAnsBox@MogiTest@Mogitter@@3P$AAVRichTextBox@Forms@Windows@System@@$AA
  00648	11 38		 ldloc.s 56	; $S76$
  0064a	28 00 00 00 00	 call ?set@Location@Control@Forms@Windows@System@@$$FQ$AAMXVPoint@Drawing@5@@Z

; 269  : 			this->anaumeAnsBox->MaxLength = 100;

  0064f	02		 ldarg.0 	; this$
  00650	7b 00 00 00 00	 ldfld ?anaumeAnsBox@MogiTest@Mogitter@@3P$AAVRichTextBox@Forms@Windows@System@@$AA
  00655	1f 64		 ldc.i4.s 100	; i32 0x64
  00657	6f 00 00 00 00	 callvirt ?set@MaxLength@RichTextBox@Forms@Windows@System@@$$FU$AAMXH@Z

; 270  : 			this->anaumeAnsBox->Multiline = false;

  0065c	02		 ldarg.0 	; this$
  0065d	7b 00 00 00 00	 ldfld ?anaumeAnsBox@MogiTest@Mogitter@@3P$AAVRichTextBox@Forms@Windows@System@@$AA
  00662	16		 ldc.i.0 0	; u8 0x0
  00663	6f 00 00 00 00	 callvirt ?set@Multiline@RichTextBox@Forms@Windows@System@@$$FU$AAMX_N@Z

; 271  : 			this->anaumeAnsBox->Name = L"anaumeAnsBox";

  00668	02		 ldarg.0 	; this$
  00669	7b 00 00 00 00	 ldfld ?anaumeAnsBox@MogiTest@Mogitter@@3P$AAVRichTextBox@Forms@Windows@System@@$AA
  0066e	72 00 00 00 00	 ldstr $StringLiteralTok$??_C@_1BK@JMMIDEEG@?$AAa?$AAn?$AAa?$AAu?$AAm?$AAe?$AAA?$AAn?$AAs?$AAB?$AAo?$AAx?$AA?$AA@
  00673	28 00 00 00 00	 call ?set@Name@Control@Forms@Windows@System@@$$FQ$AAMXP$AAVString@5@@Z

; 272  : 			this->anaumeAnsBox->ScrollBars = System::Windows::Forms::RichTextBoxScrollBars::Horizontal;

  00678	02		 ldarg.0 	; this$
  00679	7b 00 00 00 00	 ldfld ?anaumeAnsBox@MogiTest@Mogitter@@3P$AAVRichTextBox@Forms@Windows@System@@$AA
  0067e	17		 ldc.i.1 1	; i32 0x1
  0067f	28 00 00 00 00	 call ?set@ScrollBars@RichTextBox@Forms@Windows@System@@$$FQ$AAMXW4RichTextBoxScrollBars@345@@Z

; 273  : 			this->anaumeAnsBox->Size = System::Drawing::Size(235, 30);

  00684	12 37		 ldloca.s 55	; $S77$
  00686	20 eb 00 00 00	 ldc.i4 235	; i32 0xeb
  0068b	1f 1e		 ldc.i4.s 30	; i32 0x1e
  0068d	28 00 00 00 00	 call ??0Size@Drawing@System@@$$FQ$CAM@HH@Z
  00692	02		 ldarg.0 	; this$
  00693	7b 00 00 00 00	 ldfld ?anaumeAnsBox@MogiTest@Mogitter@@3P$AAVRichTextBox@Forms@Windows@System@@$AA
  00698	11 37		 ldloc.s 55	; $S77$
  0069a	28 00 00 00 00	 call ?set@Size@Control@Forms@Windows@System@@$$FQ$AAMXV1Drawing@5@@Z

; 274  : 			this->anaumeAnsBox->TabIndex = 9;

  0069f	02		 ldarg.0 	; this$
  006a0	7b 00 00 00 00	 ldfld ?anaumeAnsBox@MogiTest@Mogitter@@3P$AAVRichTextBox@Forms@Windows@System@@$AA
  006a5	1f 09		 ldc.i4.s 9	; i32 0x9
  006a7	28 00 00 00 00	 call ?set@TabIndex@Control@Forms@Windows@System@@$$FQ$AAMXH@Z

; 275  : 			this->anaumeAnsBox->Text = L"";

  006ac	02		 ldarg.0 	; this$
  006ad	7b 00 00 00 00	 ldfld ?anaumeAnsBox@MogiTest@Mogitter@@3P$AAVRichTextBox@Forms@Windows@System@@$AA
  006b2	72 00 00 00 00	 ldstr $StringLiteralTok$??_C@_11LOCGONAA@?$AA?$AA@
  006b7	6f 00 00 00 00	 callvirt ?set@Text@RichTextBox@Forms@Windows@System@@$$FU$AAMXP$AAVString@5@@Z

; 276  : 			this->anaumeAnsBox->WordWrap = false;

  006bc	02		 ldarg.0 	; this$
  006bd	7b 00 00 00 00	 ldfld ?anaumeAnsBox@MogiTest@Mogitter@@3P$AAVRichTextBox@Forms@Windows@System@@$AA
  006c2	16		 ldc.i.0 0	; u8 0x0
  006c3	28 00 00 00 00	 call ?set@WordWrap@TextBoxBase@Forms@Windows@System@@$$FQ$AAMX_N@Z

; 277  : 			this->anaumeAnsBox->TextChanged += gcnew System::EventHandler(this, &MogiTest::anaumeAnsBox_TextChanged);

  006c8	02		 ldarg.0 	; this$
  006c9	7b 00 00 00 00	 ldfld ?anaumeAnsBox@MogiTest@Mogitter@@3P$AAVRichTextBox@Forms@Windows@System@@$AA
  006ce	02		 ldarg.0 	; this$
  006cf	fe 06 00 00 00
	00		 ldftn ?anaumeAnsBox_TextChanged@MogiTest@Mogitter@@$$FA$AAMXP$AAVObject@System@@P$AAVEventArgs@4@@Z
  006d5	73 00 00 00 00	 newobj ??0EventHandler@System@@$$FQ$AAM@P$AAVObject@1@VIntPtr@1@@Z
  006da	28 00 00 00 00	 call ?add@TextChanged@Control@Forms@Windows@System@@$$FQ$AAMXP$AAVEventHandler@5@@Z

; 278  : 			this->anaumeAnsBox->KeyDown += gcnew System::Windows::Forms::KeyEventHandler(this, &MogiTest::anaumeAnsBox_KeyDown);

  006df	02		 ldarg.0 	; this$
  006e0	7b 00 00 00 00	 ldfld ?anaumeAnsBox@MogiTest@Mogitter@@3P$AAVRichTextBox@Forms@Windows@System@@$AA
  006e5	02		 ldarg.0 	; this$
  006e6	fe 06 00 00 00
	00		 ldftn ?anaumeAnsBox_KeyDown@MogiTest@Mogitter@@$$FA$AAMXP$AAVObject@System@@P$AAVKeyEventArgs@Forms@Windows@4@@Z
  006ec	73 00 00 00 00	 newobj ??0KeyEventHandler@Forms@Windows@System@@$$FQ$AAM@P$AAVObject@3@VIntPtr@3@@Z
  006f1	28 00 00 00 00	 call ?add@KeyDown@Control@Forms@Windows@System@@$$FQ$AAMXP$AAVKeyEventHandler@345@@Z

; 279  : 			// 
; 280  : 			// label4
; 281  : 			// 
; 282  : 			this->label4->AutoSize = true;

  006f6	02		 ldarg.0 	; this$
  006f7	7b 00 00 00 00	 ldfld ?label4@MogiTest@Mogitter@@3P$AAVLabel@Forms@Windows@System@@$AA
  006fc	17		 ldc.i.1 1	; u8 0x1
  006fd	6f 00 00 00 00	 callvirt ?set@AutoSize@Label@Forms@Windows@System@@$$FU$AAMX_N@Z

; 283  : 			this->label4->Font = (gcnew System::Drawing::Font(L"メイリオ", 12, System::Drawing::FontStyle::Regular, System::Drawing::GraphicsUnit::Point, 
; 284  : 				static_cast<System::Byte>(128)));

  00702	02		 ldarg.0 	; this$
  00703	7b 00 00 00 00	 ldfld ?label4@MogiTest@Mogitter@@3P$AAVLabel@Forms@Windows@System@@$AA
  00708	72 00 00 00 00	 ldstr $StringLiteralTok$??_C@_19HMEDOBKD@0?a0?$KE0?j0?$KK?$AA?$AA@
  0070d	22 00 00 40 41	 ldc.r4 12.000000
  00712	16		 ldc.i.0 0	; i32 0x0
  00713	19		 ldc.i.3 3	; i32 0x3
  00714	20 80 00 00 00	 ldc.i4 128	; u8 0x80
  00719	73 00 00 00 00	 newobj ??0Font@Drawing@System@@$$FQ$AAM@P$AAVString@2@MW4FontStyle@12@W4GraphicsUnit@12@E@Z
  0071e	6f 00 00 00 00	 callvirt ?set@Font@Control@Forms@Windows@System@@$$FU$AAMXP$AAV1Drawing@5@@Z

; 285  : 			this->label4->Location = System::Drawing::Point(7, 33);

  00723	12 36		 ldloca.s 54	; $S78$
  00725	1d		 ldc.i.7 7	; i32 0x7
  00726	1f 21		 ldc.i4.s 33	; i32 0x21
  00728	28 00 00 00 00	 call ??0Point@Drawing@System@@$$FQ$CAM@HH@Z
  0072d	02		 ldarg.0 	; this$
  0072e	7b 00 00 00 00	 ldfld ?label4@MogiTest@Mogitter@@3P$AAVLabel@Forms@Windows@System@@$AA
  00733	11 36		 ldloc.s 54	; $S78$
  00735	28 00 00 00 00	 call ?set@Location@Control@Forms@Windows@System@@$$FQ$AAMXVPoint@Drawing@5@@Z

; 286  : 			this->label4->Name = L"label4";

  0073a	02		 ldarg.0 	; this$
  0073b	7b 00 00 00 00	 ldfld ?label4@MogiTest@Mogitter@@3P$AAVLabel@Forms@Windows@System@@$AA
  00740	72 00 00 00 00	 ldstr $StringLiteralTok$??_C@_1O@HGPNGCBO@?$AAl?$AAa?$AAb?$AAe?$AAl?$AA4?$AA?$AA@
  00745	28 00 00 00 00	 call ?set@Name@Control@Forms@Windows@System@@$$FQ$AAMXP$AAVString@5@@Z

; 287  : 			this->label4->Size = System::Drawing::Size(58, 24);

  0074a	12 35		 ldloca.s 53	; $S79$
  0074c	1f 3a		 ldc.i4.s 58	; i32 0x3a
  0074e	1f 18		 ldc.i4.s 24	; i32 0x18
  00750	28 00 00 00 00	 call ??0Size@Drawing@System@@$$FQ$CAM@HH@Z
  00755	02		 ldarg.0 	; this$
  00756	7b 00 00 00 00	 ldfld ?label4@MogiTest@Mogitter@@3P$AAVLabel@Forms@Windows@System@@$AA
  0075b	11 35		 ldloc.s 53	; $S79$
  0075d	28 00 00 00 00	 call ?set@Size@Control@Forms@Windows@System@@$$FQ$AAMXV1Drawing@5@@Z

; 288  : 			this->label4->TabIndex = 8;

  00762	02		 ldarg.0 	; this$
  00763	7b 00 00 00 00	 ldfld ?label4@MogiTest@Mogitter@@3P$AAVLabel@Forms@Windows@System@@$AA
  00768	1e		 ldc.i.8 8	; i32 0x8
  00769	28 00 00 00 00	 call ?set@TabIndex@Control@Forms@Windows@System@@$$FQ$AAMXH@Z

; 289  : 			this->label4->Text = L"解答：";

  0076e	02		 ldarg.0 	; this$
  0076f	7b 00 00 00 00	 ldfld ?label4@MogiTest@Mogitter@@3P$AAVLabel@Forms@Windows@System@@$AA
  00774	72 00 00 00 00	 ldstr $StringLiteralTok$??_C@_17BCCNLFBM@?$IJ?c?$HLT?$PP?$BK?$AA?$AA@
  00779	6f 00 00 00 00	 callvirt ?set@Text@Label@Forms@Windows@System@@$$FU$AAMXP$AAVString@5@@Z

; 290  : 			// 
; 291  : 			// sentakuGroup
; 292  : 			// 
; 293  : 			this->sentakuGroup->BackColor = System::Drawing::Color::Lime;

  0077e	28 00 00 00 00	 call ?get@Lime@Color@Drawing@System@@$$FSM?AV234@XZ
  00783	13 34		 stloc.s 52	; $T4
  00785	02		 ldarg.0 	; this$
  00786	7b 00 00 00 00	 ldfld ?sentakuGroup@MogiTest@Mogitter@@3P$AAVGroupBox@Forms@Windows@System@@$AA
  0078b	11 34		 ldloc.s 52	; $T4
  0078d	6f 00 00 00 00	 callvirt ?set@BackColor@Control@Forms@Windows@System@@$$FU$AAMXVColor@Drawing@5@@Z

; 294  : 			this->sentakuGroup->Controls->Add(this->sentakushiCombo);

  00792	02		 ldarg.0 	; this$
  00793	7b 00 00 00 00	 ldfld ?sentakuGroup@MogiTest@Mogitter@@3P$AAVGroupBox@Forms@Windows@System@@$AA
  00798	28 00 00 00 00	 call ?get@Controls@Control@Forms@Windows@System@@$$FQ$AAMP$AAVControlCollection@2345@XZ
  0079d	02		 ldarg.0 	; this$
  0079e	7b 00 00 00 00	 ldfld ?sentakushiCombo@MogiTest@Mogitter@@3P$AAVComboBox@Forms@Windows@System@@$AA
  007a3	6f 00 00 00 00	 callvirt ?Add@ControlCollection@Control@Forms@Windows@System@@$$FU$AAMXP$AAV2345@@Z

; 295  : 			this->sentakuGroup->Controls->Add(this->label5);

  007a8	02		 ldarg.0 	; this$
  007a9	7b 00 00 00 00	 ldfld ?sentakuGroup@MogiTest@Mogitter@@3P$AAVGroupBox@Forms@Windows@System@@$AA
  007ae	28 00 00 00 00	 call ?get@Controls@Control@Forms@Windows@System@@$$FQ$AAMP$AAVControlCollection@2345@XZ
  007b3	02		 ldarg.0 	; this$
  007b4	7b 00 00 00 00	 ldfld ?label5@MogiTest@Mogitter@@3P$AAVLabel@Forms@Windows@System@@$AA
  007b9	6f 00 00 00 00	 callvirt ?Add@ControlCollection@Control@Forms@Windows@System@@$$FU$AAMXP$AAV2345@@Z

; 296  : 			this->sentakuGroup->Font = (gcnew System::Drawing::Font(L"メイリオ", 9.75F, System::Drawing::FontStyle::Regular, System::Drawing::GraphicsUnit::Point, 
; 297  : 				static_cast<System::Byte>(128)));

  007be	02		 ldarg.0 	; this$
  007bf	7b 00 00 00 00	 ldfld ?sentakuGroup@MogiTest@Mogitter@@3P$AAVGroupBox@Forms@Windows@System@@$AA
  007c4	72 00 00 00 00	 ldstr $StringLiteralTok$??_C@_19HMEDOBKD@0?a0?$KE0?j0?$KK?$AA?$AA@
  007c9	22 00 00 1c 41	 ldc.r4 9.750000
  007ce	16		 ldc.i.0 0	; i32 0x0
  007cf	19		 ldc.i.3 3	; i32 0x3
  007d0	20 80 00 00 00	 ldc.i4 128	; u8 0x80
  007d5	73 00 00 00 00	 newobj ??0Font@Drawing@System@@$$FQ$AAM@P$AAVString@2@MW4FontStyle@12@W4GraphicsUnit@12@E@Z
  007da	6f 00 00 00 00	 callvirt ?set@Font@Control@Forms@Windows@System@@$$FU$AAMXP$AAV1Drawing@5@@Z

; 298  : 			this->sentakuGroup->Location = System::Drawing::Point(437, 586);

  007df	12 33		 ldloca.s 51	; $S80$
  007e1	20 b5 01 00 00	 ldc.i4 437	; i32 0x1b5
  007e6	20 4a 02 00 00	 ldc.i4 586	; i32 0x24a
  007eb	28 00 00 00 00	 call ??0Point@Drawing@System@@$$FQ$CAM@HH@Z
  007f0	02		 ldarg.0 	; this$
  007f1	7b 00 00 00 00	 ldfld ?sentakuGroup@MogiTest@Mogitter@@3P$AAVGroupBox@Forms@Windows@System@@$AA
  007f6	11 33		 ldloc.s 51	; $S80$
  007f8	28 00 00 00 00	 call ?set@Location@Control@Forms@Windows@System@@$$FQ$AAMXVPoint@Drawing@5@@Z

; 299  : 			this->sentakuGroup->Name = L"sentakuGroup";

  007fd	02		 ldarg.0 	; this$
  007fe	7b 00 00 00 00	 ldfld ?sentakuGroup@MogiTest@Mogitter@@3P$AAVGroupBox@Forms@Windows@System@@$AA
  00803	72 00 00 00 00	 ldstr $StringLiteralTok$??_C@_1BK@PBOPCCAN@?$AAs?$AAe?$AAn?$AAt?$AAa?$AAk?$AAu?$AAG?$AAr?$AAo?$AAu?$AAp?$AA?$AA@
  00808	28 00 00 00 00	 call ?set@Name@Control@Forms@Windows@System@@$$FQ$AAMXP$AAVString@5@@Z

; 300  : 			this->sentakuGroup->Size = System::Drawing::Size(276, 73);

  0080d	12 32		 ldloca.s 50	; $S81$
  0080f	20 14 01 00 00	 ldc.i4 276	; i32 0x114
  00814	1f 49		 ldc.i4.s 73	; i32 0x49
  00816	28 00 00 00 00	 call ??0Size@Drawing@System@@$$FQ$CAM@HH@Z
  0081b	02		 ldarg.0 	; this$
  0081c	7b 00 00 00 00	 ldfld ?sentakuGroup@MogiTest@Mogitter@@3P$AAVGroupBox@Forms@Windows@System@@$AA
  00821	11 32		 ldloc.s 50	; $S81$
  00823	28 00 00 00 00	 call ?set@Size@Control@Forms@Windows@System@@$$FQ$AAMXV1Drawing@5@@Z

; 301  : 			this->sentakuGroup->TabIndex = 7;

  00828	02		 ldarg.0 	; this$
  00829	7b 00 00 00 00	 ldfld ?sentakuGroup@MogiTest@Mogitter@@3P$AAVGroupBox@Forms@Windows@System@@$AA
  0082e	1d		 ldc.i.7 7	; i32 0x7
  0082f	28 00 00 00 00	 call ?set@TabIndex@Control@Forms@Windows@System@@$$FQ$AAMXH@Z

; 302  : 			this->sentakuGroup->TabStop = false;

  00834	02		 ldarg.0 	; this$
  00835	7b 00 00 00 00	 ldfld ?sentakuGroup@MogiTest@Mogitter@@3P$AAVGroupBox@Forms@Windows@System@@$AA
  0083a	16		 ldc.i.0 0	; u8 0x0
  0083b	28 00 00 00 00	 call ?set@TabStop@GroupBox@Forms@Windows@System@@$$FQ$AAMX_N@Z

; 303  : 			this->sentakuGroup->Text = L"選択問題";

  00840	02		 ldarg.0 	; this$
  00841	7b 00 00 00 00	 ldfld ?sentakuGroup@MogiTest@Mogitter@@3P$AAVGroupBox@Forms@Windows@System@@$AA
  00846	72 00 00 00 00	 ldstr $StringLiteralTok$??_C@_19DJGCBNBL@?$JAxb?$JOUO?$JIL?$AA?$AA@
  0084b	6f 00 00 00 00	 callvirt ?set@Text@GroupBox@Forms@Windows@System@@$$FU$AAMXP$AAVString@5@@Z

; 304  : 			// 
; 305  : 			// sentakushiCombo
; 306  : 			// 
; 307  : 			this->sentakushiCombo->DropDownStyle = System::Windows::Forms::ComboBoxStyle::DropDownList;

  00850	02		 ldarg.0 	; this$
  00851	7b 00 00 00 00	 ldfld ?sentakushiCombo@MogiTest@Mogitter@@3P$AAVComboBox@Forms@Windows@System@@$AA
  00856	18		 ldc.i.2 2	; i32 0x2
  00857	28 00 00 00 00	 call ?set@DropDownStyle@ComboBox@Forms@Windows@System@@$$FQ$AAMXW4ComboBoxStyle@345@@Z

; 308  : 			this->sentakushiCombo->Font = (gcnew System::Drawing::Font(L"メイリオ", 14.25F, System::Drawing::FontStyle::Regular, System::Drawing::GraphicsUnit::Point, 
; 309  : 				static_cast<System::Byte>(128)));

  0085c	02		 ldarg.0 	; this$
  0085d	7b 00 00 00 00	 ldfld ?sentakushiCombo@MogiTest@Mogitter@@3P$AAVComboBox@Forms@Windows@System@@$AA
  00862	72 00 00 00 00	 ldstr $StringLiteralTok$??_C@_19HMEDOBKD@0?a0?$KE0?j0?$KK?$AA?$AA@
  00867	22 00 00 64 41	 ldc.r4 14.250000
  0086c	16		 ldc.i.0 0	; i32 0x0
  0086d	19		 ldc.i.3 3	; i32 0x3
  0086e	20 80 00 00 00	 ldc.i4 128	; u8 0x80
  00873	73 00 00 00 00	 newobj ??0Font@Drawing@System@@$$FQ$AAM@P$AAVString@2@MW4FontStyle@12@W4GraphicsUnit@12@E@Z
  00878	6f 00 00 00 00	 callvirt ?set@Font@Control@Forms@Windows@System@@$$FU$AAMXP$AAV1Drawing@5@@Z

; 310  : 			this->sentakushiCombo->FormattingEnabled = true;

  0087d	02		 ldarg.0 	; this$
  0087e	7b 00 00 00 00	 ldfld ?sentakushiCombo@MogiTest@Mogitter@@3P$AAVComboBox@Forms@Windows@System@@$AA
  00883	17		 ldc.i.1 1	; u8 0x1
  00884	28 00 00 00 00	 call ?set@FormattingEnabled@ListControl@Forms@Windows@System@@$$FQ$AAMX_N@Z

; 311  : 			this->sentakushiCombo->Location = System::Drawing::Point(70, 27);

  00889	12 31		 ldloca.s 49	; $S82$
  0088b	1f 46		 ldc.i4.s 70	; i32 0x46
  0088d	1f 1b		 ldc.i4.s 27	; i32 0x1b
  0088f	28 00 00 00 00	 call ??0Point@Drawing@System@@$$FQ$CAM@HH@Z
  00894	02		 ldarg.0 	; this$
  00895	7b 00 00 00 00	 ldfld ?sentakushiCombo@MogiTest@Mogitter@@3P$AAVComboBox@Forms@Windows@System@@$AA
  0089a	11 31		 ldloc.s 49	; $S82$
  0089c	28 00 00 00 00	 call ?set@Location@Control@Forms@Windows@System@@$$FQ$AAMXVPoint@Drawing@5@@Z

; 312  : 			this->sentakushiCombo->Name = L"sentakushiCombo";

  008a1	02		 ldarg.0 	; this$
  008a2	7b 00 00 00 00	 ldfld ?sentakushiCombo@MogiTest@Mogitter@@3P$AAVComboBox@Forms@Windows@System@@$AA
  008a7	72 00 00 00 00	 ldstr $StringLiteralTok$??_C@_1CA@OPLIGOPG@?$AAs?$AAe?$AAn?$AAt?$AAa?$AAk?$AAu?$AAs?$AAh?$AAi?$AAC?$AAo?$AAm?$AAb?$AAo?$AA?$AA@
  008ac	28 00 00 00 00	 call ?set@Name@Control@Forms@Windows@System@@$$FQ$AAMXP$AAVString@5@@Z

; 313  : 			this->sentakushiCombo->Size = System::Drawing::Size(200, 36);

  008b1	12 30		 ldloca.s 48	; $S83$
  008b3	20 c8 00 00 00	 ldc.i4 200	; i32 0xc8
  008b8	1f 24		 ldc.i4.s 36	; i32 0x24
  008ba	28 00 00 00 00	 call ??0Size@Drawing@System@@$$FQ$CAM@HH@Z
  008bf	02		 ldarg.0 	; this$
  008c0	7b 00 00 00 00	 ldfld ?sentakushiCombo@MogiTest@Mogitter@@3P$AAVComboBox@Forms@Windows@System@@$AA
  008c5	11 30		 ldloc.s 48	; $S83$
  008c7	28 00 00 00 00	 call ?set@Size@Control@Forms@Windows@System@@$$FQ$AAMXV1Drawing@5@@Z

; 314  : 			this->sentakushiCombo->TabIndex = 8;

  008cc	02		 ldarg.0 	; this$
  008cd	7b 00 00 00 00	 ldfld ?sentakushiCombo@MogiTest@Mogitter@@3P$AAVComboBox@Forms@Windows@System@@$AA
  008d2	1e		 ldc.i.8 8	; i32 0x8
  008d3	28 00 00 00 00	 call ?set@TabIndex@Control@Forms@Windows@System@@$$FQ$AAMXH@Z

; 315  : 			this->sentakushiCombo->SelectionChangeCommitted += gcnew System::EventHandler(this, &MogiTest::sentakushiCombo_SelectionChangeCommitted);

  008d8	02		 ldarg.0 	; this$
  008d9	7b 00 00 00 00	 ldfld ?sentakushiCombo@MogiTest@Mogitter@@3P$AAVComboBox@Forms@Windows@System@@$AA
  008de	02		 ldarg.0 	; this$
  008df	fe 06 00 00 00
	00		 ldftn ?sentakushiCombo_SelectionChangeCommitted@MogiTest@Mogitter@@$$FA$AAMXP$AAVObject@System@@P$AAVEventArgs@4@@Z
  008e5	73 00 00 00 00	 newobj ??0EventHandler@System@@$$FQ$AAM@P$AAVObject@1@VIntPtr@1@@Z
  008ea	28 00 00 00 00	 call ?add@SelectionChangeCommitted@ComboBox@Forms@Windows@System@@$$FQ$AAMXP$AAVEventHandler@5@@Z

; 316  : 			this->sentakushiCombo->KeyDown += gcnew System::Windows::Forms::KeyEventHandler(this, &MogiTest::anaumeAnsBox_KeyDown);

  008ef	02		 ldarg.0 	; this$
  008f0	7b 00 00 00 00	 ldfld ?sentakushiCombo@MogiTest@Mogitter@@3P$AAVComboBox@Forms@Windows@System@@$AA
  008f5	02		 ldarg.0 	; this$
  008f6	fe 06 00 00 00
	00		 ldftn ?anaumeAnsBox_KeyDown@MogiTest@Mogitter@@$$FA$AAMXP$AAVObject@System@@P$AAVKeyEventArgs@Forms@Windows@4@@Z
  008fc	73 00 00 00 00	 newobj ??0KeyEventHandler@Forms@Windows@System@@$$FQ$AAM@P$AAVObject@3@VIntPtr@3@@Z
  00901	28 00 00 00 00	 call ?add@KeyDown@Control@Forms@Windows@System@@$$FQ$AAMXP$AAVKeyEventHandler@345@@Z

; 317  : 			// 
; 318  : 			// label5
; 319  : 			// 
; 320  : 			this->label5->AutoSize = true;

  00906	02		 ldarg.0 	; this$
  00907	7b 00 00 00 00	 ldfld ?label5@MogiTest@Mogitter@@3P$AAVLabel@Forms@Windows@System@@$AA
  0090c	17		 ldc.i.1 1	; u8 0x1
  0090d	6f 00 00 00 00	 callvirt ?set@AutoSize@Label@Forms@Windows@System@@$$FU$AAMX_N@Z

; 321  : 			this->label5->Font = (gcnew System::Drawing::Font(L"メイリオ", 12, System::Drawing::FontStyle::Regular, System::Drawing::GraphicsUnit::Point, 
; 322  : 				static_cast<System::Byte>(128)));

  00912	02		 ldarg.0 	; this$
  00913	7b 00 00 00 00	 ldfld ?label5@MogiTest@Mogitter@@3P$AAVLabel@Forms@Windows@System@@$AA
  00918	72 00 00 00 00	 ldstr $StringLiteralTok$??_C@_19HMEDOBKD@0?a0?$KE0?j0?$KK?$AA?$AA@
  0091d	22 00 00 40 41	 ldc.r4 12.000000
  00922	16		 ldc.i.0 0	; i32 0x0
  00923	19		 ldc.i.3 3	; i32 0x3
  00924	20 80 00 00 00	 ldc.i4 128	; u8 0x80
  00929	73 00 00 00 00	 newobj ??0Font@Drawing@System@@$$FQ$AAM@P$AAVString@2@MW4FontStyle@12@W4GraphicsUnit@12@E@Z
  0092e	6f 00 00 00 00	 callvirt ?set@Font@Control@Forms@Windows@System@@$$FU$AAMXP$AAV1Drawing@5@@Z

; 323  : 			this->label5->Location = System::Drawing::Point(6, 33);

  00933	12 2f		 ldloca.s 47	; $S84$
  00935	1c		 ldc.i.6 6	; i32 0x6
  00936	1f 21		 ldc.i4.s 33	; i32 0x21
  00938	28 00 00 00 00	 call ??0Point@Drawing@System@@$$FQ$CAM@HH@Z
  0093d	02		 ldarg.0 	; this$
  0093e	7b 00 00 00 00	 ldfld ?label5@MogiTest@Mogitter@@3P$AAVLabel@Forms@Windows@System@@$AA
  00943	11 2f		 ldloc.s 47	; $S84$
  00945	28 00 00 00 00	 call ?set@Location@Control@Forms@Windows@System@@$$FQ$AAMXVPoint@Drawing@5@@Z

; 324  : 			this->label5->Name = L"label5";

  0094a	02		 ldarg.0 	; this$
  0094b	7b 00 00 00 00	 ldfld ?label5@MogiTest@Mogitter@@3P$AAVLabel@Forms@Windows@System@@$AA
  00950	72 00 00 00 00	 ldstr $StringLiteralTok$??_C@_1O@MOEBAFHL@?$AAl?$AAa?$AAb?$AAe?$AAl?$AA5?$AA?$AA@
  00955	28 00 00 00 00	 call ?set@Name@Control@Forms@Windows@System@@$$FQ$AAMXP$AAVString@5@@Z

; 325  : 			this->label5->Size = System::Drawing::Size(58, 24);

  0095a	12 2e		 ldloca.s 46	; $S85$
  0095c	1f 3a		 ldc.i4.s 58	; i32 0x3a
  0095e	1f 18		 ldc.i4.s 24	; i32 0x18
  00960	28 00 00 00 00	 call ??0Size@Drawing@System@@$$FQ$CAM@HH@Z
  00965	02		 ldarg.0 	; this$
  00966	7b 00 00 00 00	 ldfld ?label5@MogiTest@Mogitter@@3P$AAVLabel@Forms@Windows@System@@$AA
  0096b	11 2e		 ldloc.s 46	; $S85$
  0096d	28 00 00 00 00	 call ?set@Size@Control@Forms@Windows@System@@$$FQ$AAMXV1Drawing@5@@Z

; 326  : 			this->label5->TabIndex = 10;

  00972	02		 ldarg.0 	; this$
  00973	7b 00 00 00 00	 ldfld ?label5@MogiTest@Mogitter@@3P$AAVLabel@Forms@Windows@System@@$AA
  00978	1f 0a		 ldc.i4.s 10	; i32 0xa
  0097a	28 00 00 00 00	 call ?set@TabIndex@Control@Forms@Windows@System@@$$FQ$AAMXH@Z

; 327  : 			this->label5->Text = L"解答：";

  0097f	02		 ldarg.0 	; this$
  00980	7b 00 00 00 00	 ldfld ?label5@MogiTest@Mogitter@@3P$AAVLabel@Forms@Windows@System@@$AA
  00985	72 00 00 00 00	 ldstr $StringLiteralTok$??_C@_17BCCNLFBM@?$IJ?c?$HLT?$PP?$BK?$AA?$AA@
  0098a	6f 00 00 00 00	 callvirt ?set@Text@Label@Forms@Windows@System@@$$FU$AAMXP$AAVString@5@@Z

; 328  : 			// 
; 329  : 			// marutsukeButton
; 330  : 			// 
; 331  : 			this->marutsukeButton->BackColor = System::Drawing::Color::Ivory;

  0098f	28 00 00 00 00	 call ?get@Ivory@Color@Drawing@System@@$$FSM?AV234@XZ
  00994	13 2d		 stloc.s 45	; $T5
  00996	02		 ldarg.0 	; this$
  00997	7b 00 00 00 00	 ldfld ?marutsukeButton@MogiTest@Mogitter@@3P$AAVButton@Forms@Windows@System@@$AA
  0099c	11 2d		 ldloc.s 45	; $T5
  0099e	6f 00 00 00 00	 callvirt ?set@BackColor@ButtonBase@Forms@Windows@System@@$$FU$AAMXVColor@Drawing@5@@Z

; 332  : 			this->marutsukeButton->BackgroundImageLayout = System::Windows::Forms::ImageLayout::None;

  009a3	02		 ldarg.0 	; this$
  009a4	7b 00 00 00 00	 ldfld ?marutsukeButton@MogiTest@Mogitter@@3P$AAVButton@Forms@Windows@System@@$AA
  009a9	16		 ldc.i.0 0	; i32 0x0
  009aa	6f 00 00 00 00	 callvirt ?set@BackgroundImageLayout@Control@Forms@Windows@System@@$$FU$AAMXW4ImageLayout@345@@Z

; 333  : 			this->marutsukeButton->Font = (gcnew System::Drawing::Font(L"HGP行書体", 24, System::Drawing::FontStyle::Regular, System::Drawing::GraphicsUnit::Point, 
; 334  : 				static_cast<System::Byte>(128)));

  009af	02		 ldarg.0 	; this$
  009b0	7b 00 00 00 00	 ldfld ?marutsukeButton@MogiTest@Mogitter@@3P$AAVButton@Forms@Windows@System@@$AA
  009b5	72 00 00 00 00	 ldstr $StringLiteralTok$??_C@_1O@CJENLHNH@?$AAH?$AAG?$AAP?$IILf?xOS?$AA?$AA@
  009ba	22 00 00 c0 41	 ldc.r4 24.000000
  009bf	16		 ldc.i.0 0	; i32 0x0
  009c0	19		 ldc.i.3 3	; i32 0x3
  009c1	20 80 00 00 00	 ldc.i4 128	; u8 0x80
  009c6	73 00 00 00 00	 newobj ??0Font@Drawing@System@@$$FQ$AAM@P$AAVString@2@MW4FontStyle@12@W4GraphicsUnit@12@E@Z
  009cb	6f 00 00 00 00	 callvirt ?set@Font@Control@Forms@Windows@System@@$$FU$AAMXP$AAV1Drawing@5@@Z

; 335  : 			this->marutsukeButton->ForeColor = System::Drawing::Color::Red;

  009d0	28 00 00 00 00	 call ?get@Red@Color@Drawing@System@@$$FSM?AV234@XZ
  009d5	13 2c		 stloc.s 44	; $T6
  009d7	02		 ldarg.0 	; this$
  009d8	7b 00 00 00 00	 ldfld ?marutsukeButton@MogiTest@Mogitter@@3P$AAVButton@Forms@Windows@System@@$AA
  009dd	11 2c		 ldloc.s 44	; $T6
  009df	6f 00 00 00 00	 callvirt ?set@ForeColor@Control@Forms@Windows@System@@$$FU$AAMXVColor@Drawing@5@@Z

; 336  : 			this->marutsukeButton->Image = (cli::safe_cast<System::Drawing::Image^  >(resources->GetObject(L"marutsukeButton.Image")));

  009e4	02		 ldarg.0 	; this$
  009e5	7b 00 00 00 00	 ldfld ?marutsukeButton@MogiTest@Mogitter@@3P$AAVButton@Forms@Windows@System@@$AA
  009ea	11 09		 ldloc.s 9	; resources$
  009ec	72 00 00 00 00	 ldstr $StringLiteralTok$??_C@_1CM@HJFNPIEN@?$AAm?$AAa?$AAr?$AAu?$AAt?$AAs?$AAu?$AAk?$AAe?$AAB?$AAu?$AAt?$AAt?$AAo?$AAn?$AA?4?$AAI?$AAm?$AAa?$AAg?$AAe?$AA?$AA@
  009f1	6f 00 00 00 00	 callvirt ?GetObject@ResourceManager@Resources@System@@$$FU$AAMP$AAVObject@3@P$AAVString@3@@Z
  009f6	74 00 00 00 00	 castClass $TypeTok$112E73C0$
  009fb	28 00 00 00 00	 call ?set@Image@ButtonBase@Forms@Windows@System@@$$FQ$AAMXP$AAV1Drawing@5@@Z

; 337  : 			this->marutsukeButton->ImageAlign = System::Drawing::ContentAlignment::BottomCenter;

  00a00	02		 ldarg.0 	; this$
  00a01	7b 00 00 00 00	 ldfld ?marutsukeButton@MogiTest@Mogitter@@3P$AAVButton@Forms@Windows@System@@$AA
  00a06	20 00 02 00 00	 ldc.i4 512	; i32 0x200
  00a0b	28 00 00 00 00	 call ?set@ImageAlign@ButtonBase@Forms@Windows@System@@$$FQ$AAMXW4ContentAlignment@Drawing@5@@Z

; 338  : 			this->marutsukeButton->Location = System::Drawing::Point(726, 586);

  00a10	12 2b		 ldloca.s 43	; $S86$
  00a12	20 d6 02 00 00	 ldc.i4 726	; i32 0x2d6
  00a17	20 4a 02 00 00	 ldc.i4 586	; i32 0x24a
  00a1c	28 00 00 00 00	 call ??0Point@Drawing@System@@$$FQ$CAM@HH@Z
  00a21	02		 ldarg.0 	; this$
  00a22	7b 00 00 00 00	 ldfld ?marutsukeButton@MogiTest@Mogitter@@3P$AAVButton@Forms@Windows@System@@$AA
  00a27	11 2b		 ldloc.s 43	; $S86$
  00a29	28 00 00 00 00	 call ?set@Location@Control@Forms@Windows@System@@$$FQ$AAMXVPoint@Drawing@5@@Z

; 339  : 			this->marutsukeButton->Name = L"marutsukeButton";

  00a2e	02		 ldarg.0 	; this$
  00a2f	7b 00 00 00 00	 ldfld ?marutsukeButton@MogiTest@Mogitter@@3P$AAVButton@Forms@Windows@System@@$AA
  00a34	72 00 00 00 00	 ldstr $StringLiteralTok$??_C@_1CA@CIJHGILD@?$AAm?$AAa?$AAr?$AAu?$AAt?$AAs?$AAu?$AAk?$AAe?$AAB?$AAu?$AAt?$AAt?$AAo?$AAn?$AA?$AA@
  00a39	28 00 00 00 00	 call ?set@Name@Control@Forms@Windows@System@@$$FQ$AAMXP$AAVString@5@@Z

; 340  : 			this->marutsukeButton->RightToLeft = System::Windows::Forms::RightToLeft::No;

  00a3e	02		 ldarg.0 	; this$
  00a3f	7b 00 00 00 00	 ldfld ?marutsukeButton@MogiTest@Mogitter@@3P$AAVButton@Forms@Windows@System@@$AA
  00a44	16		 ldc.i.0 0	; i32 0x0
  00a45	6f 00 00 00 00	 callvirt ?set@RightToLeft@Control@Forms@Windows@System@@$$FU$AAMXW41345@@Z

; 341  : 			this->marutsukeButton->Size = System::Drawing::Size(89, 73);

  00a4a	12 2a		 ldloca.s 42	; $S87$
  00a4c	1f 59		 ldc.i4.s 89	; i32 0x59
  00a4e	1f 49		 ldc.i4.s 73	; i32 0x49
  00a50	28 00 00 00 00	 call ??0Size@Drawing@System@@$$FQ$CAM@HH@Z
  00a55	02		 ldarg.0 	; this$
  00a56	7b 00 00 00 00	 ldfld ?marutsukeButton@MogiTest@Mogitter@@3P$AAVButton@Forms@Windows@System@@$AA
  00a5b	11 2a		 ldloc.s 42	; $S87$
  00a5d	28 00 00 00 00	 call ?set@Size@Control@Forms@Windows@System@@$$FQ$AAMXV1Drawing@5@@Z

; 342  : 			this->marutsukeButton->TabIndex = 8;

  00a62	02		 ldarg.0 	; this$
  00a63	7b 00 00 00 00	 ldfld ?marutsukeButton@MogiTest@Mogitter@@3P$AAVButton@Forms@Windows@System@@$AA
  00a68	1e		 ldc.i.8 8	; i32 0x8
  00a69	28 00 00 00 00	 call ?set@TabIndex@Control@Forms@Windows@System@@$$FQ$AAMXH@Z

; 343  : 			this->marutsukeButton->Text = L"採点";

  00a6e	02		 ldarg.0 	; this$
  00a6f	7b 00 00 00 00	 ldfld ?marutsukeButton@MogiTest@Mogitter@@3P$AAVButton@Forms@Windows@System@@$AA
  00a74	72 00 00 00 00	 ldstr $StringLiteralTok$??_C@_15HGGEPIMK@c?$KBp?$LJ?$AA?$AA@
  00a79	6f 00 00 00 00	 callvirt ?set@Text@ButtonBase@Forms@Windows@System@@$$FU$AAMXP$AAVString@5@@Z

; 344  : 			this->marutsukeButton->TextAlign = System::Drawing::ContentAlignment::TopCenter;

  00a7e	02		 ldarg.0 	; this$
  00a7f	7b 00 00 00 00	 ldfld ?marutsukeButton@MogiTest@Mogitter@@3P$AAVButton@Forms@Windows@System@@$AA
  00a84	18		 ldc.i.2 2	; i32 0x2
  00a85	6f 00 00 00 00	 callvirt ?set@TextAlign@ButtonBase@Forms@Windows@System@@$$FU$AAMXW4ContentAlignment@Drawing@5@@Z

; 345  : 			this->marutsukeButton->UseVisualStyleBackColor = false;

  00a8a	02		 ldarg.0 	; this$
  00a8b	7b 00 00 00 00	 ldfld ?marutsukeButton@MogiTest@Mogitter@@3P$AAVButton@Forms@Windows@System@@$AA
  00a90	16		 ldc.i.0 0	; u8 0x0
  00a91	28 00 00 00 00	 call ?set@UseVisualStyleBackColor@ButtonBase@Forms@Windows@System@@$$FQ$AAMX_N@Z

; 346  : 			this->marutsukeButton->Click += gcnew System::EventHandler(this, &MogiTest::marutsukeButton_Click);

  00a96	02		 ldarg.0 	; this$
  00a97	7b 00 00 00 00	 ldfld ?marutsukeButton@MogiTest@Mogitter@@3P$AAVButton@Forms@Windows@System@@$AA
  00a9c	02		 ldarg.0 	; this$
  00a9d	fe 06 00 00 00
	00		 ldftn ?marutsukeButton_Click@MogiTest@Mogitter@@$$FA$AAMXP$AAVObject@System@@P$AAVEventArgs@4@@Z
  00aa3	73 00 00 00 00	 newobj ??0EventHandler@System@@$$FQ$AAM@P$AAVObject@1@VIntPtr@1@@Z
  00aa8	28 00 00 00 00	 call ?add@Click@Control@Forms@Windows@System@@$$FQ$AAMXP$AAVEventHandler@5@@Z

; 347  : 			// 
; 348  : 			// menuStrip1
; 349  : 			// 
; 350  : 			this->menuStrip1->Items->AddRange(gcnew cli::array< System::Windows::Forms::ToolStripItem^  >(3) {this->FileMenuItem, this->ToolMenuItem, 
; 351  : 				this->HelpMenu});

  00aad	19		 ldc.i.3 3	; i32 0x3
  00aae	8d 00 00 00 00	 newarr $TypeTok$116E771C$
  00ab3	13 04		 stloc.s 4	; $S88$
  00ab5	11 04		 ldloc.s 4	; $S88$
  00ab7	16		 ldc.i.0 0	; i32 0x0
  00ab8	02		 ldarg.0 	; this$
  00ab9	7b 00 00 00 00	 ldfld ?FileMenuItem@MogiTest@Mogitter@@3P$AAVToolStripMenuItem@Forms@Windows@System@@$AA
  00abe	a2		 stelem.ref 
  00abf	11 04		 ldloc.s 4	; $S88$
  00ac1	17		 ldc.i.1 1	; i32 0x1
  00ac2	02		 ldarg.0 	; this$
  00ac3	7b 00 00 00 00	 ldfld ?ToolMenuItem@MogiTest@Mogitter@@3P$AAVToolStripMenuItem@Forms@Windows@System@@$AA
  00ac8	a2		 stelem.ref 
  00ac9	11 04		 ldloc.s 4	; $S88$
  00acb	18		 ldc.i.2 2	; i32 0x2
  00acc	02		 ldarg.0 	; this$
  00acd	7b 00 00 00 00	 ldfld ?HelpMenu@MogiTest@Mogitter@@3P$AAVToolStripMenuItem@Forms@Windows@System@@$AA
  00ad2	a2		 stelem.ref 
  00ad3	02		 ldarg.0 	; this$
  00ad4	7b 00 00 00 00	 ldfld ?menuStrip1@MogiTest@Mogitter@@3P$AAVMenuStrip@Forms@Windows@System@@$AA
  00ad9	6f 00 00 00 00	 callvirt ?get@Items@ToolStrip@Forms@Windows@System@@$$FU$AAMP$AAVToolStripItemCollection@345@XZ
  00ade	11 04		 ldloc.s 4	; $S88$
  00ae0	28 00 00 00 00	 call ?AddRange@ToolStripItemCollection@Forms@Windows@System@@$$FQ$AAMXP$01AP$AAVToolStripItem@234@@Z

; 352  : 			this->menuStrip1->Location = System::Drawing::Point(0, 0);

  00ae5	12 29		 ldloca.s 41	; $S89$
  00ae7	16		 ldc.i.0 0	; i32 0x0
  00ae8	16		 ldc.i.0 0	; i32 0x0
  00ae9	28 00 00 00 00	 call ??0Point@Drawing@System@@$$FQ$CAM@HH@Z
  00aee	02		 ldarg.0 	; this$
  00aef	7b 00 00 00 00	 ldfld ?menuStrip1@MogiTest@Mogitter@@3P$AAVMenuStrip@Forms@Windows@System@@$AA
  00af4	11 29		 ldloc.s 41	; $S89$
  00af6	28 00 00 00 00	 call ?set@Location@Control@Forms@Windows@System@@$$FQ$AAMXVPoint@Drawing@5@@Z

; 353  : 			this->menuStrip1->Name = L"menuStrip1";

  00afb	02		 ldarg.0 	; this$
  00afc	7b 00 00 00 00	 ldfld ?menuStrip1@MogiTest@Mogitter@@3P$AAVMenuStrip@Forms@Windows@System@@$AA
  00b01	72 00 00 00 00	 ldstr $StringLiteralTok$??_C@_1BG@LKBBJCPC@?$AAm?$AAe?$AAn?$AAu?$AAS?$AAt?$AAr?$AAi?$AAp?$AA1?$AA?$AA@
  00b06	28 00 00 00 00	 call ?set@Name@Control@Forms@Windows@System@@$$FQ$AAMXP$AAVString@5@@Z

; 354  : 			this->menuStrip1->RenderMode = System::Windows::Forms::ToolStripRenderMode::Professional;

  00b0b	02		 ldarg.0 	; this$
  00b0c	7b 00 00 00 00	 ldfld ?menuStrip1@MogiTest@Mogitter@@3P$AAVMenuStrip@Forms@Windows@System@@$AA
  00b11	18		 ldc.i.2 2	; i32 0x2
  00b12	28 00 00 00 00	 call ?set@RenderMode@ToolStrip@Forms@Windows@System@@$$FQ$AAMXW4ToolStripRenderMode@345@@Z

; 355  : 			this->menuStrip1->Size = System::Drawing::Size(827, 26);

  00b17	12 28		 ldloca.s 40	; $S90$
  00b19	20 3b 03 00 00	 ldc.i4 827	; i32 0x33b
  00b1e	1f 1a		 ldc.i4.s 26	; i32 0x1a
  00b20	28 00 00 00 00	 call ??0Size@Drawing@System@@$$FQ$CAM@HH@Z
  00b25	02		 ldarg.0 	; this$
  00b26	7b 00 00 00 00	 ldfld ?menuStrip1@MogiTest@Mogitter@@3P$AAVMenuStrip@Forms@Windows@System@@$AA
  00b2b	11 28		 ldloc.s 40	; $S90$
  00b2d	28 00 00 00 00	 call ?set@Size@Control@Forms@Windows@System@@$$FQ$AAMXV1Drawing@5@@Z

; 356  : 			this->menuStrip1->TabIndex = 9;

  00b32	02		 ldarg.0 	; this$
  00b33	7b 00 00 00 00	 ldfld ?menuStrip1@MogiTest@Mogitter@@3P$AAVMenuStrip@Forms@Windows@System@@$AA
  00b38	1f 09		 ldc.i4.s 9	; i32 0x9
  00b3a	28 00 00 00 00	 call ?set@TabIndex@Control@Forms@Windows@System@@$$FQ$AAMXH@Z

; 357  : 			this->menuStrip1->Text = L"menuStrip1";

  00b3f	02		 ldarg.0 	; this$
  00b40	7b 00 00 00 00	 ldfld ?menuStrip1@MogiTest@Mogitter@@3P$AAVMenuStrip@Forms@Windows@System@@$AA
  00b45	72 00 00 00 00	 ldstr $StringLiteralTok$??_C@_1BG@LKBBJCPC@?$AAm?$AAe?$AAn?$AAu?$AAS?$AAt?$AAr?$AAi?$AAp?$AA1?$AA?$AA@
  00b4a	6f 00 00 00 00	 callvirt ?set@Text@Control@Forms@Windows@System@@$$FU$AAMXP$AAVString@5@@Z

; 358  : 			// 
; 359  : 			// FileMenuItem
; 360  : 			// 
; 361  : 			this->FileMenuItem->DropDownItems->AddRange(gcnew cli::array< System::Windows::Forms::ToolStripItem^  >(5) {this->openMenuItem, 
; 362  : 				this->toolStripSeparator, this->exportMenuItem, this->toolStripSeparator1, this->endMenuItem});

  00b4f	1b		 ldc.i.5 5	; i32 0x5
  00b50	8d 00 00 00 00	 newarr $TypeTok$116E771C$
  00b55	0a		 stloc.0 	; $S91$
  00b56	06		 ldloc.0 	; $S91$
  00b57	16		 ldc.i.0 0	; i32 0x0
  00b58	02		 ldarg.0 	; this$
  00b59	7b 00 00 00 00	 ldfld ?openMenuItem@MogiTest@Mogitter@@3P$AAVToolStripMenuItem@Forms@Windows@System@@$AA
  00b5e	a2		 stelem.ref 
  00b5f	06		 ldloc.0 	; $S91$
  00b60	17		 ldc.i.1 1	; i32 0x1
  00b61	02		 ldarg.0 	; this$
  00b62	7b 00 00 00 00	 ldfld ?toolStripSeparator@MogiTest@Mogitter@@3P$AAVToolStripSeparator@Forms@Windows@System@@$AA
  00b67	a2		 stelem.ref 
  00b68	06		 ldloc.0 	; $S91$
  00b69	18		 ldc.i.2 2	; i32 0x2
  00b6a	02		 ldarg.0 	; this$
  00b6b	7b 00 00 00 00	 ldfld ?exportMenuItem@MogiTest@Mogitter@@3P$AAVToolStripMenuItem@Forms@Windows@System@@$AA
  00b70	a2		 stelem.ref 
  00b71	06		 ldloc.0 	; $S91$
  00b72	19		 ldc.i.3 3	; i32 0x3
  00b73	02		 ldarg.0 	; this$
  00b74	7b 00 00 00 00	 ldfld ?toolStripSeparator1@MogiTest@Mogitter@@3P$AAVToolStripSeparator@Forms@Windows@System@@$AA
  00b79	a2		 stelem.ref 
  00b7a	06		 ldloc.0 	; $S91$
  00b7b	1a		 ldc.i.4 4	; i32 0x4
  00b7c	02		 ldarg.0 	; this$
  00b7d	7b 00 00 00 00	 ldfld ?endMenuItem@MogiTest@Mogitter@@3P$AAVToolStripMenuItem@Forms@Windows@System@@$AA
  00b82	a2		 stelem.ref 
  00b83	02		 ldarg.0 	; this$
  00b84	7b 00 00 00 00	 ldfld ?FileMenuItem@MogiTest@Mogitter@@3P$AAVToolStripMenuItem@Forms@Windows@System@@$AA
  00b89	28 00 00 00 00	 call ?get@DropDownItems@ToolStripDropDownItem@Forms@Windows@System@@$$FQ$AAMP$AAVToolStripItemCollection@345@XZ
  00b8e	06		 ldloc.0 	; $S91$
  00b8f	28 00 00 00 00	 call ?AddRange@ToolStripItemCollection@Forms@Windows@System@@$$FQ$AAMXP$01AP$AAVToolStripItem@234@@Z

; 363  : 			this->FileMenuItem->Name = L"FileMenuItem";

  00b94	02		 ldarg.0 	; this$
  00b95	7b 00 00 00 00	 ldfld ?FileMenuItem@MogiTest@Mogitter@@3P$AAVToolStripMenuItem@Forms@Windows@System@@$AA
  00b9a	72 00 00 00 00	 ldstr $StringLiteralTok$??_C@_1BK@KJNJEDGP@?$AAF?$AAi?$AAl?$AAe?$AAM?$AAe?$AAn?$AAu?$AAI?$AAt?$AAe?$AAm?$AA?$AA@
  00b9f	28 00 00 00 00	 call ?set@Name@ToolStripItem@Forms@Windows@System@@$$FQ$AAMXP$AAVString@5@@Z

; 364  : 			this->FileMenuItem->Size = System::Drawing::Size(85, 22);

  00ba4	12 27		 ldloca.s 39	; $S92$
  00ba6	1f 55		 ldc.i4.s 85	; i32 0x55
  00ba8	1f 16		 ldc.i4.s 22	; i32 0x16
  00baa	28 00 00 00 00	 call ??0Size@Drawing@System@@$$FQ$CAM@HH@Z
  00baf	02		 ldarg.0 	; this$
  00bb0	7b 00 00 00 00	 ldfld ?FileMenuItem@MogiTest@Mogitter@@3P$AAVToolStripMenuItem@Forms@Windows@System@@$AA
  00bb5	11 27		 ldloc.s 39	; $S92$
  00bb7	6f 00 00 00 00	 callvirt ?set@Size@ToolStripItem@Forms@Windows@System@@$$FU$AAMXV1Drawing@5@@Z

; 365  : 			this->FileMenuItem->Text = L"ファイル(&F)";

  00bbc	02		 ldarg.0 	; this$
  00bbd	7b 00 00 00 00	 ldfld ?FileMenuItem@MogiTest@Mogitter@@3P$AAVToolStripMenuItem@Forms@Windows@System@@$AA
  00bc2	72 00 00 00 00	 ldstr $StringLiteralTok$??_C@_1BC@HAKDKOCG@0?U0?$KB0?$KE0?k?$AA?$CI?$AA?$CG?$AAF?$AA?$CJ?$AA?$AA@
  00bc7	6f 00 00 00 00	 callvirt ?set@Text@ToolStripItem@Forms@Windows@System@@$$FU$AAMXP$AAVString@5@@Z

; 366  : 			// 
; 367  : 			// openMenuItem
; 368  : 			// 
; 369  : 			this->openMenuItem->ImageTransparentColor = System::Drawing::Color::Magenta;

  00bcc	28 00 00 00 00	 call ?get@Magenta@Color@Drawing@System@@$$FSM?AV234@XZ
  00bd1	13 26		 stloc.s 38	; $T7
  00bd3	02		 ldarg.0 	; this$
  00bd4	7b 00 00 00 00	 ldfld ?openMenuItem@MogiTest@Mogitter@@3P$AAVToolStripMenuItem@Forms@Windows@System@@$AA
  00bd9	11 26		 ldloc.s 38	; $T7
  00bdb	28 00 00 00 00	 call ?set@ImageTransparentColor@ToolStripItem@Forms@Windows@System@@$$FQ$AAMXVColor@Drawing@5@@Z

; 370  : 			this->openMenuItem->Name = L"openMenuItem";

  00be0	02		 ldarg.0 	; this$
  00be1	7b 00 00 00 00	 ldfld ?openMenuItem@MogiTest@Mogitter@@3P$AAVToolStripMenuItem@Forms@Windows@System@@$AA
  00be6	72 00 00 00 00	 ldstr $StringLiteralTok$??_C@_1BK@CEGCIHOJ@?$AAo?$AAp?$AAe?$AAn?$AAM?$AAe?$AAn?$AAu?$AAI?$AAt?$AAe?$AAm?$AA?$AA@
  00beb	28 00 00 00 00	 call ?set@Name@ToolStripItem@Forms@Windows@System@@$$FQ$AAMXP$AAVString@5@@Z

; 371  : 			this->openMenuItem->Size = System::Drawing::Size(190, 22);

  00bf0	12 25		 ldloca.s 37	; $S93$
  00bf2	20 be 00 00 00	 ldc.i4 190	; i32 0xbe
  00bf7	1f 16		 ldc.i4.s 22	; i32 0x16
  00bf9	28 00 00 00 00	 call ??0Size@Drawing@System@@$$FQ$CAM@HH@Z
  00bfe	02		 ldarg.0 	; this$
  00bff	7b 00 00 00 00	 ldfld ?openMenuItem@MogiTest@Mogitter@@3P$AAVToolStripMenuItem@Forms@Windows@System@@$AA
  00c04	11 25		 ldloc.s 37	; $S93$
  00c06	6f 00 00 00 00	 callvirt ?set@Size@ToolStripItem@Forms@Windows@System@@$$FU$AAMXV1Drawing@5@@Z

; 372  : 			this->openMenuItem->Text = L"開く(&O)";

  00c0b	02		 ldarg.0 	; this$
  00c0c	7b 00 00 00 00	 ldfld ?openMenuItem@MogiTest@Mogitter@@3P$AAVToolStripMenuItem@Forms@Windows@System@@$AA
  00c11	72 00 00 00 00	 ldstr $StringLiteralTok$??_C@_1O@MBHHHBIM@?$JF?$IL0O?$AA?$CI?$AA?$CG?$AAO?$AA?$CJ?$AA?$AA@
  00c16	6f 00 00 00 00	 callvirt ?set@Text@ToolStripItem@Forms@Windows@System@@$$FU$AAMXP$AAVString@5@@Z

; 373  : 			this->openMenuItem->Click += gcnew System::EventHandler(this, &MogiTest::openMenuItem_Click);

  00c1b	02		 ldarg.0 	; this$
  00c1c	7b 00 00 00 00	 ldfld ?openMenuItem@MogiTest@Mogitter@@3P$AAVToolStripMenuItem@Forms@Windows@System@@$AA
  00c21	02		 ldarg.0 	; this$
  00c22	fe 06 00 00 00
	00		 ldftn ?openMenuItem_Click@MogiTest@Mogitter@@$$FA$AAMXP$AAVObject@System@@P$AAVEventArgs@4@@Z
  00c28	73 00 00 00 00	 newobj ??0EventHandler@System@@$$FQ$AAM@P$AAVObject@1@VIntPtr@1@@Z
  00c2d	28 00 00 00 00	 call ?add@Click@ToolStripItem@Forms@Windows@System@@$$FQ$AAMXP$AAVEventHandler@5@@Z

; 374  : 			// 
; 375  : 			// toolStripSeparator
; 376  : 			// 
; 377  : 			this->toolStripSeparator->Name = L"toolStripSeparator";

  00c32	02		 ldarg.0 	; this$
  00c33	7b 00 00 00 00	 ldfld ?toolStripSeparator@MogiTest@Mogitter@@3P$AAVToolStripSeparator@Forms@Windows@System@@$AA
  00c38	72 00 00 00 00	 ldstr $StringLiteralTok$??_C@_1CG@CLECPKCF@?$AAt?$AAo?$AAo?$AAl?$AAS?$AAt?$AAr?$AAi?$AAp?$AAS?$AAe?$AAp?$AAa?$AAr?$AAa?$AAt?$AAo?$AAr?$AA?$AA@
  00c3d	28 00 00 00 00	 call ?set@Name@ToolStripItem@Forms@Windows@System@@$$FQ$AAMXP$AAVString@5@@Z

; 378  : 			this->toolStripSeparator->Size = System::Drawing::Size(187, 6);

  00c42	12 24		 ldloca.s 36	; $S94$
  00c44	20 bb 00 00 00	 ldc.i4 187	; i32 0xbb
  00c49	1c		 ldc.i.6 6	; i32 0x6
  00c4a	28 00 00 00 00	 call ??0Size@Drawing@System@@$$FQ$CAM@HH@Z
  00c4f	02		 ldarg.0 	; this$
  00c50	7b 00 00 00 00	 ldfld ?toolStripSeparator@MogiTest@Mogitter@@3P$AAVToolStripSeparator@Forms@Windows@System@@$AA
  00c55	11 24		 ldloc.s 36	; $S94$
  00c57	6f 00 00 00 00	 callvirt ?set@Size@ToolStripItem@Forms@Windows@System@@$$FU$AAMXV1Drawing@5@@Z

; 379  : 			// 
; 380  : 			// exportMenuItem
; 381  : 			// 
; 382  : 			this->exportMenuItem->Name = L"exportMenuItem";

  00c5c	02		 ldarg.0 	; this$
  00c5d	7b 00 00 00 00	 ldfld ?exportMenuItem@MogiTest@Mogitter@@3P$AAVToolStripMenuItem@Forms@Windows@System@@$AA
  00c62	72 00 00 00 00	 ldstr $StringLiteralTok$??_C@_1BO@DCHLDNNP@?$AAe?$AAx?$AAp?$AAo?$AAr?$AAt?$AAM?$AAe?$AAn?$AAu?$AAI?$AAt?$AAe?$AAm?$AA?$AA@
  00c67	28 00 00 00 00	 call ?set@Name@ToolStripItem@Forms@Windows@System@@$$FQ$AAMXP$AAVString@5@@Z

; 383  : 			this->exportMenuItem->Size = System::Drawing::Size(190, 22);

  00c6c	12 23		 ldloca.s 35	; $S95$
  00c6e	20 be 00 00 00	 ldc.i4 190	; i32 0xbe
  00c73	1f 16		 ldc.i4.s 22	; i32 0x16
  00c75	28 00 00 00 00	 call ??0Size@Drawing@System@@$$FQ$CAM@HH@Z
  00c7a	02		 ldarg.0 	; this$
  00c7b	7b 00 00 00 00	 ldfld ?exportMenuItem@MogiTest@Mogitter@@3P$AAVToolStripMenuItem@Forms@Windows@System@@$AA
  00c80	11 23		 ldloc.s 35	; $S95$
  00c82	6f 00 00 00 00	 callvirt ?set@Size@ToolStripItem@Forms@Windows@System@@$$FU$AAMXV1Drawing@5@@Z

; 384  : 			this->exportMenuItem->Text = L"名前を付けて保存(&A)";

  00c87	02		 ldarg.0 	; this$
  00c88	7b 00 00 00 00	 ldfld ?exportMenuItem@MogiTest@Mogitter@@3P$AAVToolStripMenuItem@Forms@Windows@System@@$AA
  00c8d	72 00 00 00 00	 ldstr $StringLiteralTok$??_C@_1BK@LNCMEKJH@T?$ANRM0?$JCN?X0Q0fO?$NN?$FLX?$AA?$CI?$AA?$CG?$AAA?$AA?$CJ?$AA?$AA@
  00c92	6f 00 00 00 00	 callvirt ?set@Text@ToolStripItem@Forms@Windows@System@@$$FU$AAMXP$AAVString@5@@Z

; 385  : 			this->exportMenuItem->Click += gcnew System::EventHandler(this, &MogiTest::exportMenuItem_Click);

  00c97	02		 ldarg.0 	; this$
  00c98	7b 00 00 00 00	 ldfld ?exportMenuItem@MogiTest@Mogitter@@3P$AAVToolStripMenuItem@Forms@Windows@System@@$AA
  00c9d	02		 ldarg.0 	; this$
  00c9e	fe 06 00 00 00
	00		 ldftn ?exportMenuItem_Click@MogiTest@Mogitter@@$$FA$AAMXP$AAVObject@System@@P$AAVEventArgs@4@@Z
  00ca4	73 00 00 00 00	 newobj ??0EventHandler@System@@$$FQ$AAM@P$AAVObject@1@VIntPtr@1@@Z
  00ca9	28 00 00 00 00	 call ?add@Click@ToolStripItem@Forms@Windows@System@@$$FQ$AAMXP$AAVEventHandler@5@@Z

; 386  : 			// 
; 387  : 			// toolStripSeparator1
; 388  : 			// 
; 389  : 			this->toolStripSeparator1->Name = L"toolStripSeparator1";

  00cae	02		 ldarg.0 	; this$
  00caf	7b 00 00 00 00	 ldfld ?toolStripSeparator1@MogiTest@Mogitter@@3P$AAVToolStripSeparator@Forms@Windows@System@@$AA
  00cb4	72 00 00 00 00	 ldstr $StringLiteralTok$??_C@_1CI@PNAMHPGD@?$AAt?$AAo?$AAo?$AAl?$AAS?$AAt?$AAr?$AAi?$AAp?$AAS?$AAe?$AAp?$AAa?$AAr?$AAa?$AAt?$AAo?$AAr?$AA1?$AA?$AA@
  00cb9	28 00 00 00 00	 call ?set@Name@ToolStripItem@Forms@Windows@System@@$$FQ$AAMXP$AAVString@5@@Z

; 390  : 			this->toolStripSeparator1->Size = System::Drawing::Size(187, 6);

  00cbe	12 22		 ldloca.s 34	; $S96$
  00cc0	20 bb 00 00 00	 ldc.i4 187	; i32 0xbb
  00cc5	1c		 ldc.i.6 6	; i32 0x6
  00cc6	28 00 00 00 00	 call ??0Size@Drawing@System@@$$FQ$CAM@HH@Z
  00ccb	02		 ldarg.0 	; this$
  00ccc	7b 00 00 00 00	 ldfld ?toolStripSeparator1@MogiTest@Mogitter@@3P$AAVToolStripSeparator@Forms@Windows@System@@$AA
  00cd1	11 22		 ldloc.s 34	; $S96$
  00cd3	6f 00 00 00 00	 callvirt ?set@Size@ToolStripItem@Forms@Windows@System@@$$FU$AAMXV1Drawing@5@@Z

; 391  : 			// 
; 392  : 			// endMenuItem
; 393  : 			// 
; 394  : 			this->endMenuItem->Name = L"endMenuItem";

  00cd8	02		 ldarg.0 	; this$
  00cd9	7b 00 00 00 00	 ldfld ?endMenuItem@MogiTest@Mogitter@@3P$AAVToolStripMenuItem@Forms@Windows@System@@$AA
  00cde	72 00 00 00 00	 ldstr $StringLiteralTok$??_C@_1BI@KOMMNNMI@?$AAe?$AAn?$AAd?$AAM?$AAe?$AAn?$AAu?$AAI?$AAt?$AAe?$AAm?$AA?$AA@
  00ce3	28 00 00 00 00	 call ?set@Name@ToolStripItem@Forms@Windows@System@@$$FQ$AAMXP$AAVString@5@@Z

; 395  : 			this->endMenuItem->Size = System::Drawing::Size(190, 22);

  00ce8	12 21		 ldloca.s 33	; $S97$
  00cea	20 be 00 00 00	 ldc.i4 190	; i32 0xbe
  00cef	1f 16		 ldc.i4.s 22	; i32 0x16
  00cf1	28 00 00 00 00	 call ??0Size@Drawing@System@@$$FQ$CAM@HH@Z
  00cf6	02		 ldarg.0 	; this$
  00cf7	7b 00 00 00 00	 ldfld ?endMenuItem@MogiTest@Mogitter@@3P$AAVToolStripMenuItem@Forms@Windows@System@@$AA
  00cfc	11 21		 ldloc.s 33	; $S97$
  00cfe	6f 00 00 00 00	 callvirt ?set@Size@ToolStripItem@Forms@Windows@System@@$$FU$AAMXV1Drawing@5@@Z

; 396  : 			this->endMenuItem->Text = L"終了(&X)";

  00d03	02		 ldarg.0 	; this$
  00d04	7b 00 00 00 00	 ldfld ?endMenuItem@MogiTest@Mogitter@@3P$AAVToolStripMenuItem@Forms@Windows@System@@$AA
  00d09	72 00 00 00 00	 ldstr $StringLiteralTok$??_C@_1O@CGPLBDKM@?$HNBN?$IG?$AA?$CI?$AA?$CG?$AAX?$AA?$CJ?$AA?$AA@
  00d0e	6f 00 00 00 00	 callvirt ?set@Text@ToolStripItem@Forms@Windows@System@@$$FU$AAMXP$AAVString@5@@Z

; 397  : 			this->endMenuItem->Click += gcnew System::EventHandler(this, &MogiTest::endMenuItem_Click);

  00d13	02		 ldarg.0 	; this$
  00d14	7b 00 00 00 00	 ldfld ?endMenuItem@MogiTest@Mogitter@@3P$AAVToolStripMenuItem@Forms@Windows@System@@$AA
  00d19	02		 ldarg.0 	; this$
  00d1a	fe 06 00 00 00
	00		 ldftn ?endMenuItem_Click@MogiTest@Mogitter@@$$FA$AAMXP$AAVObject@System@@P$AAVEventArgs@4@@Z
  00d20	73 00 00 00 00	 newobj ??0EventHandler@System@@$$FQ$AAM@P$AAVObject@1@VIntPtr@1@@Z
  00d25	28 00 00 00 00	 call ?add@Click@ToolStripItem@Forms@Windows@System@@$$FQ$AAMXP$AAVEventHandler@5@@Z

; 398  : 			// 
; 399  : 			// ToolMenuItem
; 400  : 			// 
; 401  : 			this->ToolMenuItem->DropDownItems->AddRange(gcnew cli::array< System::Windows::Forms::ToolStripItem^  >(1) {this->optionMenuItem});

  00d2a	17		 ldc.i.1 1	; i32 0x1
  00d2b	8d 00 00 00 00	 newarr $TypeTok$116E771C$
  00d30	13 08		 stloc.s 8	; $S98$
  00d32	11 08		 ldloc.s 8	; $S98$
  00d34	16		 ldc.i.0 0	; i32 0x0
  00d35	02		 ldarg.0 	; this$
  00d36	7b 00 00 00 00	 ldfld ?optionMenuItem@MogiTest@Mogitter@@3P$AAVToolStripMenuItem@Forms@Windows@System@@$AA
  00d3b	a2		 stelem.ref 
  00d3c	02		 ldarg.0 	; this$
  00d3d	7b 00 00 00 00	 ldfld ?ToolMenuItem@MogiTest@Mogitter@@3P$AAVToolStripMenuItem@Forms@Windows@System@@$AA
  00d42	28 00 00 00 00	 call ?get@DropDownItems@ToolStripDropDownItem@Forms@Windows@System@@$$FQ$AAMP$AAVToolStripItemCollection@345@XZ
  00d47	11 08		 ldloc.s 8	; $S98$
  00d49	28 00 00 00 00	 call ?AddRange@ToolStripItemCollection@Forms@Windows@System@@$$FQ$AAMXP$01AP$AAVToolStripItem@234@@Z

; 402  : 			this->ToolMenuItem->Name = L"ToolMenuItem";

  00d4e	02		 ldarg.0 	; this$
  00d4f	7b 00 00 00 00	 ldfld ?ToolMenuItem@MogiTest@Mogitter@@3P$AAVToolStripMenuItem@Forms@Windows@System@@$AA
  00d54	72 00 00 00 00	 ldstr $StringLiteralTok$??_C@_1BK@GHDIEBJM@?$AAT?$AAo?$AAo?$AAl?$AAM?$AAe?$AAn?$AAu?$AAI?$AAt?$AAe?$AAm?$AA?$AA@
  00d59	28 00 00 00 00	 call ?set@Name@ToolStripItem@Forms@Windows@System@@$$FQ$AAMXP$AAVString@5@@Z

; 403  : 			this->ToolMenuItem->Size = System::Drawing::Size(74, 22);

  00d5e	12 20		 ldloca.s 32	; $S99$
  00d60	1f 4a		 ldc.i4.s 74	; i32 0x4a
  00d62	1f 16		 ldc.i4.s 22	; i32 0x16
  00d64	28 00 00 00 00	 call ??0Size@Drawing@System@@$$FQ$CAM@HH@Z
  00d69	02		 ldarg.0 	; this$
  00d6a	7b 00 00 00 00	 ldfld ?ToolMenuItem@MogiTest@Mogitter@@3P$AAVToolStripMenuItem@Forms@Windows@System@@$AA
  00d6f	11 20		 ldloc.s 32	; $S99$
  00d71	6f 00 00 00 00	 callvirt ?set@Size@ToolStripItem@Forms@Windows@System@@$$FU$AAMXV1Drawing@5@@Z

; 404  : 			this->ToolMenuItem->Text = L"ツール(&T)";

  00d76	02		 ldarg.0 	; this$
  00d77	7b 00 00 00 00	 ldfld ?ToolMenuItem@MogiTest@Mogitter@@3P$AAVToolStripMenuItem@Forms@Windows@System@@$AA
  00d7c	72 00 00 00 00	 ldstr $StringLiteralTok$??_C@_1BA@FBKAMAN@0?D0?$PM0?k?$AA?$CI?$AA?$CG?$AAT?$AA?$CJ?$AA?$AA@
  00d81	6f 00 00 00 00	 callvirt ?set@Text@ToolStripItem@Forms@Windows@System@@$$FU$AAMXP$AAVString@5@@Z

; 405  : 			// 
; 406  : 			// optionMenuItem
; 407  : 			// 
; 408  : 			this->optionMenuItem->Name = L"optionMenuItem";

  00d86	02		 ldarg.0 	; this$
  00d87	7b 00 00 00 00	 ldfld ?optionMenuItem@MogiTest@Mogitter@@3P$AAVToolStripMenuItem@Forms@Windows@System@@$AA
  00d8c	72 00 00 00 00	 ldstr $StringLiteralTok$??_C@_1BO@JCEFJDC@?$AAo?$AAp?$AAt?$AAi?$AAo?$AAn?$AAM?$AAe?$AAn?$AAu?$AAI?$AAt?$AAe?$AAm?$AA?$AA@
  00d91	28 00 00 00 00	 call ?set@Name@ToolStripItem@Forms@Windows@System@@$$FQ$AAMXP$AAVString@5@@Z

; 409  : 			this->optionMenuItem->Size = System::Drawing::Size(155, 22);

  00d96	12 1f		 ldloca.s 31	; $S100$
  00d98	20 9b 00 00 00	 ldc.i4 155	; i32 0x9b
  00d9d	1f 16		 ldc.i4.s 22	; i32 0x16
  00d9f	28 00 00 00 00	 call ??0Size@Drawing@System@@$$FQ$CAM@HH@Z
  00da4	02		 ldarg.0 	; this$
  00da5	7b 00 00 00 00	 ldfld ?optionMenuItem@MogiTest@Mogitter@@3P$AAVToolStripMenuItem@Forms@Windows@System@@$AA
  00daa	11 1f		 ldloc.s 31	; $S100$
  00dac	6f 00 00 00 00	 callvirt ?set@Size@ToolStripItem@Forms@Windows@System@@$$FU$AAMXV1Drawing@5@@Z

; 410  : 			this->optionMenuItem->Text = L"オプション(&O)";

  00db1	02		 ldarg.0 	; this$
  00db2	7b 00 00 00 00	 ldfld ?optionMenuItem@MogiTest@Mogitter@@3P$AAVToolStripMenuItem@Forms@Windows@System@@$AA
  00db7	72 00 00 00 00	 ldstr $StringLiteralTok$??_C@_1BE@KLBCCDPI@0?$KK0?W0?$LH0?g0?s?$AA?$CI?$AA?$CG?$AAO?$AA?$CJ?$AA?$AA@
  00dbc	6f 00 00 00 00	 callvirt ?set@Text@ToolStripItem@Forms@Windows@System@@$$FU$AAMXP$AAVString@5@@Z

; 411  : 			// 
; 412  : 			// HelpMenu
; 413  : 			// 
; 414  : 			this->HelpMenu->DropDownItems->AddRange(gcnew cli::array< System::Windows::Forms::ToolStripItem^  >(1) {this->helpMenuItem});

  00dc1	17		 ldc.i.1 1	; i32 0x1
  00dc2	8d 00 00 00 00	 newarr $TypeTok$116E771C$
  00dc7	13 07		 stloc.s 7	; $S101$
  00dc9	11 07		 ldloc.s 7	; $S101$
  00dcb	16		 ldc.i.0 0	; i32 0x0
  00dcc	02		 ldarg.0 	; this$
  00dcd	7b 00 00 00 00	 ldfld ?helpMenuItem@MogiTest@Mogitter@@3P$AAVToolStripMenuItem@Forms@Windows@System@@$AA
  00dd2	a2		 stelem.ref 
  00dd3	02		 ldarg.0 	; this$
  00dd4	7b 00 00 00 00	 ldfld ?HelpMenu@MogiTest@Mogitter@@3P$AAVToolStripMenuItem@Forms@Windows@System@@$AA
  00dd9	28 00 00 00 00	 call ?get@DropDownItems@ToolStripDropDownItem@Forms@Windows@System@@$$FQ$AAMP$AAVToolStripItemCollection@345@XZ
  00dde	11 07		 ldloc.s 7	; $S101$
  00de0	28 00 00 00 00	 call ?AddRange@ToolStripItemCollection@Forms@Windows@System@@$$FQ$AAMXP$01AP$AAVToolStripItem@234@@Z

; 415  : 			this->HelpMenu->Name = L"HelpMenu";

  00de5	02		 ldarg.0 	; this$
  00de6	7b 00 00 00 00	 ldfld ?HelpMenu@MogiTest@Mogitter@@3P$AAVToolStripMenuItem@Forms@Windows@System@@$AA
  00deb	72 00 00 00 00	 ldstr $StringLiteralTok$??_C@_1BC@GJBCDNPE@?$AAH?$AAe?$AAl?$AAp?$AAM?$AAe?$AAn?$AAu?$AA?$AA@
  00df0	28 00 00 00 00	 call ?set@Name@ToolStripItem@Forms@Windows@System@@$$FQ$AAMXP$AAVString@5@@Z

; 416  : 			this->HelpMenu->Size = System::Drawing::Size(75, 22);

  00df5	12 1e		 ldloca.s 30	; $S102$
  00df7	1f 4b		 ldc.i4.s 75	; i32 0x4b
  00df9	1f 16		 ldc.i4.s 22	; i32 0x16
  00dfb	28 00 00 00 00	 call ??0Size@Drawing@System@@$$FQ$CAM@HH@Z
  00e00	02		 ldarg.0 	; this$
  00e01	7b 00 00 00 00	 ldfld ?HelpMenu@MogiTest@Mogitter@@3P$AAVToolStripMenuItem@Forms@Windows@System@@$AA
  00e06	11 1e		 ldloc.s 30	; $S102$
  00e08	6f 00 00 00 00	 callvirt ?set@Size@ToolStripItem@Forms@Windows@System@@$$FU$AAMXV1Drawing@5@@Z

; 417  : 			this->HelpMenu->Text = L"ヘルプ(&H)";

  00e0d	02		 ldarg.0 	; this$
  00e0e	7b 00 00 00 00	 ldfld ?HelpMenu@MogiTest@Mogitter@@3P$AAVToolStripMenuItem@Forms@Windows@System@@$AA
  00e13	72 00 00 00 00	 ldstr $StringLiteralTok$??_C@_1BA@CCFHMOJC@0?X0?k0?W?$AA?$CI?$AA?$CG?$AAH?$AA?$CJ?$AA?$AA@
  00e18	6f 00 00 00 00	 callvirt ?set@Text@ToolStripItem@Forms@Windows@System@@$$FU$AAMXP$AAVString@5@@Z

; 418  : 			// 
; 419  : 			// helpMenuItem
; 420  : 			// 
; 421  : 			this->helpMenuItem->Name = L"helpMenuItem";

  00e1d	02		 ldarg.0 	; this$
  00e1e	7b 00 00 00 00	 ldfld ?helpMenuItem@MogiTest@Mogitter@@3P$AAVToolStripMenuItem@Forms@Windows@System@@$AA
  00e23	72 00 00 00 00	 ldstr $StringLiteralTok$??_C@_1BK@DMLMNKAI@?$AAh?$AAe?$AAl?$AAp?$AAM?$AAe?$AAn?$AAu?$AAI?$AAt?$AAe?$AAm?$AA?$AA@
  00e28	28 00 00 00 00	 call ?set@Name@ToolStripItem@Forms@Windows@System@@$$FQ$AAMXP$AAVString@5@@Z

; 422  : 			this->helpMenuItem->ShortcutKeys = static_cast<System::Windows::Forms::Keys>((System::Windows::Forms::Keys::Control | System::Windows::Forms::Keys::H));

  00e2d	02		 ldarg.0 	; this$
  00e2e	7b 00 00 00 00	 ldfld ?helpMenuItem@MogiTest@Mogitter@@3P$AAVToolStripMenuItem@Forms@Windows@System@@$AA
  00e33	20 48 00 02 00	 ldc.i4 131144	; i32 0x20048
  00e38	28 00 00 00 00	 call ?set@ShortcutKeys@ToolStripMenuItem@Forms@Windows@System@@$$FQ$AAMXW4Keys@345@@Z

; 423  : 			this->helpMenuItem->Size = System::Drawing::Size(166, 22);

  00e3d	12 1d		 ldloca.s 29	; $S103$
  00e3f	20 a6 00 00 00	 ldc.i4 166	; i32 0xa6
  00e44	1f 16		 ldc.i4.s 22	; i32 0x16
  00e46	28 00 00 00 00	 call ??0Size@Drawing@System@@$$FQ$CAM@HH@Z
  00e4b	02		 ldarg.0 	; this$
  00e4c	7b 00 00 00 00	 ldfld ?helpMenuItem@MogiTest@Mogitter@@3P$AAVToolStripMenuItem@Forms@Windows@System@@$AA
  00e51	11 1d		 ldloc.s 29	; $S103$
  00e53	6f 00 00 00 00	 callvirt ?set@Size@ToolStripItem@Forms@Windows@System@@$$FU$AAMXV1Drawing@5@@Z

; 424  : 			this->helpMenuItem->Text = L"内容(&C)";

  00e58	02		 ldarg.0 	; this$
  00e59	7b 00 00 00 00	 ldfld ?helpMenuItem@MogiTest@Mogitter@@3P$AAVToolStripMenuItem@Forms@Windows@System@@$AA
  00e5e	72 00 00 00 00	 ldstr $StringLiteralTok$??_C@_1O@HIDFGANF@Q?$IF?$FL?$LJ?$AA?$CI?$AA?$CG?$AAC?$AA?$CJ?$AA?$AA@
  00e63	6f 00 00 00 00	 callvirt ?set@Text@ToolStripItem@Forms@Windows@System@@$$FU$AAMXP$AAVString@5@@Z

; 425  : 			// 
; 426  : 			// QNumUpDown
; 427  : 			// 
; 428  : 			this->QNumUpDown->BackColor = System::Drawing::Color::LightGoldenrodYellow;

  00e68	28 00 00 00 00	 call ?get@LightGoldenrodYellow@Color@Drawing@System@@$$FSM?AV234@XZ
  00e6d	13 1c		 stloc.s 28	; $T8
  00e6f	02		 ldarg.0 	; this$
  00e70	7b 00 00 00 00	 ldfld ?QNumUpDown@MogiTest@Mogitter@@3P$AAVNumericUpDown@Forms@Windows@System@@$AA
  00e75	11 1c		 ldloc.s 28	; $T8
  00e77	6f 00 00 00 00	 callvirt ?set@BackColor@UpDownBase@Forms@Windows@System@@$$FU$AAMXVColor@Drawing@5@@Z

; 429  : 			this->QNumUpDown->Font = (gcnew System::Drawing::Font(L"メイリオ", 18, System::Drawing::FontStyle::Bold, System::Drawing::GraphicsUnit::Point, 
; 430  : 				static_cast<System::Byte>(128)));

  00e7c	02		 ldarg.0 	; this$
  00e7d	7b 00 00 00 00	 ldfld ?QNumUpDown@MogiTest@Mogitter@@3P$AAVNumericUpDown@Forms@Windows@System@@$AA
  00e82	72 00 00 00 00	 ldstr $StringLiteralTok$??_C@_19HMEDOBKD@0?a0?$KE0?j0?$KK?$AA?$AA@
  00e87	22 00 00 90 41	 ldc.r4 18.000000
  00e8c	17		 ldc.i.1 1	; i32 0x1
  00e8d	19		 ldc.i.3 3	; i32 0x3
  00e8e	20 80 00 00 00	 ldc.i4 128	; u8 0x80
  00e93	73 00 00 00 00	 newobj ??0Font@Drawing@System@@$$FQ$AAM@P$AAVString@2@MW4FontStyle@12@W4GraphicsUnit@12@E@Z
  00e98	6f 00 00 00 00	 callvirt ?set@Font@Control@Forms@Windows@System@@$$FU$AAMXP$AAV1Drawing@5@@Z

; 431  : 			this->QNumUpDown->Location = System::Drawing::Point(12, 44);

  00e9d	12 1b		 ldloca.s 27	; $S104$
  00e9f	1f 0c		 ldc.i4.s 12	; i32 0xc
  00ea1	1f 2c		 ldc.i4.s 44	; i32 0x2c
  00ea3	28 00 00 00 00	 call ??0Point@Drawing@System@@$$FQ$CAM@HH@Z
  00ea8	02		 ldarg.0 	; this$
  00ea9	7b 00 00 00 00	 ldfld ?QNumUpDown@MogiTest@Mogitter@@3P$AAVNumericUpDown@Forms@Windows@System@@$AA
  00eae	11 1b		 ldloc.s 27	; $S104$
  00eb0	28 00 00 00 00	 call ?set@Location@Control@Forms@Windows@System@@$$FQ$AAMXVPoint@Drawing@5@@Z

; 432  : 			this->QNumUpDown->Maximum = System::Decimal(gcnew cli::array< System::Int32 >(4) {1, 0, 0, 0});

  00eb5	1a		 ldc.i.4 4	; i32 0x4
  00eb6	8d 00 00 00 00	 newarr $TypeTok$110E9E58$
  00ebb	0d		 stloc.3 	; $S105$
  00ebc	09		 ldloc.3 	; $S105$
  00ebd	16		 ldc.i.0 0	; i32 0x0
  00ebe	17		 ldc.i.1 1	; i32 0x1
  00ebf	9e		 stelem.i4 
  00ec0	09		 ldloc.3 	; $S105$
  00ec1	17		 ldc.i.1 1	; i32 0x1
  00ec2	16		 ldc.i.0 0	; i32 0x0
  00ec3	9e		 stelem.i4 
  00ec4	09		 ldloc.3 	; $S105$
  00ec5	18		 ldc.i.2 2	; i32 0x2
  00ec6	16		 ldc.i.0 0	; i32 0x0
  00ec7	9e		 stelem.i4 
  00ec8	09		 ldloc.3 	; $S105$
  00ec9	19		 ldc.i.3 3	; i32 0x3
  00eca	16		 ldc.i.0 0	; i32 0x0
  00ecb	9e		 stelem.i4 
  00ecc	12 1a		 ldloca.s 26	; $T9
  00ece	09		 ldloc.3 	; $S105$
  00ecf	28 00 00 00 00	 call ??0Decimal@System@@$$FQ$CAM@P$01AH@Z
  00ed4	02		 ldarg.0 	; this$
  00ed5	7b 00 00 00 00	 ldfld ?QNumUpDown@MogiTest@Mogitter@@3P$AAVNumericUpDown@Forms@Windows@System@@$AA
  00eda	11 1a		 ldloc.s 26	; $T9
  00edc	28 00 00 00 00	 call ?set@Maximum@NumericUpDown@Forms@Windows@System@@$$FQ$AAMXVDecimal@5@@Z

; 433  : 			this->QNumUpDown->Minimum = System::Decimal(gcnew cli::array< System::Int32 >(4) {1, 0, 0, 0});

  00ee1	1a		 ldc.i.4 4	; i32 0x4
  00ee2	8d 00 00 00 00	 newarr $TypeTok$110E9E58$
  00ee7	0c		 stloc.2 	; $S106$
  00ee8	08		 ldloc.2 	; $S106$
  00ee9	16		 ldc.i.0 0	; i32 0x0
  00eea	17		 ldc.i.1 1	; i32 0x1
  00eeb	9e		 stelem.i4 
  00eec	08		 ldloc.2 	; $S106$
  00eed	17		 ldc.i.1 1	; i32 0x1
  00eee	16		 ldc.i.0 0	; i32 0x0
  00eef	9e		 stelem.i4 
  00ef0	08		 ldloc.2 	; $S106$
  00ef1	18		 ldc.i.2 2	; i32 0x2
  00ef2	16		 ldc.i.0 0	; i32 0x0
  00ef3	9e		 stelem.i4 
  00ef4	08		 ldloc.2 	; $S106$
  00ef5	19		 ldc.i.3 3	; i32 0x3
  00ef6	16		 ldc.i.0 0	; i32 0x0
  00ef7	9e		 stelem.i4 
  00ef8	12 19		 ldloca.s 25	; $T10
  00efa	08		 ldloc.2 	; $S106$
  00efb	28 00 00 00 00	 call ??0Decimal@System@@$$FQ$CAM@P$01AH@Z
  00f00	02		 ldarg.0 	; this$
  00f01	7b 00 00 00 00	 ldfld ?QNumUpDown@MogiTest@Mogitter@@3P$AAVNumericUpDown@Forms@Windows@System@@$AA
  00f06	11 19		 ldloc.s 25	; $T10
  00f08	28 00 00 00 00	 call ?set@Minimum@NumericUpDown@Forms@Windows@System@@$$FQ$AAMXVDecimal@5@@Z

; 434  : 			this->QNumUpDown->Name = L"QNumUpDown";

  00f0d	02		 ldarg.0 	; this$
  00f0e	7b 00 00 00 00	 ldfld ?QNumUpDown@MogiTest@Mogitter@@3P$AAVNumericUpDown@Forms@Windows@System@@$AA
  00f13	72 00 00 00 00	 ldstr $StringLiteralTok$??_C@_1BG@MGHIBONJ@?$AAQ?$AAN?$AAu?$AAm?$AAU?$AAp?$AAD?$AAo?$AAw?$AAn?$AA?$AA@
  00f18	28 00 00 00 00	 call ?set@Name@Control@Forms@Windows@System@@$$FQ$AAMXP$AAVString@5@@Z

; 435  : 			this->QNumUpDown->ReadOnly = true;

  00f1d	02		 ldarg.0 	; this$
  00f1e	7b 00 00 00 00	 ldfld ?QNumUpDown@MogiTest@Mogitter@@3P$AAVNumericUpDown@Forms@Windows@System@@$AA
  00f23	17		 ldc.i.1 1	; u8 0x1
  00f24	28 00 00 00 00	 call ?set@ReadOnly@UpDownBase@Forms@Windows@System@@$$FQ$AAMX_N@Z

; 436  : 			this->QNumUpDown->Size = System::Drawing::Size(96, 43);

  00f29	12 18		 ldloca.s 24	; $S107$
  00f2b	1f 60		 ldc.i4.s 96	; i32 0x60
  00f2d	1f 2b		 ldc.i4.s 43	; i32 0x2b
  00f2f	28 00 00 00 00	 call ??0Size@Drawing@System@@$$FQ$CAM@HH@Z
  00f34	02		 ldarg.0 	; this$
  00f35	7b 00 00 00 00	 ldfld ?QNumUpDown@MogiTest@Mogitter@@3P$AAVNumericUpDown@Forms@Windows@System@@$AA
  00f3a	11 18		 ldloc.s 24	; $S107$
  00f3c	28 00 00 00 00	 call ?set@Size@Control@Forms@Windows@System@@$$FQ$AAMXV1Drawing@5@@Z

; 437  : 			this->QNumUpDown->TabIndex = 10;

  00f41	02		 ldarg.0 	; this$
  00f42	7b 00 00 00 00	 ldfld ?QNumUpDown@MogiTest@Mogitter@@3P$AAVNumericUpDown@Forms@Windows@System@@$AA
  00f47	1f 0a		 ldc.i4.s 10	; i32 0xa
  00f49	28 00 00 00 00	 call ?set@TabIndex@Control@Forms@Windows@System@@$$FQ$AAMXH@Z

; 438  : 			this->QNumUpDown->TextAlign = System::Windows::Forms::HorizontalAlignment::Right;

  00f4e	02		 ldarg.0 	; this$
  00f4f	7b 00 00 00 00	 ldfld ?QNumUpDown@MogiTest@Mogitter@@3P$AAVNumericUpDown@Forms@Windows@System@@$AA
  00f54	17		 ldc.i.1 1	; i32 0x1
  00f55	28 00 00 00 00	 call ?set@TextAlign@UpDownBase@Forms@Windows@System@@$$FQ$AAMXW4HorizontalAlignment@345@@Z

; 439  : 			this->QNumUpDown->Value = System::Decimal(gcnew cli::array< System::Int32 >(4) {1, 0, 0, 0});

  00f5a	1a		 ldc.i.4 4	; i32 0x4
  00f5b	8d 00 00 00 00	 newarr $TypeTok$110E9E58$
  00f60	0b		 stloc.1 	; $S108$
  00f61	07		 ldloc.1 	; $S108$
  00f62	16		 ldc.i.0 0	; i32 0x0
  00f63	17		 ldc.i.1 1	; i32 0x1
  00f64	9e		 stelem.i4 
  00f65	07		 ldloc.1 	; $S108$
  00f66	17		 ldc.i.1 1	; i32 0x1
  00f67	16		 ldc.i.0 0	; i32 0x0
  00f68	9e		 stelem.i4 
  00f69	07		 ldloc.1 	; $S108$
  00f6a	18		 ldc.i.2 2	; i32 0x2
  00f6b	16		 ldc.i.0 0	; i32 0x0
  00f6c	9e		 stelem.i4 
  00f6d	07		 ldloc.1 	; $S108$
  00f6e	19		 ldc.i.3 3	; i32 0x3
  00f6f	16		 ldc.i.0 0	; i32 0x0
  00f70	9e		 stelem.i4 
  00f71	12 17		 ldloca.s 23	; $T11
  00f73	07		 ldloc.1 	; $S108$
  00f74	28 00 00 00 00	 call ??0Decimal@System@@$$FQ$CAM@P$01AH@Z
  00f79	02		 ldarg.0 	; this$
  00f7a	7b 00 00 00 00	 ldfld ?QNumUpDown@MogiTest@Mogitter@@3P$AAVNumericUpDown@Forms@Windows@System@@$AA
  00f7f	11 17		 ldloc.s 23	; $T11
  00f81	28 00 00 00 00	 call ?set@Value@NumericUpDown@Forms@Windows@System@@$$FQ$AAMXVDecimal@5@@Z

; 440  : 			this->QNumUpDown->ValueChanged += gcnew System::EventHandler(this, &MogiTest::QNumUpDown_ValueChanged);

  00f86	02		 ldarg.0 	; this$
  00f87	7b 00 00 00 00	 ldfld ?QNumUpDown@MogiTest@Mogitter@@3P$AAVNumericUpDown@Forms@Windows@System@@$AA
  00f8c	02		 ldarg.0 	; this$
  00f8d	fe 06 00 00 00
	00		 ldftn ?QNumUpDown_ValueChanged@MogiTest@Mogitter@@$$FA$AAMXP$AAVObject@System@@P$AAVEventArgs@4@@Z
  00f93	73 00 00 00 00	 newobj ??0EventHandler@System@@$$FQ$AAM@P$AAVObject@1@VIntPtr@1@@Z
  00f98	28 00 00 00 00	 call ?add@ValueChanged@NumericUpDown@Forms@Windows@System@@$$FQ$AAMXP$AAVEventHandler@5@@Z

; 441  : 			// 
; 442  : 			// userAnswerArea
; 443  : 			// 
; 444  : 			this->userAnswerArea->AcceptsReturn = false;

  00f9d	02		 ldarg.0 	; this$
  00f9e	7b 00 00 00 00	 ldfld ?userAnswerArea@MogiTest@Mogitter@@3P$AAVAzukiControl@WinForms@Azuki@Sgry@@$AA
  00fa3	16		 ldc.i.0 0	; u8 0x0
  00fa4	28 00 00 00 00	 call ?set@AcceptsReturn@AzukiControl@WinForms@Azuki@Sgry@@$$FQ$AAMX_N@Z

; 445  : 			this->userAnswerArea->AcceptsTab = false;

  00fa9	02		 ldarg.0 	; this$
  00faa	7b 00 00 00 00	 ldfld ?userAnswerArea@MogiTest@Mogitter@@3P$AAVAzukiControl@WinForms@Azuki@Sgry@@$AA
  00faf	16		 ldc.i.0 0	; u8 0x0
  00fb0	28 00 00 00 00	 call ?set@AcceptsTab@AzukiControl@WinForms@Azuki@Sgry@@$$FQ$AAMX_N@Z

; 446  : 			this->userAnswerArea->Anchor = static_cast<System::Windows::Forms::AnchorStyles>((((System::Windows::Forms::AnchorStyles::Top | System::Windows::Forms::AnchorStyles::Bottom) 
; 447  : 				| System::Windows::Forms::AnchorStyles::Left) 
; 448  : 				| System::Windows::Forms::AnchorStyles::Right));

  00fb5	02		 ldarg.0 	; this$
  00fb6	7b 00 00 00 00	 ldfld ?userAnswerArea@MogiTest@Mogitter@@3P$AAVAzukiControl@WinForms@Azuki@Sgry@@$AA
  00fbb	1f 0f		 ldc.i4.s 15	; i32 0xf
  00fbd	6f 00 00 00 00	 callvirt ?set@Anchor@Control@Forms@Windows@System@@$$FU$AAMXW4AnchorStyles@345@@Z

; 449  : 			this->userAnswerArea->BackColor = System::Drawing::Color::White;

  00fc2	28 00 00 00 00	 call ?get@White@Color@Drawing@System@@$$FSM?AV234@XZ
  00fc7	13 16		 stloc.s 22	; $T12
  00fc9	02		 ldarg.0 	; this$
  00fca	7b 00 00 00 00	 ldfld ?userAnswerArea@MogiTest@Mogitter@@3P$AAVAzukiControl@WinForms@Azuki@Sgry@@$AA
  00fcf	11 16		 ldloc.s 22	; $T12
  00fd1	6f 00 00 00 00	 callvirt ?set@BackColor@AzukiControl@WinForms@Azuki@Sgry@@$$FU$AAMXVColor@Drawing@System@@@Z

; 450  : 			this->userAnswerArea->CausesValidation = false;

  00fd6	02		 ldarg.0 	; this$
  00fd7	7b 00 00 00 00	 ldfld ?userAnswerArea@MogiTest@Mogitter@@3P$AAVAzukiControl@WinForms@Azuki@Sgry@@$AA
  00fdc	16		 ldc.i.0 0	; u8 0x0
  00fdd	28 00 00 00 00	 call ?set@CausesValidation@Control@Forms@Windows@System@@$$FQ$AAMX_N@Z

; 451  : 			this->userAnswerArea->Cursor = System::Windows::Forms::Cursors::IBeam;

  00fe2	02		 ldarg.0 	; this$
  00fe3	7b 00 00 00 00	 ldfld ?userAnswerArea@MogiTest@Mogitter@@3P$AAVAzukiControl@WinForms@Azuki@Sgry@@$AA
  00fe8	28 00 00 00 00	 call ?get@IBeam@Cursors@Forms@Windows@System@@$$FSMP$AAVCursor@345@XZ
  00fed	6f 00 00 00 00	 callvirt ?set@Cursor@Control@Forms@Windows@System@@$$FU$AAMXP$AAV1345@@Z

; 452  : 			this->userAnswerArea->DrawingOption = static_cast<Sgry::Azuki::DrawingOption>((Sgry::Azuki::DrawingOption::DrawsFullWidthSpace | Sgry::Azuki::DrawingOption::DrawsTab));

  00ff2	02		 ldarg.0 	; this$
  00ff3	7b 00 00 00 00	 ldfld ?userAnswerArea@MogiTest@Mogitter@@3P$AAVAzukiControl@WinForms@Azuki@Sgry@@$AA
  00ff8	1c		 ldc.i.6 6	; i32 0x6
  00ff9	6f 00 00 00 00	 callvirt ?set@DrawingOption@AzukiControl@WinForms@Azuki@Sgry@@$$FU$AAMXW4145@@Z

; 453  : 			this->userAnswerArea->DrawsEolCode = false;

  00ffe	02		 ldarg.0 	; this$
  00fff	7b 00 00 00 00	 ldfld ?userAnswerArea@MogiTest@Mogitter@@3P$AAVAzukiControl@WinForms@Azuki@Sgry@@$AA
  01004	16		 ldc.i.0 0	; u8 0x0
  01005	6f 00 00 00 00	 callvirt ?set@DrawsEolCode@AzukiControl@WinForms@Azuki@Sgry@@$$FU$AAMX_N@Z

; 454  : 			this->userAnswerArea->FirstVisibleLine = 0;

  0100a	02		 ldarg.0 	; this$
  0100b	7b 00 00 00 00	 ldfld ?userAnswerArea@MogiTest@Mogitter@@3P$AAVAzukiControl@WinForms@Azuki@Sgry@@$AA
  01010	16		 ldc.i.0 0	; i32 0x0
  01011	28 00 00 00 00	 call ?set@FirstVisibleLine@AzukiControl@WinForms@Azuki@Sgry@@$$FQ$AAMXH@Z

; 455  : 			this->userAnswerArea->Font = (gcnew System::Drawing::Font(L"HGS明朝E", 14));

  01016	02		 ldarg.0 	; this$
  01017	7b 00 00 00 00	 ldfld ?userAnswerArea@MogiTest@Mogitter@@3P$AAVAzukiControl@WinForms@Azuki@Sgry@@$AA
  0101c	72 00 00 00 00	 ldstr $StringLiteralTok$??_C@_1O@IPAAHFDB@?$AAH?$AAG?$AASf?$AOg?$BN?$AAE?$AA?$AA@
  01021	22 00 00 60 41	 ldc.r4 14.000000
  01026	73 00 00 00 00	 newobj ??0Font@Drawing@System@@$$FQ$AAM@P$AAVString@2@M@Z
  0102b	6f 00 00 00 00	 callvirt ?set@Font@AzukiControl@WinForms@Azuki@Sgry@@$$FU$AAMXP$AAV1Drawing@System@@@Z

; 456  : 			fontInfo2->Name = L"HGS明朝E";

  01030	11 05		 ldloc.s 5	; fontInfo2$
  01032	72 00 00 00 00	 ldstr $StringLiteralTok$??_C@_1O@IPAAHFDB@?$AAH?$AAG?$AASf?$AOg?$BN?$AAE?$AA?$AA@
  01037	28 00 00 00 00	 call ?set@Name@FontInfo@Azuki@Sgry@@$$FQ$AAMXP$AAVString@System@@@Z

; 457  : 			fontInfo2->Size = 14;

  0103c	11 05		 ldloc.s 5	; fontInfo2$
  0103e	1f 0e		 ldc.i4.s 14	; i32 0xe
  01040	28 00 00 00 00	 call ?set@Size@FontInfo@Azuki@Sgry@@$$FQ$AAMXH@Z

; 458  : 			fontInfo2->Style = System::Drawing::FontStyle::Regular;

  01045	11 05		 ldloc.s 5	; fontInfo2$
  01047	16		 ldc.i.0 0	; i32 0x0
  01048	28 00 00 00 00	 call ?set@Style@FontInfo@Azuki@Sgry@@$$FQ$AAMXW4FontStyle@Drawing@System@@@Z

; 459  : 			this->userAnswerArea->FontInfo = fontInfo2;

  0104d	02		 ldarg.0 	; this$
  0104e	7b 00 00 00 00	 ldfld ?userAnswerArea@MogiTest@Mogitter@@3P$AAVAzukiControl@WinForms@Azuki@Sgry@@$AA
  01053	11 05		 ldloc.s 5	; fontInfo2$
  01055	6f 00 00 00 00	 callvirt ?set@FontInfo@AzukiControl@WinForms@Azuki@Sgry@@$$FU$AAMXP$AAV145@@Z

; 460  : 			this->userAnswerArea->ForeColor = System::Drawing::Color::Black;

  0105a	28 00 00 00 00	 call ?get@Black@Color@Drawing@System@@$$FSM?AV234@XZ
  0105f	13 15		 stloc.s 21	; $T13
  01061	02		 ldarg.0 	; this$
  01062	7b 00 00 00 00	 ldfld ?userAnswerArea@MogiTest@Mogitter@@3P$AAVAzukiControl@WinForms@Azuki@Sgry@@$AA
  01067	11 15		 ldloc.s 21	; $T13
  01069	6f 00 00 00 00	 callvirt ?set@ForeColor@AzukiControl@WinForms@Azuki@Sgry@@$$FU$AAMXVColor@Drawing@System@@@Z

; 461  : 			this->userAnswerArea->HighlightsCurrentLine = false;

  0106e	02		 ldarg.0 	; this$
  0106f	7b 00 00 00 00	 ldfld ?userAnswerArea@MogiTest@Mogitter@@3P$AAVAzukiControl@WinForms@Azuki@Sgry@@$AA
  01074	16		 ldc.i.0 0	; u8 0x0
  01075	6f 00 00 00 00	 callvirt ?set@HighlightsCurrentLine@AzukiControl@WinForms@Azuki@Sgry@@$$FU$AAMX_N@Z

; 462  : 			this->userAnswerArea->HighlightsMatchedBracket = false;

  0107a	02		 ldarg.0 	; this$
  0107b	7b 00 00 00 00	 ldfld ?userAnswerArea@MogiTest@Mogitter@@3P$AAVAzukiControl@WinForms@Azuki@Sgry@@$AA
  01080	16		 ldc.i.0 0	; u8 0x0
  01081	6f 00 00 00 00	 callvirt ?set@HighlightsMatchedBracket@AzukiControl@WinForms@Azuki@Sgry@@$$FU$AAMX_N@Z

; 463  : 			this->userAnswerArea->IsReadOnly = true;

  01086	02		 ldarg.0 	; this$
  01087	7b 00 00 00 00	 ldfld ?userAnswerArea@MogiTest@Mogitter@@3P$AAVAzukiControl@WinForms@Azuki@Sgry@@$AA
  0108c	17		 ldc.i.1 1	; u8 0x1
  0108d	6f 00 00 00 00	 callvirt ?set@IsReadOnly@AzukiControl@WinForms@Azuki@Sgry@@$$FU$AAMX_N@Z

; 464  : 			this->userAnswerArea->Location = System::Drawing::Point(3, 27);

  01092	12 14		 ldloca.s 20	; $S109$
  01094	19		 ldc.i.3 3	; i32 0x3
  01095	1f 1b		 ldc.i4.s 27	; i32 0x1b
  01097	28 00 00 00 00	 call ??0Point@Drawing@System@@$$FQ$CAM@HH@Z
  0109c	02		 ldarg.0 	; this$
  0109d	7b 00 00 00 00	 ldfld ?userAnswerArea@MogiTest@Mogitter@@3P$AAVAzukiControl@WinForms@Azuki@Sgry@@$AA
  010a2	11 14		 ldloc.s 20	; $S109$
  010a4	28 00 00 00 00	 call ?set@Location@Control@Forms@Windows@System@@$$FQ$AAMXVPoint@Drawing@5@@Z

; 465  : 			this->userAnswerArea->Name = L"userAnswerArea";

  010a9	02		 ldarg.0 	; this$
  010aa	7b 00 00 00 00	 ldfld ?userAnswerArea@MogiTest@Mogitter@@3P$AAVAzukiControl@WinForms@Azuki@Sgry@@$AA
  010af	72 00 00 00 00	 ldstr $StringLiteralTok$??_C@_1BO@GPDKIKPE@?$AAu?$AAs?$AAe?$AAr?$AAA?$AAn?$AAs?$AAw?$AAe?$AAr?$AAA?$AAr?$AAe?$AAa?$AA?$AA@
  010b4	28 00 00 00 00	 call ?set@Name@Control@Forms@Windows@System@@$$FQ$AAMXP$AAVString@5@@Z

; 466  : 			this->userAnswerArea->ScrollPos = System::Drawing::Point(0, 0);

  010b9	12 13		 ldloca.s 19	; $S110$
  010bb	16		 ldc.i.0 0	; i32 0x0
  010bc	16		 ldc.i.0 0	; i32 0x0
  010bd	28 00 00 00 00	 call ??0Point@Drawing@System@@$$FQ$CAM@HH@Z
  010c2	02		 ldarg.0 	; this$
  010c3	7b 00 00 00 00	 ldfld ?userAnswerArea@MogiTest@Mogitter@@3P$AAVAzukiControl@WinForms@Azuki@Sgry@@$AA
  010c8	11 13		 ldloc.s 19	; $S110$
  010ca	6f 00 00 00 00	 callvirt ?set@ScrollPos@AzukiControl@WinForms@Azuki@Sgry@@$$FU$AAMXVPoint@Drawing@System@@@Z

; 467  : 			this->userAnswerArea->ScrollsBeyondLastLine = false;

  010cf	02		 ldarg.0 	; this$
  010d0	7b 00 00 00 00	 ldfld ?userAnswerArea@MogiTest@Mogitter@@3P$AAVAzukiControl@WinForms@Azuki@Sgry@@$AA
  010d5	16		 ldc.i.0 0	; u8 0x0
  010d6	28 00 00 00 00	 call ?set@ScrollsBeyondLastLine@AzukiControl@WinForms@Azuki@Sgry@@$$FQ$AAMX_N@Z

; 468  : 			this->userAnswerArea->ShowsDirtBar = false;

  010db	02		 ldarg.0 	; this$
  010dc	7b 00 00 00 00	 ldfld ?userAnswerArea@MogiTest@Mogitter@@3P$AAVAzukiControl@WinForms@Azuki@Sgry@@$AA
  010e1	16		 ldc.i.0 0	; u8 0x0
  010e2	6f 00 00 00 00	 callvirt ?set@ShowsDirtBar@AzukiControl@WinForms@Azuki@Sgry@@$$FU$AAMX_N@Z

; 469  : 			this->userAnswerArea->ShowsLineNumber = false;

  010e7	02		 ldarg.0 	; this$
  010e8	7b 00 00 00 00	 ldfld ?userAnswerArea@MogiTest@Mogitter@@3P$AAVAzukiControl@WinForms@Azuki@Sgry@@$AA
  010ed	16		 ldc.i.0 0	; u8 0x0
  010ee	6f 00 00 00 00	 callvirt ?set@ShowsLineNumber@AzukiControl@WinForms@Azuki@Sgry@@$$FU$AAMX_N@Z

; 470  : 			this->userAnswerArea->Size = System::Drawing::Size(200, 510);

  010f3	12 12		 ldloca.s 18	; $S111$
  010f5	20 c8 00 00 00	 ldc.i4 200	; i32 0xc8
  010fa	20 fe 01 00 00	 ldc.i4 510	; i32 0x1fe
  010ff	28 00 00 00 00	 call ??0Size@Drawing@System@@$$FQ$CAM@HH@Z
  01104	02		 ldarg.0 	; this$
  01105	7b 00 00 00 00	 ldfld ?userAnswerArea@MogiTest@Mogitter@@3P$AAVAzukiControl@WinForms@Azuki@Sgry@@$AA
  0110a	11 12		 ldloc.s 18	; $S111$
  0110c	28 00 00 00 00	 call ?set@Size@Control@Forms@Windows@System@@$$FQ$AAMXV1Drawing@5@@Z

; 471  : 			this->userAnswerArea->TabIndex = 11;

  01111	02		 ldarg.0 	; this$
  01112	7b 00 00 00 00	 ldfld ?userAnswerArea@MogiTest@Mogitter@@3P$AAVAzukiControl@WinForms@Azuki@Sgry@@$AA
  01117	1f 0b		 ldc.i4.s 11	; i32 0xb
  01119	28 00 00 00 00	 call ?set@TabIndex@Control@Forms@Windows@System@@$$FQ$AAMXH@Z

; 472  : 			this->userAnswerArea->TabStop = false;

  0111e	02		 ldarg.0 	; this$
  0111f	7b 00 00 00 00	 ldfld ?userAnswerArea@MogiTest@Mogitter@@3P$AAVAzukiControl@WinForms@Azuki@Sgry@@$AA
  01124	16		 ldc.i.0 0	; u8 0x0
  01125	28 00 00 00 00	 call ?set@TabStop@Control@Forms@Windows@System@@$$FQ$AAMX_N@Z

; 473  : 			this->userAnswerArea->ViewWidth = 97;

  0112a	02		 ldarg.0 	; this$
  0112b	7b 00 00 00 00	 ldfld ?userAnswerArea@MogiTest@Mogitter@@3P$AAVAzukiControl@WinForms@Azuki@Sgry@@$AA
  01130	1f 61		 ldc.i4.s 97	; i32 0x61
  01132	6f 00 00 00 00	 callvirt ?set@ViewWidth@AzukiControl@WinForms@Azuki@Sgry@@$$FU$AAMXH@Z

; 474  : 			// 
; 475  : 			// timer1
; 476  : 			// 
; 477  : 			this->timer1->Interval = 60;

  01137	02		 ldarg.0 	; this$
  01138	7b 00 00 00 00	 ldfld ?timer1@MogiTest@Mogitter@@3P$AAVTimer@Forms@Windows@System@@$AA
  0113d	1f 3c		 ldc.i4.s 60	; i32 0x3c
  0113f	28 00 00 00 00	 call ?set@Interval@Timer@Forms@Windows@System@@$$FQ$AAMXH@Z

; 478  : 			this->timer1->Tick += gcnew System::EventHandler(this, &MogiTest::timer1_Tick);

  01144	02		 ldarg.0 	; this$
  01145	7b 00 00 00 00	 ldfld ?timer1@MogiTest@Mogitter@@3P$AAVTimer@Forms@Windows@System@@$AA
  0114a	02		 ldarg.0 	; this$
  0114b	fe 06 00 00 00
	00		 ldftn ?timer1_Tick@MogiTest@Mogitter@@$$FA$AAMXP$AAVObject@System@@P$AAVEventArgs@4@@Z
  01151	73 00 00 00 00	 newobj ??0EventHandler@System@@$$FQ$AAM@P$AAVObject@1@VIntPtr@1@@Z
  01156	28 00 00 00 00	 call ?add@Tick@Timer@Forms@Windows@System@@$$FQ$AAMXP$AAVEventHandler@5@@Z

; 479  : 			// 
; 480  : 			// keikajikan
; 481  : 			// 
; 482  : 			this->keikajikan->Interval = 1000;

  0115b	02		 ldarg.0 	; this$
  0115c	7b 00 00 00 00	 ldfld ?keikajikan@MogiTest@Mogitter@@3P$AAVTimer@Forms@Windows@System@@$AA
  01161	20 e8 03 00 00	 ldc.i4 1000	; i32 0x3e8
  01166	28 00 00 00 00	 call ?set@Interval@Timer@Forms@Windows@System@@$$FQ$AAMXH@Z

; 483  : 			this->keikajikan->Tick += gcnew System::EventHandler(this, &MogiTest::keikajikan_Tick);

  0116b	02		 ldarg.0 	; this$
  0116c	7b 00 00 00 00	 ldfld ?keikajikan@MogiTest@Mogitter@@3P$AAVTimer@Forms@Windows@System@@$AA
  01171	02		 ldarg.0 	; this$
  01172	fe 06 00 00 00
	00		 ldftn ?keikajikan_Tick@MogiTest@Mogitter@@$$FA$AAMXP$AAVObject@System@@P$AAVEventArgs@4@@Z
  01178	73 00 00 00 00	 newobj ??0EventHandler@System@@$$FQ$AAM@P$AAVObject@1@VIntPtr@1@@Z
  0117d	28 00 00 00 00	 call ?add@Tick@Timer@Forms@Windows@System@@$$FQ$AAMXP$AAVEventHandler@5@@Z

; 484  : 			// 
; 485  : 			// splitContainer1
; 486  : 			// 
; 487  : 			this->splitContainer1->Location = System::Drawing::Point(0, 29);

  01182	12 11		 ldloca.s 17	; $S112$
  01184	16		 ldc.i.0 0	; i32 0x0
  01185	1f 1d		 ldc.i4.s 29	; i32 0x1d
  01187	28 00 00 00 00	 call ??0Point@Drawing@System@@$$FQ$CAM@HH@Z
  0118c	02		 ldarg.0 	; this$
  0118d	7b 00 00 00 00	 ldfld ?splitContainer1@MogiTest@Mogitter@@3P$AAVSplitContainer@Forms@Windows@System@@$AA
  01192	11 11		 ldloc.s 17	; $S112$
  01194	28 00 00 00 00	 call ?set@Location@Control@Forms@Windows@System@@$$FQ$AAMXVPoint@Drawing@5@@Z

; 488  : 			this->splitContainer1->Margin = System::Windows::Forms::Padding(0);

  01199	12 10		 ldloca.s 16	; $T14
  0119b	16		 ldc.i.0 0	; i32 0x0
  0119c	28 00 00 00 00	 call ??0Padding@Forms@Windows@System@@$$FQ$CAM@H@Z
  011a1	02		 ldarg.0 	; this$
  011a2	7b 00 00 00 00	 ldfld ?splitContainer1@MogiTest@Mogitter@@3P$AAVSplitContainer@Forms@Windows@System@@$AA
  011a7	11 10		 ldloc.s 16	; $T14
  011a9	28 00 00 00 00	 call ?set@Margin@Control@Forms@Windows@System@@$$FQ$AAMXVPadding@345@@Z

; 489  : 			this->splitContainer1->Name = L"splitContainer1";

  011ae	02		 ldarg.0 	; this$
  011af	7b 00 00 00 00	 ldfld ?splitContainer1@MogiTest@Mogitter@@3P$AAVSplitContainer@Forms@Windows@System@@$AA
  011b4	72 00 00 00 00	 ldstr $StringLiteralTok$??_C@_1CA@DLBIODHN@?$AAs?$AAp?$AAl?$AAi?$AAt?$AAC?$AAo?$AAn?$AAt?$AAa?$AAi?$AAn?$AAe?$AAr?$AA1?$AA?$AA@
  011b9	28 00 00 00 00	 call ?set@Name@Control@Forms@Windows@System@@$$FQ$AAMXP$AAVString@5@@Z

; 490  : 			// 
; 491  : 			// splitContainer1.Panel1
; 492  : 			// 
; 493  : 			this->splitContainer1->Panel1->Controls->Add(this->time_limit);

  011be	02		 ldarg.0 	; this$
  011bf	7b 00 00 00 00	 ldfld ?splitContainer1@MogiTest@Mogitter@@3P$AAVSplitContainer@Forms@Windows@System@@$AA
  011c4	28 00 00 00 00	 call ?get@Panel1@SplitContainer@Forms@Windows@System@@$$FQ$AAMP$AAVSplitterPanel@345@XZ
  011c9	28 00 00 00 00	 call ?get@Controls@Control@Forms@Windows@System@@$$FQ$AAMP$AAVControlCollection@2345@XZ
  011ce	02		 ldarg.0 	; this$
  011cf	7b 00 00 00 00	 ldfld ?time_limit@MogiTest@Mogitter@@3P$AAVLabel@Forms@Windows@System@@$AA
  011d4	6f 00 00 00 00	 callvirt ?Add@ControlCollection@Control@Forms@Windows@System@@$$FU$AAMXP$AAV2345@@Z

; 494  : 			this->splitContainer1->Panel1->Controls->Add(this->QuestSentence);

  011d9	02		 ldarg.0 	; this$
  011da	7b 00 00 00 00	 ldfld ?splitContainer1@MogiTest@Mogitter@@3P$AAVSplitContainer@Forms@Windows@System@@$AA
  011df	28 00 00 00 00	 call ?get@Panel1@SplitContainer@Forms@Windows@System@@$$FQ$AAMP$AAVSplitterPanel@345@XZ
  011e4	28 00 00 00 00	 call ?get@Controls@Control@Forms@Windows@System@@$$FQ$AAMP$AAVControlCollection@2345@XZ
  011e9	02		 ldarg.0 	; this$
  011ea	7b 00 00 00 00	 ldfld ?QuestSentence@MogiTest@Mogitter@@3P$AAVAzukiControl@WinForms@Azuki@Sgry@@$AA
  011ef	6f 00 00 00 00	 callvirt ?Add@ControlCollection@Control@Forms@Windows@System@@$$FU$AAMXP$AAV2345@@Z

; 495  : 			// 
; 496  : 			// splitContainer1.Panel2
; 497  : 			// 
; 498  : 			this->splitContainer1->Panel2->Controls->Add(this->userAnswerArea);

  011f4	02		 ldarg.0 	; this$
  011f5	7b 00 00 00 00	 ldfld ?splitContainer1@MogiTest@Mogitter@@3P$AAVSplitContainer@Forms@Windows@System@@$AA
  011fa	28 00 00 00 00	 call ?get@Panel2@SplitContainer@Forms@Windows@System@@$$FQ$AAMP$AAVSplitterPanel@345@XZ
  011ff	28 00 00 00 00	 call ?get@Controls@Control@Forms@Windows@System@@$$FQ$AAMP$AAVControlCollection@2345@XZ
  01204	02		 ldarg.0 	; this$
  01205	7b 00 00 00 00	 ldfld ?userAnswerArea@MogiTest@Mogitter@@3P$AAVAzukiControl@WinForms@Azuki@Sgry@@$AA
  0120a	6f 00 00 00 00	 callvirt ?Add@ControlCollection@Control@Forms@Windows@System@@$$FU$AAMXP$AAV2345@@Z

; 499  : 			this->splitContainer1->Panel2->Controls->Add(this->label2);

  0120f	02		 ldarg.0 	; this$
  01210	7b 00 00 00 00	 ldfld ?splitContainer1@MogiTest@Mogitter@@3P$AAVSplitContainer@Forms@Windows@System@@$AA
  01215	28 00 00 00 00	 call ?get@Panel2@SplitContainer@Forms@Windows@System@@$$FQ$AAMP$AAVSplitterPanel@345@XZ
  0121a	28 00 00 00 00	 call ?get@Controls@Control@Forms@Windows@System@@$$FQ$AAMP$AAVControlCollection@2345@XZ
  0121f	02		 ldarg.0 	; this$
  01220	7b 00 00 00 00	 ldfld ?label2@MogiTest@Mogitter@@3P$AAVLabel@Forms@Windows@System@@$AA
  01225	6f 00 00 00 00	 callvirt ?Add@ControlCollection@Control@Forms@Windows@System@@$$FU$AAMXP$AAV2345@@Z

; 500  : 			this->splitContainer1->Size = System::Drawing::Size(827, 542);

  0122a	12 0f		 ldloca.s 15	; $S113$
  0122c	20 3b 03 00 00	 ldc.i4 827	; i32 0x33b
  01231	20 1e 02 00 00	 ldc.i4 542	; i32 0x21e
  01236	28 00 00 00 00	 call ??0Size@Drawing@System@@$$FQ$CAM@HH@Z
  0123b	02		 ldarg.0 	; this$
  0123c	7b 00 00 00 00	 ldfld ?splitContainer1@MogiTest@Mogitter@@3P$AAVSplitContainer@Forms@Windows@System@@$AA
  01241	11 0f		 ldloc.s 15	; $S113$
  01243	28 00 00 00 00	 call ?set@Size@Control@Forms@Windows@System@@$$FQ$AAMXV1Drawing@5@@Z

; 501  : 			this->splitContainer1->SplitterDistance = 610;

  01248	02		 ldarg.0 	; this$
  01249	7b 00 00 00 00	 ldfld ?splitContainer1@MogiTest@Mogitter@@3P$AAVSplitContainer@Forms@Windows@System@@$AA
  0124e	20 62 02 00 00	 ldc.i4 610	; i32 0x262
  01253	28 00 00 00 00	 call ?set@SplitterDistance@SplitContainer@Forms@Windows@System@@$$FQ$AAMXH@Z

; 502  : 			this->splitContainer1->SplitterWidth = 3;

  01258	02		 ldarg.0 	; this$
  01259	7b 00 00 00 00	 ldfld ?splitContainer1@MogiTest@Mogitter@@3P$AAVSplitContainer@Forms@Windows@System@@$AA
  0125e	19		 ldc.i.3 3	; i32 0x3
  0125f	28 00 00 00 00	 call ?set@SplitterWidth@SplitContainer@Forms@Windows@System@@$$FQ$AAMXH@Z

; 503  : 			this->splitContainer1->TabIndex = 12;

  01264	02		 ldarg.0 	; this$
  01265	7b 00 00 00 00	 ldfld ?splitContainer1@MogiTest@Mogitter@@3P$AAVSplitContainer@Forms@Windows@System@@$AA
  0126a	1f 0c		 ldc.i4.s 12	; i32 0xc
  0126c	28 00 00 00 00	 call ?set@TabIndex@Control@Forms@Windows@System@@$$FQ$AAMXH@Z

; 504  : 			this->splitContainer1->TabStop = false;

  01271	02		 ldarg.0 	; this$
  01272	7b 00 00 00 00	 ldfld ?splitContainer1@MogiTest@Mogitter@@3P$AAVSplitContainer@Forms@Windows@System@@$AA
  01277	16		 ldc.i.0 0	; u8 0x0
  01278	28 00 00 00 00	 call ?set@TabStop@SplitContainer@Forms@Windows@System@@$$FQ$AAMX_N@Z

; 505  : 			// 
; 506  : 			// panel1
; 507  : 			// 
; 508  : 			this->panel1->BackColor = System::Drawing::Color::Lime;

  0127d	28 00 00 00 00	 call ?get@Lime@Color@Drawing@System@@$$FSM?AV234@XZ
  01282	13 0e		 stloc.s 14	; $T15
  01284	02		 ldarg.0 	; this$
  01285	7b 00 00 00 00	 ldfld ?panel1@MogiTest@Mogitter@@3P$AAVPanel@Forms@Windows@System@@$AA
  0128a	11 0e		 ldloc.s 14	; $T15
  0128c	6f 00 00 00 00	 callvirt ?set@BackColor@Control@Forms@Windows@System@@$$FU$AAMXVColor@Drawing@5@@Z

; 509  : 			this->panel1->Controls->Add(this->QNumUpDown);

  01291	02		 ldarg.0 	; this$
  01292	7b 00 00 00 00	 ldfld ?panel1@MogiTest@Mogitter@@3P$AAVPanel@Forms@Windows@System@@$AA
  01297	28 00 00 00 00	 call ?get@Controls@Control@Forms@Windows@System@@$$FQ$AAMP$AAVControlCollection@2345@XZ
  0129c	02		 ldarg.0 	; this$
  0129d	7b 00 00 00 00	 ldfld ?QNumUpDown@MogiTest@Mogitter@@3P$AAVNumericUpDown@Forms@Windows@System@@$AA
  012a2	6f 00 00 00 00	 callvirt ?Add@ControlCollection@Control@Forms@Windows@System@@$$FU$AAMXP$AAV2345@@Z

; 510  : 			this->panel1->Controls->Add(this->anaumeGroup);

  012a7	02		 ldarg.0 	; this$
  012a8	7b 00 00 00 00	 ldfld ?panel1@MogiTest@Mogitter@@3P$AAVPanel@Forms@Windows@System@@$AA
  012ad	28 00 00 00 00	 call ?get@Controls@Control@Forms@Windows@System@@$$FQ$AAMP$AAVControlCollection@2345@XZ
  012b2	02		 ldarg.0 	; this$
  012b3	7b 00 00 00 00	 ldfld ?anaumeGroup@MogiTest@Mogitter@@3P$AAVGroupBox@Forms@Windows@System@@$AA
  012b8	6f 00 00 00 00	 callvirt ?Add@ControlCollection@Control@Forms@Windows@System@@$$FU$AAMXP$AAV2345@@Z

; 511  : 			this->panel1->Controls->Add(this->label3);

  012bd	02		 ldarg.0 	; this$
  012be	7b 00 00 00 00	 ldfld ?panel1@MogiTest@Mogitter@@3P$AAVPanel@Forms@Windows@System@@$AA
  012c3	28 00 00 00 00	 call ?get@Controls@Control@Forms@Windows@System@@$$FQ$AAMP$AAVControlCollection@2345@XZ
  012c8	02		 ldarg.0 	; this$
  012c9	7b 00 00 00 00	 ldfld ?label3@MogiTest@Mogitter@@3P$AAVLabel@Forms@Windows@System@@$AA
  012ce	6f 00 00 00 00	 callvirt ?Add@ControlCollection@Control@Forms@Windows@System@@$$FU$AAMXP$AAV2345@@Z

; 512  : 			this->panel1->Location = System::Drawing::Point(0, 572);

  012d3	12 0d		 ldloca.s 13	; $S114$
  012d5	16		 ldc.i.0 0	; i32 0x0
  012d6	20 3c 02 00 00	 ldc.i4 572	; i32 0x23c
  012db	28 00 00 00 00	 call ??0Point@Drawing@System@@$$FQ$CAM@HH@Z
  012e0	02		 ldarg.0 	; this$
  012e1	7b 00 00 00 00	 ldfld ?panel1@MogiTest@Mogitter@@3P$AAVPanel@Forms@Windows@System@@$AA
  012e6	11 0d		 ldloc.s 13	; $S114$
  012e8	28 00 00 00 00	 call ?set@Location@Control@Forms@Windows@System@@$$FQ$AAMXVPoint@Drawing@5@@Z

; 513  : 			this->panel1->Name = L"panel1";

  012ed	02		 ldarg.0 	; this$
  012ee	7b 00 00 00 00	 ldfld ?panel1@MogiTest@Mogitter@@3P$AAVPanel@Forms@Windows@System@@$AA
  012f3	72 00 00 00 00	 ldstr $StringLiteralTok$??_C@_1O@BHFINPOD@?$AAp?$AAa?$AAn?$AAe?$AAl?$AA1?$AA?$AA@
  012f8	28 00 00 00 00	 call ?set@Name@Control@Forms@Windows@System@@$$FQ$AAMXP$AAVString@5@@Z

; 514  : 			this->panel1->Size = System::Drawing::Size(827, 99);

  012fd	12 0c		 ldloca.s 12	; $S115$
  012ff	20 3b 03 00 00	 ldc.i4 827	; i32 0x33b
  01304	1f 63		 ldc.i4.s 99	; i32 0x63
  01306	28 00 00 00 00	 call ??0Size@Drawing@System@@$$FQ$CAM@HH@Z
  0130b	02		 ldarg.0 	; this$
  0130c	7b 00 00 00 00	 ldfld ?panel1@MogiTest@Mogitter@@3P$AAVPanel@Forms@Windows@System@@$AA
  01311	11 0c		 ldloc.s 12	; $S115$
  01313	28 00 00 00 00	 call ?set@Size@Control@Forms@Windows@System@@$$FQ$AAMXV1Drawing@5@@Z

; 515  : 			this->panel1->TabIndex = 14;

  01318	02		 ldarg.0 	; this$
  01319	7b 00 00 00 00	 ldfld ?panel1@MogiTest@Mogitter@@3P$AAVPanel@Forms@Windows@System@@$AA
  0131e	1f 0e		 ldc.i4.s 14	; i32 0xe
  01320	28 00 00 00 00	 call ?set@TabIndex@Control@Forms@Windows@System@@$$FQ$AAMXH@Z

; 516  : 			// 
; 517  : 			// MogiTest
; 518  : 			// 
; 519  : 			this->AutoScaleDimensions = System::Drawing::SizeF(6, 12);

  01325	12 0b		 ldloca.s 11	; $S116$
  01327	22 00 00 c0 40	 ldc.r4 6.000000
  0132c	22 00 00 40 41	 ldc.r4 12.000000
  01331	28 00 00 00 00	 call ??0SizeF@Drawing@System@@$$FQ$CAM@MM@Z
  01336	02		 ldarg.0 	; this$
  01337	11 0b		 ldloc.s 11	; $S116$
  01339	28 00 00 00 00	 call ?set@AutoScaleDimensions@ContainerControl@Forms@Windows@System@@$$FQ$AAMXVSizeF@Drawing@5@@Z

; 520  : 			this->AutoScaleMode = System::Windows::Forms::AutoScaleMode::Font;

  0133e	02		 ldarg.0 	; this$
  0133f	17		 ldc.i.1 1	; i32 0x1
  01340	28 00 00 00 00	 call ?set@AutoScaleMode@ContainerControl@Forms@Windows@System@@$$FQ$AAMXW41345@@Z

; 521  : 			this->ClientSize = System::Drawing::Size(827, 671);

  01345	12 0a		 ldloca.s 10	; $S117$
  01347	20 3b 03 00 00	 ldc.i4 827	; i32 0x33b
  0134c	20 9f 02 00 00	 ldc.i4 671	; i32 0x29f
  01351	28 00 00 00 00	 call ??0Size@Drawing@System@@$$FQ$CAM@HH@Z
  01356	02		 ldarg.0 	; this$
  01357	11 0a		 ldloc.s 10	; $S117$
  01359	28 00 00 00 00	 call ?set@ClientSize@Form@Forms@Windows@System@@$$FQ$AAMXVSize@Drawing@5@@Z

; 522  : 			this->Controls->Add(this->marutsukeButton);

  0135e	02		 ldarg.0 	; this$
  0135f	28 00 00 00 00	 call ?get@Controls@Control@Forms@Windows@System@@$$FQ$AAMP$AAVControlCollection@2345@XZ
  01364	02		 ldarg.0 	; this$
  01365	7b 00 00 00 00	 ldfld ?marutsukeButton@MogiTest@Mogitter@@3P$AAVButton@Forms@Windows@System@@$AA
  0136a	6f 00 00 00 00	 callvirt ?Add@ControlCollection@Control@Forms@Windows@System@@$$FU$AAMXP$AAV2345@@Z

; 523  : 			this->Controls->Add(this->sentakuGroup);

  0136f	02		 ldarg.0 	; this$
  01370	28 00 00 00 00	 call ?get@Controls@Control@Forms@Windows@System@@$$FQ$AAMP$AAVControlCollection@2345@XZ
  01375	02		 ldarg.0 	; this$
  01376	7b 00 00 00 00	 ldfld ?sentakuGroup@MogiTest@Mogitter@@3P$AAVGroupBox@Forms@Windows@System@@$AA
  0137b	6f 00 00 00 00	 callvirt ?Add@ControlCollection@Control@Forms@Windows@System@@$$FU$AAMXP$AAV2345@@Z

; 524  : 			this->Controls->Add(this->menuStrip1);

  01380	02		 ldarg.0 	; this$
  01381	28 00 00 00 00	 call ?get@Controls@Control@Forms@Windows@System@@$$FQ$AAMP$AAVControlCollection@2345@XZ
  01386	02		 ldarg.0 	; this$
  01387	7b 00 00 00 00	 ldfld ?menuStrip1@MogiTest@Mogitter@@3P$AAVMenuStrip@Forms@Windows@System@@$AA
  0138c	6f 00 00 00 00	 callvirt ?Add@ControlCollection@Control@Forms@Windows@System@@$$FU$AAMXP$AAV2345@@Z

; 525  : 			this->Controls->Add(this->splitContainer1);

  01391	02		 ldarg.0 	; this$
  01392	28 00 00 00 00	 call ?get@Controls@Control@Forms@Windows@System@@$$FQ$AAMP$AAVControlCollection@2345@XZ
  01397	02		 ldarg.0 	; this$
  01398	7b 00 00 00 00	 ldfld ?splitContainer1@MogiTest@Mogitter@@3P$AAVSplitContainer@Forms@Windows@System@@$AA
  0139d	6f 00 00 00 00	 callvirt ?Add@ControlCollection@Control@Forms@Windows@System@@$$FU$AAMXP$AAV2345@@Z

; 526  : 			this->Controls->Add(this->panel1);

  013a2	02		 ldarg.0 	; this$
  013a3	28 00 00 00 00	 call ?get@Controls@Control@Forms@Windows@System@@$$FQ$AAMP$AAVControlCollection@2345@XZ
  013a8	02		 ldarg.0 	; this$
  013a9	7b 00 00 00 00	 ldfld ?panel1@MogiTest@Mogitter@@3P$AAVPanel@Forms@Windows@System@@$AA
  013ae	6f 00 00 00 00	 callvirt ?Add@ControlCollection@Control@Forms@Windows@System@@$$FU$AAMXP$AAV2345@@Z

; 527  : 			this->FormBorderStyle = System::Windows::Forms::FormBorderStyle::FixedSingle;

  013b3	02		 ldarg.0 	; this$
  013b4	17		 ldc.i.1 1	; i32 0x1
  013b5	28 00 00 00 00	 call ?set@FormBorderStyle@Form@Forms@Windows@System@@$$FQ$AAMXW41345@@Z

; 528  : 			this->Icon = (cli::safe_cast<System::Drawing::Icon^  >(resources->GetObject(L"$this.Icon")));

  013ba	02		 ldarg.0 	; this$
  013bb	11 09		 ldloc.s 9	; resources$
  013bd	72 00 00 00 00	 ldstr $StringLiteralTok$??_C@_1BG@GPPJDCEN@?$AA$?$AAt?$AAh?$AAi?$AAs?$AA?4?$AAI?$AAc?$AAo?$AAn?$AA?$AA@
  013c2	6f 00 00 00 00	 callvirt ?GetObject@ResourceManager@Resources@System@@$$FU$AAMP$AAVObject@3@P$AAVString@3@@Z
  013c7	74 00 00 00 00	 castClass $TypeTok$112E75D4$
  013cc	28 00 00 00 00	 call ?set@Icon@Form@Forms@Windows@System@@$$FQ$AAMXP$AAV1Drawing@5@@Z

; 529  : 			this->MainMenuStrip = this->menuStrip1;

  013d1	02		 ldarg.0 	; this$
  013d2	25		 dup 
  013d3	7b 00 00 00 00	 ldfld ?menuStrip1@MogiTest@Mogitter@@3P$AAVMenuStrip@Forms@Windows@System@@$AA
  013d8	28 00 00 00 00	 call ?set@MainMenuStrip@Form@Forms@Windows@System@@$$FQ$AAMXP$AAVMenuStrip@345@@Z

; 530  : 			this->MaximizeBox = false;

  013dd	02		 ldarg.0 	; this$
  013de	16		 ldc.i.0 0	; u8 0x0
  013df	28 00 00 00 00	 call ?set@MaximizeBox@Form@Forms@Windows@System@@$$FQ$AAMX_N@Z

; 531  : 			this->Name = L"MogiTest";

  013e4	02		 ldarg.0 	; this$
  013e5	72 00 00 00 00	 ldstr $StringLiteralTok$??_C@_1BC@HLJNNGLN@?$AAM?$AAo?$AAg?$AAi?$AAT?$AAe?$AAs?$AAt?$AA?$AA@
  013ea	28 00 00 00 00	 call ?set@Name@Control@Forms@Windows@System@@$$FQ$AAMXP$AAVString@5@@Z

; 532  : 			this->StartPosition = System::Windows::Forms::FormStartPosition::CenterScreen;

  013ef	02		 ldarg.0 	; this$
  013f0	17		 ldc.i.1 1	; i32 0x1
  013f1	28 00 00 00 00	 call ?set@StartPosition@Form@Forms@Windows@System@@$$FQ$AAMXW4FormStartPosition@345@@Z

; 533  : 			this->Text = L"MogiTest";

  013f6	02		 ldarg.0 	; this$
  013f7	72 00 00 00 00	 ldstr $StringLiteralTok$??_C@_1BC@HLJNNGLN@?$AAM?$AAo?$AAg?$AAi?$AAT?$AAe?$AAs?$AAt?$AA?$AA@
  013fc	6f 00 00 00 00	 callvirt ?set@Text@Form@Forms@Windows@System@@$$FU$AAMXP$AAVString@5@@Z

; 534  : 			this->Load += gcnew System::EventHandler(this, &MogiTest::MogiTest_Load);

  01401	02		 ldarg.0 	; this$
  01402	25		 dup 
  01403	fe 06 00 00 00
	00		 ldftn ?MogiTest_Load@MogiTest@Mogitter@@$$FA$AAMXP$AAVObject@System@@P$AAVEventArgs@4@@Z
  01409	73 00 00 00 00	 newobj ??0EventHandler@System@@$$FQ$AAM@P$AAVObject@1@VIntPtr@1@@Z
  0140e	28 00 00 00 00	 call ?add@Load@Form@Forms@Windows@System@@$$FQ$AAMXP$AAVEventHandler@5@@Z

; 535  : 			this->anaumeGroup->ResumeLayout(false);

  01413	02		 ldarg.0 	; this$
  01414	7b 00 00 00 00	 ldfld ?anaumeGroup@MogiTest@Mogitter@@3P$AAVGroupBox@Forms@Windows@System@@$AA
  01419	16		 ldc.i.0 0	; u8 0x0
  0141a	28 00 00 00 00	 call ?ResumeLayout@Control@Forms@Windows@System@@$$FQ$AAMX_N@Z

; 536  : 			this->anaumeGroup->PerformLayout();

  0141f	02		 ldarg.0 	; this$
  01420	7b 00 00 00 00	 ldfld ?anaumeGroup@MogiTest@Mogitter@@3P$AAVGroupBox@Forms@Windows@System@@$AA
  01425	28 00 00 00 00	 call ?PerformLayout@Control@Forms@Windows@System@@$$FQ$AAMXXZ

; 537  : 			this->sentakuGroup->ResumeLayout(false);

  0142a	02		 ldarg.0 	; this$
  0142b	7b 00 00 00 00	 ldfld ?sentakuGroup@MogiTest@Mogitter@@3P$AAVGroupBox@Forms@Windows@System@@$AA
  01430	16		 ldc.i.0 0	; u8 0x0
  01431	28 00 00 00 00	 call ?ResumeLayout@Control@Forms@Windows@System@@$$FQ$AAMX_N@Z

; 538  : 			this->sentakuGroup->PerformLayout();

  01436	02		 ldarg.0 	; this$
  01437	7b 00 00 00 00	 ldfld ?sentakuGroup@MogiTest@Mogitter@@3P$AAVGroupBox@Forms@Windows@System@@$AA
  0143c	28 00 00 00 00	 call ?PerformLayout@Control@Forms@Windows@System@@$$FQ$AAMXXZ

; 539  : 			this->menuStrip1->ResumeLayout(false);

  01441	02		 ldarg.0 	; this$
  01442	7b 00 00 00 00	 ldfld ?menuStrip1@MogiTest@Mogitter@@3P$AAVMenuStrip@Forms@Windows@System@@$AA
  01447	16		 ldc.i.0 0	; u8 0x0
  01448	28 00 00 00 00	 call ?ResumeLayout@Control@Forms@Windows@System@@$$FQ$AAMX_N@Z

; 540  : 			this->menuStrip1->PerformLayout();

  0144d	02		 ldarg.0 	; this$
  0144e	7b 00 00 00 00	 ldfld ?menuStrip1@MogiTest@Mogitter@@3P$AAVMenuStrip@Forms@Windows@System@@$AA
  01453	28 00 00 00 00	 call ?PerformLayout@Control@Forms@Windows@System@@$$FQ$AAMXXZ

; 541  : 			(cli::safe_cast<System::ComponentModel::ISupportInitialize^  >(this->QNumUpDown))->EndInit();

  01458	02		 ldarg.0 	; this$
  01459	7b 00 00 00 00	 ldfld ?QNumUpDown@MogiTest@Mogitter@@3P$AAVNumericUpDown@Forms@Windows@System@@$AA
  0145e	6f 00 00 00 00	 callvirt ?EndInit@ISupportInitialize@ComponentModel@System@@$$FU$AAMXXZ

; 542  : 			this->splitContainer1->Panel1->ResumeLayout(false);

  01463	02		 ldarg.0 	; this$
  01464	7b 00 00 00 00	 ldfld ?splitContainer1@MogiTest@Mogitter@@3P$AAVSplitContainer@Forms@Windows@System@@$AA
  01469	28 00 00 00 00	 call ?get@Panel1@SplitContainer@Forms@Windows@System@@$$FQ$AAMP$AAVSplitterPanel@345@XZ
  0146e	16		 ldc.i.0 0	; u8 0x0
  0146f	28 00 00 00 00	 call ?ResumeLayout@Control@Forms@Windows@System@@$$FQ$AAMX_N@Z

; 543  : 			this->splitContainer1->Panel1->PerformLayout();

  01474	02		 ldarg.0 	; this$
  01475	7b 00 00 00 00	 ldfld ?splitContainer1@MogiTest@Mogitter@@3P$AAVSplitContainer@Forms@Windows@System@@$AA
  0147a	28 00 00 00 00	 call ?get@Panel1@SplitContainer@Forms@Windows@System@@$$FQ$AAMP$AAVSplitterPanel@345@XZ
  0147f	28 00 00 00 00	 call ?PerformLayout@Control@Forms@Windows@System@@$$FQ$AAMXXZ

; 544  : 			this->splitContainer1->Panel2->ResumeLayout(false);

  01484	02		 ldarg.0 	; this$
  01485	7b 00 00 00 00	 ldfld ?splitContainer1@MogiTest@Mogitter@@3P$AAVSplitContainer@Forms@Windows@System@@$AA
  0148a	28 00 00 00 00	 call ?get@Panel2@SplitContainer@Forms@Windows@System@@$$FQ$AAMP$AAVSplitterPanel@345@XZ
  0148f	16		 ldc.i.0 0	; u8 0x0
  01490	28 00 00 00 00	 call ?ResumeLayout@Control@Forms@Windows@System@@$$FQ$AAMX_N@Z

; 545  : 			this->splitContainer1->Panel2->PerformLayout();

  01495	02		 ldarg.0 	; this$
  01496	7b 00 00 00 00	 ldfld ?splitContainer1@MogiTest@Mogitter@@3P$AAVSplitContainer@Forms@Windows@System@@$AA
  0149b	28 00 00 00 00	 call ?get@Panel2@SplitContainer@Forms@Windows@System@@$$FQ$AAMP$AAVSplitterPanel@345@XZ
  014a0	28 00 00 00 00	 call ?PerformLayout@Control@Forms@Windows@System@@$$FQ$AAMXXZ

; 546  : 			(cli::safe_cast<System::ComponentModel::ISupportInitialize^  >(this->splitContainer1))->EndInit();

  014a5	02		 ldarg.0 	; this$
  014a6	7b 00 00 00 00	 ldfld ?splitContainer1@MogiTest@Mogitter@@3P$AAVSplitContainer@Forms@Windows@System@@$AA
  014ab	6f 00 00 00 00	 callvirt ?EndInit@ISupportInitialize@ComponentModel@System@@$$FU$AAMXXZ

; 547  : 			this->splitContainer1->ResumeLayout(false);

  014b0	02		 ldarg.0 	; this$
  014b1	7b 00 00 00 00	 ldfld ?splitContainer1@MogiTest@Mogitter@@3P$AAVSplitContainer@Forms@Windows@System@@$AA
  014b6	16		 ldc.i.0 0	; u8 0x0
  014b7	28 00 00 00 00	 call ?ResumeLayout@Control@Forms@Windows@System@@$$FQ$AAMX_N@Z

; 548  : 			this->panel1->ResumeLayout(false);

  014bc	02		 ldarg.0 	; this$
  014bd	7b 00 00 00 00	 ldfld ?panel1@MogiTest@Mogitter@@3P$AAVPanel@Forms@Windows@System@@$AA
  014c2	16		 ldc.i.0 0	; u8 0x0
  014c3	28 00 00 00 00	 call ?ResumeLayout@Control@Forms@Windows@System@@$$FQ$AAMX_N@Z

; 549  : 			this->panel1->PerformLayout();

  014c8	02		 ldarg.0 	; this$
  014c9	7b 00 00 00 00	 ldfld ?panel1@MogiTest@Mogitter@@3P$AAVPanel@Forms@Windows@System@@$AA
  014ce	28 00 00 00 00	 call ?PerformLayout@Control@Forms@Windows@System@@$$FQ$AAMXXZ

; 550  : 			this->ResumeLayout(false);

  014d3	02		 ldarg.0 	; this$
  014d4	16		 ldc.i.0 0	; u8 0x0
  014d5	28 00 00 00 00	 call ?ResumeLayout@Control@Forms@Windows@System@@$$FQ$AAMX_N@Z

; 551  : 			this->PerformLayout();

  014da	02		 ldarg.0 	; this$
  014db	28 00 00 00 00	 call ?PerformLayout@Control@Forms@Windows@System@@$$FQ$AAMXXZ

; 552  : 
; 553  : 		}

  014e0	2a		 ret 
 .end ?InitializeComponent@MogiTest@Mogitter@@$$FA$AAMXXZ ; Mogitter::MogiTest::InitializeComponent
;	.proc.end.void
; Function compile flags: /Ogsp
; File f:\meijin4\c++\mogitter\mogitter\mogitest.h
	.text
	.comdat	any, ??0MogiTest@Mogitter@@$$FQ$AAM@XZ
.global	??0MogiTest@Mogitter@@$$FQ$AAM@XZ		; Mogitter::MogiTest::MogiTest
??0MogiTest@Mogitter@@$$FQ$AAM@XZ:			; Mogitter::MogiTest::MogiTest
;	.proc.def	D:V()

; Function Header:
; max stack depth = 2
; function size = 23 bytes
; local varsig tk = 0x0 
; Exception Information:
; 1 handlers, each consisting of filtered handlers

;	.formal.mptr 0,"this$" SIG: Optional C Binding Modifier(token:0x3D121A5).class (token:0x3D121A8)

;	.proc.beg

; 30   : 		MogiTest(void)

  0000b	02		 ldarg.0 	; this$
  0000c	28 00 00 00 00	 call ??0Form@Forms@Windows@System@@$$FQ$AAM@XZ
$LN4@MogiTest:

; 31   : 		{
; 32   : 			InitializeComponent();

  00012	02		 ldarg.0 	; this$
  00013	28 00 00 00 00	 call ?InitializeComponent@MogiTest@Mogitter@@$$FA$AAMXXZ
  00018	de 08		 leave.s $LN5@MogiTest
$LN6@MogiTest:
  0001a	02		 ldarg.0 	; this$
  0001b	17		 ldc.i.1 1	; u8 0x1
  0001c	28 00 00 00 00	 call ?<Dispose>@Form@Forms@Windows@System@@$$FM$AAMX_N@Z
  00021	dc		 endfinally 
$LN5@MogiTest:

; 33   : 			//
; 34   : 			//TODO: ここにコンストラクタ コードを追加します
; 35   : 			//
; 36   : 		}

  00022	2a		 ret 
 .end ??0MogiTest@Mogitter@@$$FQ$AAM@XZ			; Mogitter::MogiTest::MogiTest
;	.proc.end.void
.global	
	.bss
.local	,4
.local	$T1,0
; Function compile flags: /Ogsp
; File f:\meijin4\c++\mogitter\mogitter\form1.h
	.text
	.comdat	any, ?mogiMake_Click@Form1@Mogitter@@$$FA$AAMXP$AAVObject@System@@P$AAVEventArgs@4@@Z
.global	?mogiMake_Click@Form1@Mogitter@@$$FA$AAMXP$AAVObject@System@@P$AAVEventArgs@4@@Z ; Mogitter::Form1::mogiMake_Click
?mogiMake_Click@Form1@Mogitter@@$$FA$AAMXP$AAVObject@System@@P$AAVEventArgs@4@@Z: ; Mogitter::Form1::mogiMake_Click
;	.proc.def	D:V(PP)

; Function Header:
; max stack depth = 2
; function size = 57 bytes
; local varsig tk = 0x11000049 
; Exception Information:
; 0 handlers, each consisting of filtered handlers

;	.formal.mptr 0,"this$" SIG: Optional C Binding Modifier(token:0x38BA05).class (token:0x38BA08)
;	.local.mptr 0,"test$2" SIG: class (token:0x3D729AD)
;	.local.mptr 1,"comTxt$3" SIG: string

;	.proc.beg

; 886  : 				 if (azukiArea->Text->IndexOf("{Answer=") > 0)

  0000b	02		 ldarg.0 	; this$
  0000c	7b 00 00 00 00	 ldfld ?azukiArea@Form1@Mogitter@@3P$AAVAzukiControl@WinForms@Azuki@Sgry@@$AA
  00011	6f 00 00 00 00	 callvirt ?get@Text@AzukiControl@WinForms@Azuki@Sgry@@$$FU$AAMP$AAVString@System@@XZ
  00016	72 00 00 00 00	 ldstr $StringLiteralTok$??_C@_1BC@PAOKIFNK@?$AA?$HL?$AAA?$AAn?$AAs?$AAw?$AAe?$AAr?$AA?$DN?$AA?$AA@
  0001b	28 00 00 00 00	 call ?IndexOf@String@System@@$$FQ$AAMHP$AAV12@@Z
  00020	16		 ldc.i.0 0	; i32 0x0
  00021	31 21		 ble.s $LN1@mogiMake_C

; 887  : 				 {
; 888  : 						MogiTest^ test = gcnew MogiTest();

  00023	73 00 00 00 00	 newobj ??0MogiTest@Mogitter@@$$FQ$AAM@XZ
  00028	0a		 stloc.0 	; test$2

; 889  : 						String^ comTxt = "";
; 890  : 						comTxt = azukiArea->Text;

  00029	02		 ldarg.0 	; this$
  0002a	7b 00 00 00 00	 ldfld ?azukiArea@Form1@Mogitter@@3P$AAVAzukiControl@WinForms@Azuki@Sgry@@$AA
  0002f	6f 00 00 00 00	 callvirt ?get@Text@AzukiControl@WinForms@Azuki@Sgry@@$$FU$AAMP$AAVString@System@@XZ
  00034	0b		 stloc.1 	; comTxt$3

; 891  : 						test->Show();

  00035	06		 ldloc.0 	; test$2
  00036	28 00 00 00 00	 call ?Show@Control@Forms@Windows@System@@$$FQ$AAMXXZ

; 892  : 						test->compile(comTxt);

  0003b	06		 ldloc.0 	; test$2
  0003c	07		 ldloc.1 	; comTxt$3
  0003d	28 00 00 00 00	 call ?compile@MogiTest@Mogitter@@$$FQ$AAM_NP$AAVString@System@@@Z
  00042	26		 pop 
$LN1@mogiMake_C:

; 893  : 				 }
; 894  : 			 }

  00044	2a		 ret 
 .end ?mogiMake_Click@Form1@Mogitter@@$$FA$AAMXP$AAVObject@System@@P$AAVEventArgs@4@@Z ; Mogitter::Form1::mogiMake_Click
;	.proc.end.void
.global	?openFile@Form1@Mogitter@@3P$AAVButton@Forms@Windows@System@@$AA ; Mogitter::Form1::openFile
.global	?setting@Form1@Mogitter@@3P$AAVButton@Forms@Windows@System@@$AA ; Mogitter::Form1::setting
.global	?helping@Form1@Mogitter@@3P$AAVButton@Forms@Windows@System@@$AA ; Mogitter::Form1::helping
.global	?menuStrip1@Form1@Mogitter@@3P$AAVMenuStrip@Forms@Windows@System@@$AA ; Mogitter::Form1::menuStrip1
.global	?FileMenu@Form1@Mogitter@@3P$AAVToolStripMenuItem@Forms@Windows@System@@$AA ; Mogitter::Form1::FileMenu
.global	?newMakeItem@Form1@Mogitter@@3P$AAVToolStripMenuItem@Forms@Windows@System@@$AA ; Mogitter::Form1::newMakeItem
.global	?openMenuItem@Form1@Mogitter@@3P$AAVToolStripMenuItem@Forms@Windows@System@@$AA ; Mogitter::Form1::openMenuItem
.global	?toolStripSeparator@Form1@Mogitter@@3P$AAVToolStripSeparator@Forms@Windows@System@@$AA ; Mogitter::Form1::toolStripSeparator
.global	?over_writeMenuItem@Form1@Mogitter@@3P$AAVToolStripMenuItem@Forms@Windows@System@@$AA ; Mogitter::Form1::over_writeMenuItem
.global	?named_saveMenuItem@Form1@Mogitter@@3P$AAVToolStripMenuItem@Forms@Windows@System@@$AA ; Mogitter::Form1::named_saveMenuItem
.global	?plusMenuItem@Form1@Mogitter@@3P$AAVToolStripMenuItem@Forms@Windows@System@@$AA ; Mogitter::Form1::plusMenuItem
.global	?toolStripSeparator1@Form1@Mogitter@@3P$AAVToolStripSeparator@Forms@Windows@System@@$AA ; Mogitter::Form1::toolStripSeparator1
.global	?endMenuItem@Form1@Mogitter@@3P$AAVToolStripMenuItem@Forms@Windows@System@@$AA ; Mogitter::Form1::endMenuItem
.global	?EditMenu@Form1@Mogitter@@3P$AAVToolStripMenuItem@Forms@Windows@System@@$AA ; Mogitter::Form1::EditMenu
.global	?undoMenuItem@Form1@Mogitter@@3P$AAVToolStripMenuItem@Forms@Windows@System@@$AA ; Mogitter::Form1::undoMenuItem
.global	?redoMenuItem@Form1@Mogitter@@3P$AAVToolStripMenuItem@Forms@Windows@System@@$AA ; Mogitter::Form1::redoMenuItem
.global	?toolStripSeparator3@Form1@Mogitter@@3P$AAVToolStripSeparator@Forms@Windows@System@@$AA ; Mogitter::Form1::toolStripSeparator3
.global	?copyMenuItem@Form1@Mogitter@@3P$AAVToolStripMenuItem@Forms@Windows@System@@$AA ; Mogitter::Form1::copyMenuItem
.global	?toolStripSeparator4@Form1@Mogitter@@3P$AAVToolStripSeparator@Forms@Windows@System@@$AA ; Mogitter::Form1::toolStripSeparator4
.global	?all_selectMenuItem@Form1@Mogitter@@3P$AAVToolStripMenuItem@Forms@Windows@System@@$AA ; Mogitter::Form1::all_selectMenuItem
.global	?ToolMenu@Form1@Mogitter@@3P$AAVToolStripMenuItem@Forms@Windows@System@@$AA ; Mogitter::Form1::ToolMenu
.global	?mogi_makeMenuItem@Form1@Mogitter@@3P$AAVToolStripMenuItem@Forms@Windows@System@@$AA ; Mogitter::Form1::mogi_makeMenuItem
.global	?optionMenuItem@Form1@Mogitter@@3P$AAVToolStripMenuItem@Forms@Windows@System@@$AA ; Mogitter::Form1::optionMenuItem
.global	?HelpMenu@Form1@Mogitter@@3P$AAVToolStripMenuItem@Forms@Windows@System@@$AA ; Mogitter::Form1::HelpMenu
.global	?helpMenuItem@Form1@Mogitter@@3P$AAVToolStripMenuItem@Forms@Windows@System@@$AA ; Mogitter::Form1::helpMenuItem
.global	?makeKaitougun@Form1@Mogitter@@3P$AAVCheckBox@Forms@Windows@System@@$AA ; Mogitter::Form1::makeKaitougun
.global	?sakuseiRB@Form1@Mogitter@@3P$AAVRadioButton@Forms@Windows@System@@$AA ; Mogitter::Form1::sakuseiRB
.global	?saveButton@Form1@Mogitter@@3P$AAVButton@Forms@Windows@System@@$AA ; Mogitter::Form1::saveButton
.global	?label2@Form1@Mogitter@@3P$AAVLabel@Forms@Windows@System@@$AA ; Mogitter::Form1::label2
.global	?label1@Form1@Mogitter@@3P$AAVLabel@Forms@Windows@System@@$AA ; Mogitter::Form1::label1
.global	?statusStrip1@Form1@Mogitter@@3P$AAVStatusStrip@Forms@Windows@System@@$AA ; Mogitter::Form1::statusStrip1
	.bss
.local	$TypeTok$11802004$,4
.local	?openFile@Form1@Mogitter@@3P$AAVButton@Forms@Windows@System@@$AA,4 ; Mogitter::Form1::openFile
.local	?setting@Form1@Mogitter@@3P$AAVButton@Forms@Windows@System@@$AA,4 ; Mogitter::Form1::setting
.local	?helping@Form1@Mogitter@@3P$AAVButton@Forms@Windows@System@@$AA,4 ; Mogitter::Form1::helping
.local	?menuStrip1@Form1@Mogitter@@3P$AAVMenuStrip@Forms@Windows@System@@$AA,4 ; Mogitter::Form1::menuStrip1
.local	?FileMenu@Form1@Mogitter@@3P$AAVToolStripMenuItem@Forms@Windows@System@@$AA,4 ; Mogitter::Form1::FileMenu
.local	?newMakeItem@Form1@Mogitter@@3P$AAVToolStripMenuItem@Forms@Windows@System@@$AA,4 ; Mogitter::Form1::newMakeItem
.local	?openMenuItem@Form1@Mogitter@@3P$AAVToolStripMenuItem@Forms@Windows@System@@$AA,4 ; Mogitter::Form1::openMenuItem
.local	?toolStripSeparator@Form1@Mogitter@@3P$AAVToolStripSeparator@Forms@Windows@System@@$AA,4 ; Mogitter::Form1::toolStripSeparator
.local	?over_writeMenuItem@Form1@Mogitter@@3P$AAVToolStripMenuItem@Forms@Windows@System@@$AA,4 ; Mogitter::Form1::over_writeMenuItem
.local	?named_saveMenuItem@Form1@Mogitter@@3P$AAVToolStripMenuItem@Forms@Windows@System@@$AA,4 ; Mogitter::Form1::named_saveMenuItem
.local	?plusMenuItem@Form1@Mogitter@@3P$AAVToolStripMenuItem@Forms@Windows@System@@$AA,4 ; Mogitter::Form1::plusMenuItem
.local	?toolStripSeparator1@Form1@Mogitter@@3P$AAVToolStripSeparator@Forms@Windows@System@@$AA,4 ; Mogitter::Form1::toolStripSeparator1
.local	?endMenuItem@Form1@Mogitter@@3P$AAVToolStripMenuItem@Forms@Windows@System@@$AA,4 ; Mogitter::Form1::endMenuItem
.local	?EditMenu@Form1@Mogitter@@3P$AAVToolStripMenuItem@Forms@Windows@System@@$AA,4 ; Mogitter::Form1::EditMenu
.local	?undoMenuItem@Form1@Mogitter@@3P$AAVToolStripMenuItem@Forms@Windows@System@@$AA,4 ; Mogitter::Form1::undoMenuItem
.local	?redoMenuItem@Form1@Mogitter@@3P$AAVToolStripMenuItem@Forms@Windows@System@@$AA,4 ; Mogitter::Form1::redoMenuItem
.local	?toolStripSeparator3@Form1@Mogitter@@3P$AAVToolStripSeparator@Forms@Windows@System@@$AA,4 ; Mogitter::Form1::toolStripSeparator3
.local	?copyMenuItem@Form1@Mogitter@@3P$AAVToolStripMenuItem@Forms@Windows@System@@$AA,4 ; Mogitter::Form1::copyMenuItem
.local	?toolStripSeparator4@Form1@Mogitter@@3P$AAVToolStripSeparator@Forms@Windows@System@@$AA,4 ; Mogitter::Form1::toolStripSeparator4
.local	?all_selectMenuItem@Form1@Mogitter@@3P$AAVToolStripMenuItem@Forms@Windows@System@@$AA,4 ; Mogitter::Form1::all_selectMenuItem
.local	?ToolMenu@Form1@Mogitter@@3P$AAVToolStripMenuItem@Forms@Windows@System@@$AA,4 ; Mogitter::Form1::ToolMenu
.local	?mogi_makeMenuItem@Form1@Mogitter@@3P$AAVToolStripMenuItem@Forms@Windows@System@@$AA,4 ; Mogitter::Form1::mogi_makeMenuItem
.local	?optionMenuItem@Form1@Mogitter@@3P$AAVToolStripMenuItem@Forms@Windows@System@@$AA,4 ; Mogitter::Form1::optionMenuItem
.local	?HelpMenu@Form1@Mogitter@@3P$AAVToolStripMenuItem@Forms@Windows@System@@$AA,4 ; Mogitter::Form1::HelpMenu
.local	?helpMenuItem@Form1@Mogitter@@3P$AAVToolStripMenuItem@Forms@Windows@System@@$AA,4 ; Mogitter::Form1::helpMenuItem
.local	?makeKaitougun@Form1@Mogitter@@3P$AAVCheckBox@Forms@Windows@System@@$AA,4 ; Mogitter::Form1::makeKaitougun
.local	?sakuseiRB@Form1@Mogitter@@3P$AAVRadioButton@Forms@Windows@System@@$AA,4 ; Mogitter::Form1::sakuseiRB
.local	?saveButton@Form1@Mogitter@@3P$AAVButton@Forms@Windows@System@@$AA,4 ; Mogitter::Form1::saveButton
.local	?label2@Form1@Mogitter@@3P$AAVLabel@Forms@Windows@System@@$AA,4 ; Mogitter::Form1::label2
.local	?label1@Form1@Mogitter@@3P$AAVLabel@Forms@Windows@System@@$AA,4 ; Mogitter::Form1::label1
.local	?statusStrip1@Form1@Mogitter@@3P$AAVStatusStrip@Forms@Windows@System@@$AA,4 ; Mogitter::Form1::statusStrip1
.local	$StringLiteralTok$??_C@_1BO@KKNMHCJO@?$AAo?$AAp?$AAe?$AAn?$AAF?$AAi?$AAl?$AAe?$AA?4?$AAI?$AAm?$AAa?$AAg?$AAe?$AA?$AA@,4
.local	$StringLiteralTok$??_C@_1BC@LAOFLFKG@?$AAo?$AAp?$AAe?$AAn?$AAF?$AAi?$AAl?$AAe?$AA?$AA@,4
.local	$StringLiteralTok$??_C@_15MELALPNM@?$JF?$IL0O?$AA?$AA@,4
.local	$StringLiteralTok$??_C@_1BO@BIHIFFGL@?$AAm?$AAo?$AAg?$AAi?$AAM?$AAa?$AAk?$AAe?$AA?4?$AAI?$AAm?$AAa?$AAg?$AAe?$AA?$AA@,4
.local	$StringLiteralTok$??_C@_1BC@HOAKHKFJ@?$AAm?$AAo?$AAg?$AAi?$AAM?$AAa?$AAk?$AAe?$AA?$AA@,4
.local	$StringLiteralTok$??_C@_1BA@HGMKBPKA@j?$CBd?l0?F0?$LJ0?Hu?$BPb?$BA?$AA?$AA@,4
.local	$StringLiteralTok$??_C@_1BM@KFCKNFPP@?$AAs?$AAe?$AAt?$AAt?$AAi?$AAn?$AAg?$AA?4?$AAI?$AAm?$AAa?$AAg?$AAe?$AA?$AA@,4
.local	$StringLiteralTok$??_C@_1BA@GONBNHGM@?$AAs?$AAe?$AAt?$AAt?$AAi?$AAn?$AAg?$AA?$AA@,4
.local	$StringLiteralTok$??_C@_1BM@EAMDDLGD@?$AAh?$AAe?$AAl?$AAp?$AAi?$AAn?$AAg?$AA?4?$AAI?$AAm?$AAa?$AAg?$AAe?$AA?$AA@,4
.local	$StringLiteralTok$??_C@_1BA@NBNCPJDH@?$AAh?$AAe?$AAl?$AAp?$AAi?$AAn?$AAg?$AA?$AA@,4
.local	$StringLiteralTok$??_C@_1BC@EDKGGGFJ@?$AAF?$AAi?$AAl?$AAe?$AAM?$AAe?$AAn?$AAu?$AA?$AA@,4
.local	$StringLiteralTok$??_C@_1BI@LHABOKOH@?$AAn?$AAe?$AAw?$AAM?$AAa?$AAk?$AAe?$AAI?$AAt?$AAe?$AAm?$AA?$AA@,4
.local	$StringLiteralTok$??_C@_1BC@DAJLJLPF@e?$LA?$IJ?$IPO?2b?$BA?$AA?$CI?$AA?$CG?$AAN?$AA?$CJ?$AA?$AA@,4
.local	$StringLiteralTok$??_C@_1CG@IJBAHLPK@?$AAo?$AAv?$AAe?$AAr?$AA_?$AAw?$AAr?$AAi?$AAt?$AAe?$AAM?$AAe?$AAn?$AAu?$AAI?$AAt?$AAe?$AAm?$AA?$AA@,4
.local	$StringLiteralTok$??_C@_1BE@ONHOMDHD@N?6f?x0MO?$NN?$FLX?$AA?$CI?$AA?$CG?$AAS?$AA?$CJ?$AA?$AA@,4
.local	$StringLiteralTok$??_C@_1CG@COHFFDFO@?$AAn?$AAa?$AAm?$AAe?$AAd?$AA_?$AAs?$AAa?$AAv?$AAe?$AAM?$AAe?$AAn?$AAu?$AAI?$AAt?$AAe?$AAm?$AA?$AA@,4
.local	$StringLiteralTok$??_C@_1BK@EMHKPIEC@T?$ANRM0?$JCN?X0Q0fO?$NN?$FLX?$AA?$CI?$AA?$CG?$AAN?$AA?$CJ?$AA?$AA@,4
.local	$StringLiteralTok$??_C@_1BK@DINKLABO@?$AAp?$AAl?$AAu?$AAs?$AAM?$AAe?$AAn?$AAu?$AAI?$AAt?$AAe?$AAm?$AA?$AA@,4
.local	$StringLiteralTok$??_C@_1BO@EEDAOMBO@e?b?$FLX0n0?U0?$KB0?$KE0?k0k?$IP?$PNR?$KA?$AA?$CI?$AA?$CG?$AAA?$AA?$CJ?$AA?$AA@,4
.local	$StringLiteralTok$??_C@_1BC@LDHEDGJM@?$AAE?$AAd?$AAi?$AAt?$AAM?$AAe?$AAn?$AAu?$AA?$AA@,4
.local	$StringLiteralTok$??_C@_1O@IAGMPBEG@?$HN?h?$JG?F?$AA?$CI?$AA?$CG?$AAE?$AA?$CJ?$AA?$AA@,4
.local	$StringLiteralTok$??_C@_1BK@KBEHPEBH@?$AAu?$AAn?$AAd?$AAo?$AAM?$AAe?$AAn?$AAu?$AAI?$AAt?$AAe?$AAm?$AA?$AA@,4
.local	$StringLiteralTok$??_C@_1BC@ELHAMHFJ@QC0kb?$DL0Y?$AA?$CI?$AA?$CG?$AAU?$AA?$CJ?$AA?$AA@,4
.local	$StringLiteralTok$??_C@_1BK@PDJHBKKH@?$AAr?$AAe?$AAd?$AAo?$AAM?$AAe?$AAn?$AAu?$AAI?$AAt?$AAe?$AAm?$AA?$AA@,4
.local	$StringLiteralTok$??_C@_1BC@JFPLLFHM@0?$IE0?$IKv?t0W?$AA?$CI?$AA?$CG?$AAR?$AA?$CJ?$AA?$AA@,4
.local	$StringLiteralTok$??_C@_1CI@FHAFLHOI@?$AAt?$AAo?$AAo?$AAl?$AAS?$AAt?$AAr?$AAi?$AAp?$AAS?$AAe?$AAp?$AAa?$AAr?$AAa?$AAt?$AAo?$AAr?$AA3?$AA?$AA@,4
.local	$StringLiteralTok$??_C@_1BK@CEFNPIEI@?$AAc?$AAo?$AAp?$AAy?$AAM?$AAe?$AAn?$AAu?$AAI?$AAt?$AAe?$AAm?$AA?$AA@,4
.local	$StringLiteralTok$??_C@_1O@KFOCAMOO@?$AAC?$AAt?$AAr?$AAl?$AA?$CL?$AAC?$AA?$AA@,4
.local	$StringLiteralTok$??_C@_1BA@LPOLBHNP@0?$LD0?T0?$PM?$AA?$CI?$AA?$CG?$AAC?$AA?$CJ?$AA?$AA@,4
.local	$StringLiteralTok$??_C@_1CI@MKNCIPFB@?$AAt?$AAo?$AAo?$AAl?$AAS?$AAt?$AAr?$AAi?$AAp?$AAS?$AAe?$AAp?$AAa?$AAr?$AAa?$AAt?$AAo?$AAr?$AA4?$AA?$AA@,4
.local	$StringLiteralTok$??_C@_1CG@EFPPPJED@?$AAa?$AAl?$AAl?$AA_?$AAs?$AAe?$AAl?$AAe?$AAc?$AAt?$AAM?$AAe?$AAn?$AAu?$AAI?$AAt?$AAe?$AAm?$AA?$AA@,4
.local	$StringLiteralTok$??_C@_1BE@HMCAOMPG@0Y0y0f?$JAxb?$JO?$AA?$CI?$AA?$CG?$AAA?$AA?$CJ?$AA?$AA@,4
.local	$StringLiteralTok$??_C@_1BC@NKIICHGM@?$AAT?$AAo?$AAo?$AAl?$AAM?$AAe?$AAn?$AAu?$AA?$AA@,4
.local	$StringLiteralTok$??_C@_1CE@KMPLKAJB@?$AAm?$AAo?$AAg?$AAi?$AA_?$AAm?$AAa?$AAk?$AAe?$AAM?$AAe?$AAn?$AAu?$AAI?$AAt?$AAe?$AAm?$AA?$AA@,4
.local	$StringLiteralTok$??_C@_1BI@FBMONBID@j?$CBd?l0?F0?$LJ0?Hu?$BPb?$BA?$AA?$CI?$AA?$CG?$AAG?$AA?$CJ?$AA?$AA@,4
.local	$StringLiteralTok$??_C@_1O@CHCLEPIP@?$IK?9?$FL?$JK?$AA?$CI?$AA?$CG?$AAS?$AA?$CJ?$AA?$AA@,4
.local	$StringLiteralTok$??_C@_1BG@HJJMBCCC@?$AAo?$AAn?$AAl?$AAy?$AAA?$AAn?$AAa?$AAu?$AAm?$AAe?$AA?$AA@,4
.local	$StringLiteralTok$??_C@_1BE@BKMEGGBH@ztW?K0?$IBUO?$JIL0n0?$HPO?2b?$BA?$AA?$AA@,4
.local	$StringLiteralTok$??_C@_1BM@NBKFNJHC@?$AAm?$AAa?$AAk?$AAe?$AAK?$AAa?$AAi?$AAt?$AAo?$AAu?$AAg?$AAu?$AAn?$AA?$AA@,4
.local	$StringLiteralTok$??_C@_1BE@BGGEKLBA@?$IJ?c?$HLT?$HP?$KEUO?$JIL0?$JCO?2b?$BA0?$AA?$AA?$AA@,4
.local	$StringLiteralTok$??_C@_1BE@EOGLGJMJ@?$AAs?$AAa?$AAk?$AAu?$AAs?$AAe?$AAi?$AAR?$AAB?$AA?$AA@,4
.local	$StringLiteralTok$??_C@_1BA@NFGAONNE@UO?$JIL0?$JCO?2b?$BA0Y0?$IL?$AA?$AA@,4
.local	$StringLiteralTok$??_C@_1BC@DGLEMIBO@?$AAd?$AAe?$AAl?$AAe?$AAt?$AAe?$AAR?$AAB?$AA?$AA@,4
.local	$StringLiteralTok$??_C@_1BA@BKHEDIPN@UO?$JIL0?$JCRJ?$JGd0Y0?$IL?$AA?$AA@,4
.local	$StringLiteralTok$??_C@_1CA@BPLNHNNI@?$AAm?$AAa?$AAk?$AAe?$AAO?$AAr?$AAD?$AAe?$AAl?$AAe?$AAt?$AAe?$AAB?$AAo?$AAx?$AA?$AA@,4
.local	$StringLiteralTok$??_C@_1M@CMEMIKLD@O?2b?$BA?$AA?1RJ?$JGd?$AA?$AA@,4
.local	$StringLiteralTok$??_C@_1BG@HJLKFCLL@?$AAk?$AAi?$AAn?$AAd?$AAS?$AAe?$AAt?$AAB?$AAo?$AAx?$AA?$AA@,4
.local	$StringLiteralTok$??_C@_1BA@BLPEODJG@UO?$JIL0nz?4?$JI?$FOc?$AH?$FL?$JK?$AA?$AA@,4
.local	$StringLiteralTok$??_C@_1CC@ODHLIODF@?$AAs?$AAa?$AAv?$AAe?$AAB?$AAu?$AAt?$AAt?$AAo?$AAn?$AA?4?$AAI?$AAm?$AAa?$AAg?$AAe?$AA?$AA@,4
.local	$StringLiteralTok$??_C@_1BG@KCDKOJJC@?$AAs?$AAa?$AAv?$AAe?$AAB?$AAu?$AAt?$AAt?$AAo?$AAn?$AA?$AA@,4
.local	$StringLiteralTok$??_C@_15FEGOHICJ@O?$NN?$FLX?$AA?$AA@,4
.local	$StringLiteralTok$??_C@_1BE@PGCLIGEA@?$AAa?$AAz?$AAu?$AAk?$AAi?$AAA?$AAr?$AAe?$AAa?$AA?$AA@,4
.local	$StringLiteralTok$??_C@_1BI@NDFDMDPA@?$AAk?$AAe?$AAi?$AAs?$AAh?$AAi?$AAk?$AAi?$AAB?$AAo?$AAx?$AA?$AA@,4
.local	$StringLiteralTok$??_C@_1O@BCAJCIDM@Q?z?$JIL_b_?$APc?$AH?$FL?$JK?$AA?$AA@,4
.local	$StringLiteralTok$??_C@_1BG@FPIDHEGE@?$AAr?$AAa?$AAn?$AAd?$AAo?$AAm?$AAQ?$AAN?$AAu?$AAm?$AA?$AA@,4
.local	$StringLiteralTok$??_C@_13HHLLIEND@UO?$AA?$AA@,4
.local	$StringLiteralTok$??_C@_19HOLEHPP@Q?z?$JILep?$PP?$BK?$AA?$AA@,4
.local	$StringLiteralTok$??_C@_1BO@JLCNKBIO@?$AAr?$AAa?$AAn?$AAd?$AAo?$AAm?$AAC?$AAh?$AAe?$AAc?$AAk?$AAB?$AAo?$AAx?$AA?$AA@,4
.local	$StringLiteralTok$??_C@_1BG@NMBEJOCI@?$IIL0?$JCq?$CBO?2p?$LK0kN?$CG0sf?$PP0H?$AA?$AA@,4
.local	$StringLiteralTok$??_C@_1BK@IABPHKGO@?$AAs?$AAt?$AAa?$AAt?$AAu?$AAs?$AAS?$AAt?$AAr?$AAi?$AAp?$AA1?$AA?$AA@,4
.local	$StringLiteralTok$??_C@_1CA@BDFMCABC@?$AAw?$AAh?$AAa?$AAt?$AAT?$AAo?$AAD?$AAo?$AAF?$AAo?$AAr?$AAU?$AAs?$AAe?$AAr?$AA?$AA@,4
.local	$StringLiteralTok$??_C@_1BO@KEONNLBB@?$AAm?$AAo?$AAj?$AAi?$AAC?$AAo?$AAd?$AAe?$AA?4?$AAI?$AAm?$AAa?$AAg?$AAe?$AA?$AA@,4
.local	$StringLiteralTok$??_C@_1BC@DDOFJKFG@?$AAm?$AAo?$AAj?$AAi?$AAC?$AAo?$AAd?$AAe?$AA?$AA@,4
.local	$StringLiteralTok$??_C@_1CM@BBLJGJHN@?$AAu?$AAT?$AAF?$AA8?$AAT?$AAo?$AAo?$AAl?$AAS?$AAt?$AAr?$AAi?$AAp?$AAM?$AAe?$AAn?$AAu?$AAI?$AAt?$AAe?$AAm?$AA?$AA@,4
.local	$StringLiteralTok$??_C@_1M@PBFCDPHC@?$AAU?$AAT?$AAF?$AA?9?$AA8?$AA?$AA@,4
.local	$StringLiteralTok$??_C@_1DE@OKDBMFO@?$AAs?$AAh?$AAi?$AAf?$AAt?$AAj?$AAi?$AAs?$AAT?$AAo?$AAo?$AAl?$AAS?$AAt?$AAr?$AAi?$AAp?$AAM?$AAe?$AAn?$AAu?$AAI?$AAt?$AAe?$AAm?$AA?$AA@,4
.local	$StringLiteralTok$??_C@_1M@GJBAGBNA@?$AAF?$AAo?$AAr?$AAm?$AA1?$AA?$AA@,4
.local	$StringLiteralTok$??_C@_1BG@NCENGOK@?$AAM?$AAo?$AAg?$AAi?$AAE?$AAd?$AAi?$AAt?$AAo?$AAr?$AA?$AA@,4
.local	$T1,0
; Function compile flags: /Ogsp
; File f:\meijin4\c++\mogitter\mogitter\form1.h
	.text
	.comdat	any, ?InitializeComponent@Form1@Mogitter@@$$FA$AAMXXZ
.global	?InitializeComponent@Form1@Mogitter@@$$FA$AAMXXZ ; Mogitter::Form1::InitializeComponent
?InitializeComponent@Form1@Mogitter@@$$FA$AAMXXZ:	; Mogitter::Form1::InitializeComponent
;	.proc.def	D:V()

; Function Header:
; max stack depth = 6
; function size = 7571 bytes
; local varsig tk = 0x1100004A 
; Exception Information:
; 0 handlers, each consisting of filtered handlers

;	.formal.mptr 0,"this$" SIG: Optional C Binding Modifier(token:0x38BA05).class (token:0x38BA08)
;	.local.mptr 2,"resources$" SIG: class (token:0x3D1E79D)
;	.local.mptr 7,"fontInfo1$" SIG: class (token:0x3D1E795)
;	.local.mb8   94,"$S122$" SIG: valueType (token:0x3D1E7B5)
;	.local.mb8   93,"$S123$" SIG: valueType (token:0x3D1E7AD)
;	.local.mb8   92,"$S124$" SIG: valueType (token:0x3D1E7B5)
;	.local.mb8   91,"$S125$" SIG: valueType (token:0x3D1E7AD)
;	.local.mb8   90,"$S126$" SIG: valueType (token:0x3D1E7B5)
;	.local.mb8   89,"$S127$" SIG: valueType (token:0x3D1E7AD)
;	.local.mb8   88,"$S128$" SIG: valueType (token:0x3D1E7B5)
;	.local.mb8   87,"$S129$" SIG: valueType (token:0x3D1E7AD)
;	.local.mptr 6,"$S130$" SIG: szarray (token:0x3D1E7A5)
;	.local.mb8   86,"$S131$" SIG: valueType (token:0x3D1E7B5)
;	.local.mb8   85,"$S132$" SIG: valueType (token:0x3D1E7AD)
;	.local.mptr 0,"$S133$" SIG: szarray (token:0x3D1E7A5)
;	.local.mb8   84,"$S134$" SIG: valueType (token:0x3D1E7AD)
;	.local.mb20  83,"$T2" SIG: valueType (token:0x3D28D25)
;	.local.mb8   82,"$S135$" SIG: valueType (token:0x3D1E7AD)
;	.local.mb20  81,"$T3" SIG: valueType (token:0x3D28D25)
;	.local.mb8   80,"$S136$" SIG: valueType (token:0x3D1E7AD)
;	.local.mb8   79,"$S137$" SIG: valueType (token:0x3D1E7AD)
;	.local.mb20  78,"$T4" SIG: valueType (token:0x3D28D25)
;	.local.mb8   77,"$S138$" SIG: valueType (token:0x3D1E7AD)
;	.local.mb8   76,"$S139$" SIG: valueType (token:0x3D1E7AD)
;	.local.mb8   75,"$S140$" SIG: valueType (token:0x3D1E7AD)
;	.local.mb8   74,"$S141$" SIG: valueType (token:0x3D1E7AD)
;	.local.mb8   73,"$S142$" SIG: valueType (token:0x3D1E7AD)
;	.local.mptr 1,"$S143$" SIG: szarray (token:0x3D1E7A5)
;	.local.mb8   72,"$S144$" SIG: valueType (token:0x3D1E7AD)
;	.local.mb8   71,"$S145$" SIG: valueType (token:0x3D1E7AD)
;	.local.mb8   70,"$S146$" SIG: valueType (token:0x3D1E7AD)
;	.local.mb8   69,"$S147$" SIG: valueType (token:0x3D1E7AD)
;	.local.mb8   68,"$S148$" SIG: valueType (token:0x3D1E7AD)
;	.local.mb8   67,"$S149$" SIG: valueType (token:0x3D1E7AD)
;	.local.mb8   66,"$S150$" SIG: valueType (token:0x3D1E7AD)
;	.local.mptr 10,"$S151$" SIG: szarray (token:0x3D1E7A5)
;	.local.mb8   65,"$S152$" SIG: valueType (token:0x3D1E7AD)
;	.local.mb8   64,"$S153$" SIG: valueType (token:0x3D1E7AD)
;	.local.mb8   63,"$S154$" SIG: valueType (token:0x3D1E7AD)
;	.local.mptr 11,"$S155$" SIG: szarray (token:0x3D1E7A5)
;	.local.mb8   62,"$S156$" SIG: valueType (token:0x3D1E7AD)
;	.local.mb8   61,"$S157$" SIG: valueType (token:0x3D1E7AD)
;	.local.mb8   60,"$S158$" SIG: valueType (token:0x3D1E7B5)
;	.local.mb8   59,"$S159$" SIG: valueType (token:0x3D1E7AD)
;	.local.mb8   58,"$S160$" SIG: valueType (token:0x3D1E7B5)
;	.local.mb8   57,"$S161$" SIG: valueType (token:0x3D1E7AD)
;	.local.mb8   56,"$S162$" SIG: valueType (token:0x3D1E7B5)
;	.local.mb8   55,"$S163$" SIG: valueType (token:0x3D1E7AD)
;	.local.mb8   54,"$S164$" SIG: valueType (token:0x3D1E7B5)
;	.local.mb8   53,"$S165$" SIG: valueType (token:0x3D1E7AD)
;	.local.mb8   52,"$S166$" SIG: valueType (token:0x3D1E7B5)
;	.local.mb8   51,"$S167$" SIG: valueType (token:0x3D1E7AD)
;	.local.mb8   50,"$S168$" SIG: valueType (token:0x3D1E7B5)
;	.local.mb8   49,"$S169$" SIG: valueType (token:0x3D1E7AD)
;	.local.mb8   48,"$S170$" SIG: valueType (token:0x3D1E7B5)
;	.local.mb8   47,"$S171$" SIG: valueType (token:0x3D1E7AD)
;	.local.mb20  46,"$T5" SIG: valueType (token:0x3D28D25)
;	.local.mb20  45,"$T6" SIG: valueType (token:0x3D28D25)
;	.local.mb8   44,"$S172$" SIG: valueType (token:0x3D1E7B5)
;	.local.mb8   43,"$S173$" SIG: valueType (token:0x3D1E7B5)
;	.local.mb8   42,"$S174$" SIG: valueType (token:0x3D1E7AD)
;	.local.mb8   41,"$S175$" SIG: valueType (token:0x3D1E7B5)
;	.local.mb8   40,"$S176$" SIG: valueType (token:0x3D1E7AD)
;	.local.mb20  39,"$T7" SIG: valueType (token:0x3D28D25)
;	.local.mb20  38,"$T8" SIG: valueType (token:0x3D28D25)
;	.local.mb8   37,"$S177$" SIG: valueType (token:0x3D1E7B5)
;	.local.mptr 5,"$S178$" SIG: szarray (token:0x3D1EB2D)
;	.local.mb16  36,"$T9" SIG: valueType (token:0x3D226AD)
;	.local.mptr 4,"$S179$" SIG: szarray (token:0x3D1EB2D)
;	.local.mb16  35,"$T10" SIG: valueType (token:0x3D226AD)
;	.local.mb8   34,"$S180$" SIG: valueType (token:0x3D1E7AD)
;	.local.mptr 3,"$S181$" SIG: szarray (token:0x3D1EB2D)
;	.local.mb16  33,"$T11" SIG: valueType (token:0x3D226AD)
;	.local.mb8   32,"$S182$" SIG: valueType (token:0x3D1E7B5)
;	.local.mb8   31,"$S183$" SIG: valueType (token:0x3D1E7AD)
;	.local.mb8   30,"$S184$" SIG: valueType (token:0x3D1E7B5)
;	.local.mb8   29,"$S185$" SIG: valueType (token:0x3D1E7AD)
;	.local.mb8   28,"$S186$" SIG: valueType (token:0x3D1E7B5)
;	.local.mb8   27,"$S187$" SIG: valueType (token:0x3D1E7AD)
;	.local.mb20  26,"$T12" SIG: valueType (token:0x3D28D25)
;	.local.mptr 9,"$S188$" SIG: szarray (token:0x3D1E7A5)
;	.local.mb8   25,"$S189$" SIG: valueType (token:0x3D1E7B5)
;	.local.mb8   24,"$S190$" SIG: valueType (token:0x3D1E7AD)
;	.local.mb20  23,"$T13" SIG: valueType (token:0x3D28D25)
;	.local.mb20  22,"$T14" SIG: valueType (token:0x3D28D25)
;	.local.mb8   21,"$S191$" SIG: valueType (token:0x3D1E7AD)
;	.local.mb20  20,"$T15" SIG: valueType (token:0x3D28D25)
;	.local.mptr 8,"$S192$" SIG: szarray (token:0x3D1E7A5)
;	.local.mb20  19,"$T16" SIG: valueType (token:0x3D28D25)
;	.local.mb20  18,"$T17" SIG: valueType (token:0x3D28D25)
;	.local.mb8   17,"$S193$" SIG: valueType (token:0x3D1E7AD)
;	.local.mb8   16,"$S194$" SIG: valueType (token:0x3D1E7AD)
;	.local.mb20  15,"$T18" SIG: valueType (token:0x3D28D25)
;	.local.mb8   14,"$S195$" SIG: valueType (token:0x3D1E7AD)
;	.local.mb8   13,"$S196$" SIG: valueType (token:0x3D1EBAD)
;	.local.mb8   12,"$S197$" SIG: valueType (token:0x3D1E7AD)

;	.proc.beg

; 176  : 			System::ComponentModel::ComponentResourceManager^  resources = (gcnew System::ComponentModel::ComponentResourceManager(Form1::typeid));

  0000b	d0 00 00 00 00	 ldtoken $TypeTok$11802004$
  00010	28 00 00 00 00	 call ?GetTypeFromHandle@Type@System@@$$FSMP$AAV12@VRuntimeTypeHandle@2@@Z
  00015	73 00 00 00 00	 newobj ??0ComponentResourceManager@ComponentModel@System@@$$FQ$AAM@P$AAVType@2@@Z
  0001a	0c		 stloc.2 	; resources$

; 177  : 			Sgry::Azuki::FontInfo^  fontInfo1 = (gcnew Sgry::Azuki::FontInfo());

  0001b	73 00 00 00 00	 newobj ??0FontInfo@Azuki@Sgry@@$$FQ$AAM@XZ
  00020	13 07		 stloc.s 7	; fontInfo1$

; 178  : 			this->openFile = (gcnew System::Windows::Forms::Button());

  00022	02		 ldarg.0 	; this$
  00023	73 00 00 00 00	 newobj ??0Button@Forms@Windows@System@@$$FQ$AAM@XZ
  00028	7d 00 00 00 00	 stfld ?openFile@Form1@Mogitter@@3P$AAVButton@Forms@Windows@System@@$AA

; 179  : 			this->mogiMake = (gcnew System::Windows::Forms::Button());

  0002d	02		 ldarg.0 	; this$
  0002e	73 00 00 00 00	 newobj ??0Button@Forms@Windows@System@@$$FQ$AAM@XZ
  00033	7d 00 00 00 00	 stfld ?mogiMake@Form1@Mogitter@@3P$AAVButton@Forms@Windows@System@@$AA

; 180  : 			this->setting = (gcnew System::Windows::Forms::Button());

  00038	02		 ldarg.0 	; this$
  00039	73 00 00 00 00	 newobj ??0Button@Forms@Windows@System@@$$FQ$AAM@XZ
  0003e	7d 00 00 00 00	 stfld ?setting@Form1@Mogitter@@3P$AAVButton@Forms@Windows@System@@$AA

; 181  : 			this->helping = (gcnew System::Windows::Forms::Button());

  00043	02		 ldarg.0 	; this$
  00044	73 00 00 00 00	 newobj ??0Button@Forms@Windows@System@@$$FQ$AAM@XZ
  00049	7d 00 00 00 00	 stfld ?helping@Form1@Mogitter@@3P$AAVButton@Forms@Windows@System@@$AA

; 182  : 			this->menuStrip1 = (gcnew System::Windows::Forms::MenuStrip());

  0004e	02		 ldarg.0 	; this$
  0004f	73 00 00 00 00	 newobj ??0MenuStrip@Forms@Windows@System@@$$FQ$AAM@XZ
  00054	7d 00 00 00 00	 stfld ?menuStrip1@Form1@Mogitter@@3P$AAVMenuStrip@Forms@Windows@System@@$AA

; 183  : 			this->FileMenu = (gcnew System::Windows::Forms::ToolStripMenuItem());

  00059	02		 ldarg.0 	; this$
  0005a	73 00 00 00 00	 newobj ??0ToolStripMenuItem@Forms@Windows@System@@$$FQ$AAM@XZ
  0005f	7d 00 00 00 00	 stfld ?FileMenu@Form1@Mogitter@@3P$AAVToolStripMenuItem@Forms@Windows@System@@$AA

; 184  : 			this->newMakeItem = (gcnew System::Windows::Forms::ToolStripMenuItem());

  00064	02		 ldarg.0 	; this$
  00065	73 00 00 00 00	 newobj ??0ToolStripMenuItem@Forms@Windows@System@@$$FQ$AAM@XZ
  0006a	7d 00 00 00 00	 stfld ?newMakeItem@Form1@Mogitter@@3P$AAVToolStripMenuItem@Forms@Windows@System@@$AA

; 185  : 			this->openMenuItem = (gcnew System::Windows::Forms::ToolStripMenuItem());

  0006f	02		 ldarg.0 	; this$
  00070	73 00 00 00 00	 newobj ??0ToolStripMenuItem@Forms@Windows@System@@$$FQ$AAM@XZ
  00075	7d 00 00 00 00	 stfld ?openMenuItem@Form1@Mogitter@@3P$AAVToolStripMenuItem@Forms@Windows@System@@$AA

; 186  : 			this->toolStripSeparator = (gcnew System::Windows::Forms::ToolStripSeparator());

  0007a	02		 ldarg.0 	; this$
  0007b	73 00 00 00 00	 newobj ??0ToolStripSeparator@Forms@Windows@System@@$$FQ$AAM@XZ
  00080	7d 00 00 00 00	 stfld ?toolStripSeparator@Form1@Mogitter@@3P$AAVToolStripSeparator@Forms@Windows@System@@$AA

; 187  : 			this->over_writeMenuItem = (gcnew System::Windows::Forms::ToolStripMenuItem());

  00085	02		 ldarg.0 	; this$
  00086	73 00 00 00 00	 newobj ??0ToolStripMenuItem@Forms@Windows@System@@$$FQ$AAM@XZ
  0008b	7d 00 00 00 00	 stfld ?over_writeMenuItem@Form1@Mogitter@@3P$AAVToolStripMenuItem@Forms@Windows@System@@$AA

; 188  : 			this->named_saveMenuItem = (gcnew System::Windows::Forms::ToolStripMenuItem());

  00090	02		 ldarg.0 	; this$
  00091	73 00 00 00 00	 newobj ??0ToolStripMenuItem@Forms@Windows@System@@$$FQ$AAM@XZ
  00096	7d 00 00 00 00	 stfld ?named_saveMenuItem@Form1@Mogitter@@3P$AAVToolStripMenuItem@Forms@Windows@System@@$AA

; 189  : 			this->plusMenuItem = (gcnew System::Windows::Forms::ToolStripMenuItem());

  0009b	02		 ldarg.0 	; this$
  0009c	73 00 00 00 00	 newobj ??0ToolStripMenuItem@Forms@Windows@System@@$$FQ$AAM@XZ
  000a1	7d 00 00 00 00	 stfld ?plusMenuItem@Form1@Mogitter@@3P$AAVToolStripMenuItem@Forms@Windows@System@@$AA

; 190  : 			this->toolStripSeparator1 = (gcnew System::Windows::Forms::ToolStripSeparator());

  000a6	02		 ldarg.0 	; this$
  000a7	73 00 00 00 00	 newobj ??0ToolStripSeparator@Forms@Windows@System@@$$FQ$AAM@XZ
  000ac	7d 00 00 00 00	 stfld ?toolStripSeparator1@Form1@Mogitter@@3P$AAVToolStripSeparator@Forms@Windows@System@@$AA

; 191  : 			this->endMenuItem = (gcnew System::Windows::Forms::ToolStripMenuItem());

  000b1	02		 ldarg.0 	; this$
  000b2	73 00 00 00 00	 newobj ??0ToolStripMenuItem@Forms@Windows@System@@$$FQ$AAM@XZ
  000b7	7d 00 00 00 00	 stfld ?endMenuItem@Form1@Mogitter@@3P$AAVToolStripMenuItem@Forms@Windows@System@@$AA

; 192  : 			this->EditMenu = (gcnew System::Windows::Forms::ToolStripMenuItem());

  000bc	02		 ldarg.0 	; this$
  000bd	73 00 00 00 00	 newobj ??0ToolStripMenuItem@Forms@Windows@System@@$$FQ$AAM@XZ
  000c2	7d 00 00 00 00	 stfld ?EditMenu@Form1@Mogitter@@3P$AAVToolStripMenuItem@Forms@Windows@System@@$AA

; 193  : 			this->undoMenuItem = (gcnew System::Windows::Forms::ToolStripMenuItem());

  000c7	02		 ldarg.0 	; this$
  000c8	73 00 00 00 00	 newobj ??0ToolStripMenuItem@Forms@Windows@System@@$$FQ$AAM@XZ
  000cd	7d 00 00 00 00	 stfld ?undoMenuItem@Form1@Mogitter@@3P$AAVToolStripMenuItem@Forms@Windows@System@@$AA

; 194  : 			this->redoMenuItem = (gcnew System::Windows::Forms::ToolStripMenuItem());

  000d2	02		 ldarg.0 	; this$
  000d3	73 00 00 00 00	 newobj ??0ToolStripMenuItem@Forms@Windows@System@@$$FQ$AAM@XZ
  000d8	7d 00 00 00 00	 stfld ?redoMenuItem@Form1@Mogitter@@3P$AAVToolStripMenuItem@Forms@Windows@System@@$AA

; 195  : 			this->toolStripSeparator3 = (gcnew System::Windows::Forms::ToolStripSeparator());

  000dd	02		 ldarg.0 	; this$
  000de	73 00 00 00 00	 newobj ??0ToolStripSeparator@Forms@Windows@System@@$$FQ$AAM@XZ
  000e3	7d 00 00 00 00	 stfld ?toolStripSeparator3@Form1@Mogitter@@3P$AAVToolStripSeparator@Forms@Windows@System@@$AA

; 196  : 			this->copyMenuItem = (gcnew System::Windows::Forms::ToolStripMenuItem());

  000e8	02		 ldarg.0 	; this$
  000e9	73 00 00 00 00	 newobj ??0ToolStripMenuItem@Forms@Windows@System@@$$FQ$AAM@XZ
  000ee	7d 00 00 00 00	 stfld ?copyMenuItem@Form1@Mogitter@@3P$AAVToolStripMenuItem@Forms@Windows@System@@$AA

; 197  : 			this->toolStripSeparator4 = (gcnew System::Windows::Forms::ToolStripSeparator());

  000f3	02		 ldarg.0 	; this$
  000f4	73 00 00 00 00	 newobj ??0ToolStripSeparator@Forms@Windows@System@@$$FQ$AAM@XZ
  000f9	7d 00 00 00 00	 stfld ?toolStripSeparator4@Form1@Mogitter@@3P$AAVToolStripSeparator@Forms@Windows@System@@$AA

; 198  : 			this->all_selectMenuItem = (gcnew System::Windows::Forms::ToolStripMenuItem());

  000fe	02		 ldarg.0 	; this$
  000ff	73 00 00 00 00	 newobj ??0ToolStripMenuItem@Forms@Windows@System@@$$FQ$AAM@XZ
  00104	7d 00 00 00 00	 stfld ?all_selectMenuItem@Form1@Mogitter@@3P$AAVToolStripMenuItem@Forms@Windows@System@@$AA

; 199  : 			this->ToolMenu = (gcnew System::Windows::Forms::ToolStripMenuItem());

  00109	02		 ldarg.0 	; this$
  0010a	73 00 00 00 00	 newobj ??0ToolStripMenuItem@Forms@Windows@System@@$$FQ$AAM@XZ
  0010f	7d 00 00 00 00	 stfld ?ToolMenu@Form1@Mogitter@@3P$AAVToolStripMenuItem@Forms@Windows@System@@$AA

; 200  : 			this->mogi_makeMenuItem = (gcnew System::Windows::Forms::ToolStripMenuItem());

  00114	02		 ldarg.0 	; this$
  00115	73 00 00 00 00	 newobj ??0ToolStripMenuItem@Forms@Windows@System@@$$FQ$AAM@XZ
  0011a	7d 00 00 00 00	 stfld ?mogi_makeMenuItem@Form1@Mogitter@@3P$AAVToolStripMenuItem@Forms@Windows@System@@$AA

; 201  : 			this->optionMenuItem = (gcnew System::Windows::Forms::ToolStripMenuItem());

  0011f	02		 ldarg.0 	; this$
  00120	73 00 00 00 00	 newobj ??0ToolStripMenuItem@Forms@Windows@System@@$$FQ$AAM@XZ
  00125	7d 00 00 00 00	 stfld ?optionMenuItem@Form1@Mogitter@@3P$AAVToolStripMenuItem@Forms@Windows@System@@$AA

; 202  : 			this->HelpMenu = (gcnew System::Windows::Forms::ToolStripMenuItem());

  0012a	02		 ldarg.0 	; this$
  0012b	73 00 00 00 00	 newobj ??0ToolStripMenuItem@Forms@Windows@System@@$$FQ$AAM@XZ
  00130	7d 00 00 00 00	 stfld ?HelpMenu@Form1@Mogitter@@3P$AAVToolStripMenuItem@Forms@Windows@System@@$AA

; 203  : 			this->helpMenuItem = (gcnew System::Windows::Forms::ToolStripMenuItem());

  00135	02		 ldarg.0 	; this$
  00136	73 00 00 00 00	 newobj ??0ToolStripMenuItem@Forms@Windows@System@@$$FQ$AAM@XZ
  0013b	7d 00 00 00 00	 stfld ?helpMenuItem@Form1@Mogitter@@3P$AAVToolStripMenuItem@Forms@Windows@System@@$AA

; 204  : 			this->onlyAnaume = (gcnew System::Windows::Forms::CheckBox());

  00140	02		 ldarg.0 	; this$
  00141	73 00 00 00 00	 newobj ??0CheckBox@Forms@Windows@System@@$$FQ$AAM@XZ
  00146	7d 00 00 00 00	 stfld ?onlyAnaume@Form1@Mogitter@@3P$AAVCheckBox@Forms@Windows@System@@$AA

; 205  : 			this->makeKaitougun = (gcnew System::Windows::Forms::CheckBox());

  0014b	02		 ldarg.0 	; this$
  0014c	73 00 00 00 00	 newobj ??0CheckBox@Forms@Windows@System@@$$FQ$AAM@XZ
  00151	7d 00 00 00 00	 stfld ?makeKaitougun@Form1@Mogitter@@3P$AAVCheckBox@Forms@Windows@System@@$AA

; 206  : 			this->sakuseiRB = (gcnew System::Windows::Forms::RadioButton());

  00156	02		 ldarg.0 	; this$
  00157	73 00 00 00 00	 newobj ??0RadioButton@Forms@Windows@System@@$$FQ$AAM@XZ
  0015c	7d 00 00 00 00	 stfld ?sakuseiRB@Form1@Mogitter@@3P$AAVRadioButton@Forms@Windows@System@@$AA

; 207  : 			this->deleteRB = (gcnew System::Windows::Forms::RadioButton());

  00161	02		 ldarg.0 	; this$
  00162	73 00 00 00 00	 newobj ??0RadioButton@Forms@Windows@System@@$$FQ$AAM@XZ
  00167	7d 00 00 00 00	 stfld ?deleteRB@Form1@Mogitter@@3P$AAVRadioButton@Forms@Windows@System@@$AA

; 208  : 			this->makeOrDeleteBox = (gcnew System::Windows::Forms::GroupBox());

  0016c	02		 ldarg.0 	; this$
  0016d	73 00 00 00 00	 newobj ??0GroupBox@Forms@Windows@System@@$$FQ$AAM@XZ
  00172	7d 00 00 00 00	 stfld ?makeOrDeleteBox@Form1@Mogitter@@3P$AAVGroupBox@Forms@Windows@System@@$AA

; 209  : 			this->kindSetBox = (gcnew System::Windows::Forms::GroupBox());

  00177	02		 ldarg.0 	; this$
  00178	73 00 00 00 00	 newobj ??0GroupBox@Forms@Windows@System@@$$FQ$AAM@XZ
  0017d	7d 00 00 00 00	 stfld ?kindSetBox@Form1@Mogitter@@3P$AAVGroupBox@Forms@Windows@System@@$AA

; 210  : 			this->saveButton = (gcnew System::Windows::Forms::Button());

  00182	02		 ldarg.0 	; this$
  00183	73 00 00 00 00	 newobj ??0Button@Forms@Windows@System@@$$FQ$AAM@XZ
  00188	7d 00 00 00 00	 stfld ?saveButton@Form1@Mogitter@@3P$AAVButton@Forms@Windows@System@@$AA

; 211  : 			this->azukiArea = (gcnew Sgry::Azuki::WinForms::AzukiControl());

  0018d	02		 ldarg.0 	; this$
  0018e	73 00 00 00 00	 newobj ??0AzukiControl@WinForms@Azuki@Sgry@@$$FQ$AAM@XZ
  00193	7d 00 00 00 00	 stfld ?azukiArea@Form1@Mogitter@@3P$AAVAzukiControl@WinForms@Azuki@Sgry@@$AA

; 212  : 			this->keishikiBox = (gcnew System::Windows::Forms::GroupBox());

  00198	02		 ldarg.0 	; this$
  00199	73 00 00 00 00	 newobj ??0GroupBox@Forms@Windows@System@@$$FQ$AAM@XZ
  0019e	7d 00 00 00 00	 stfld ?keishikiBox@Form1@Mogitter@@3P$AAVGroupBox@Forms@Windows@System@@$AA

; 213  : 			this->randomQNum = (gcnew System::Windows::Forms::NumericUpDown());

  001a3	02		 ldarg.0 	; this$
  001a4	73 00 00 00 00	 newobj ??0NumericUpDown@Forms@Windows@System@@$$FQ$AAM@XZ
  001a9	7d 00 00 00 00	 stfld ?randomQNum@Form1@Mogitter@@3P$AAVNumericUpDown@Forms@Windows@System@@$AA

; 214  : 			this->label2 = (gcnew System::Windows::Forms::Label());

  001ae	02		 ldarg.0 	; this$
  001af	73 00 00 00 00	 newobj ??0Label@Forms@Windows@System@@$$FQ$AAM@XZ
  001b4	7d 00 00 00 00	 stfld ?label2@Form1@Mogitter@@3P$AAVLabel@Forms@Windows@System@@$AA

; 215  : 			this->label1 = (gcnew System::Windows::Forms::Label());

  001b9	02		 ldarg.0 	; this$
  001ba	73 00 00 00 00	 newobj ??0Label@Forms@Windows@System@@$$FQ$AAM@XZ
  001bf	7d 00 00 00 00	 stfld ?label1@Form1@Mogitter@@3P$AAVLabel@Forms@Windows@System@@$AA

; 216  : 			this->randomCheckBox = (gcnew System::Windows::Forms::CheckBox());

  001c4	02		 ldarg.0 	; this$
  001c5	73 00 00 00 00	 newobj ??0CheckBox@Forms@Windows@System@@$$FQ$AAM@XZ
  001ca	7d 00 00 00 00	 stfld ?randomCheckBox@Form1@Mogitter@@3P$AAVCheckBox@Forms@Windows@System@@$AA

; 217  : 			this->statusStrip1 = (gcnew System::Windows::Forms::StatusStrip());

  001cf	02		 ldarg.0 	; this$
  001d0	73 00 00 00 00	 newobj ??0StatusStrip@Forms@Windows@System@@$$FQ$AAM@XZ
  001d5	7d 00 00 00 00	 stfld ?statusStrip1@Form1@Mogitter@@3P$AAVStatusStrip@Forms@Windows@System@@$AA

; 218  : 			this->whatToDoForUser = (gcnew System::Windows::Forms::ToolStripStatusLabel());

  001da	02		 ldarg.0 	; this$
  001db	73 00 00 00 00	 newobj ??0ToolStripStatusLabel@Forms@Windows@System@@$$FQ$AAM@XZ
  001e0	7d 00 00 00 00	 stfld ?whatToDoForUser@Form1@Mogitter@@3P$AAVToolStripStatusLabel@Forms@Windows@System@@$AA

; 219  : 			this->mojiCode = (gcnew System::Windows::Forms::ToolStripDropDownButton());

  001e5	02		 ldarg.0 	; this$
  001e6	73 00 00 00 00	 newobj ??0ToolStripDropDownButton@Forms@Windows@System@@$$FQ$AAM@XZ
  001eb	7d 00 00 00 00	 stfld ?mojiCode@Form1@Mogitter@@3P$AAVToolStripDropDownButton@Forms@Windows@System@@$AA

; 220  : 			this->uTF8ToolStripMenuItem = (gcnew System::Windows::Forms::ToolStripMenuItem());

  001f0	02		 ldarg.0 	; this$
  001f1	73 00 00 00 00	 newobj ??0ToolStripMenuItem@Forms@Windows@System@@$$FQ$AAM@XZ
  001f6	7d 00 00 00 00	 stfld ?uTF8ToolStripMenuItem@Form1@Mogitter@@3P$AAVToolStripMenuItem@Forms@Windows@System@@$AA

; 221  : 			this->shiftjisToolStripMenuItem = (gcnew System::Windows::Forms::ToolStripMenuItem());

  001fb	02		 ldarg.0 	; this$
  001fc	73 00 00 00 00	 newobj ??0ToolStripMenuItem@Forms@Windows@System@@$$FQ$AAM@XZ
  00201	7d 00 00 00 00	 stfld ?shiftjisToolStripMenuItem@Form1@Mogitter@@3P$AAVToolStripMenuItem@Forms@Windows@System@@$AA

; 222  : 			this->menuStrip1->SuspendLayout();

  00206	02		 ldarg.0 	; this$
  00207	7b 00 00 00 00	 ldfld ?menuStrip1@Form1@Mogitter@@3P$AAVMenuStrip@Forms@Windows@System@@$AA
  0020c	28 00 00 00 00	 call ?SuspendLayout@Control@Forms@Windows@System@@$$FQ$AAMXXZ

; 223  : 			this->makeOrDeleteBox->SuspendLayout();

  00211	02		 ldarg.0 	; this$
  00212	7b 00 00 00 00	 ldfld ?makeOrDeleteBox@Form1@Mogitter@@3P$AAVGroupBox@Forms@Windows@System@@$AA
  00217	28 00 00 00 00	 call ?SuspendLayout@Control@Forms@Windows@System@@$$FQ$AAMXXZ

; 224  : 			this->kindSetBox->SuspendLayout();

  0021c	02		 ldarg.0 	; this$
  0021d	7b 00 00 00 00	 ldfld ?kindSetBox@Form1@Mogitter@@3P$AAVGroupBox@Forms@Windows@System@@$AA
  00222	28 00 00 00 00	 call ?SuspendLayout@Control@Forms@Windows@System@@$$FQ$AAMXXZ

; 225  : 			this->keishikiBox->SuspendLayout();

  00227	02		 ldarg.0 	; this$
  00228	7b 00 00 00 00	 ldfld ?keishikiBox@Form1@Mogitter@@3P$AAVGroupBox@Forms@Windows@System@@$AA
  0022d	28 00 00 00 00	 call ?SuspendLayout@Control@Forms@Windows@System@@$$FQ$AAMXXZ

; 226  : 			(cli::safe_cast<System::ComponentModel::ISupportInitialize^  >(this->randomQNum))->BeginInit();

  00232	02		 ldarg.0 	; this$
  00233	7b 00 00 00 00	 ldfld ?randomQNum@Form1@Mogitter@@3P$AAVNumericUpDown@Forms@Windows@System@@$AA
  00238	6f 00 00 00 00	 callvirt ?BeginInit@ISupportInitialize@ComponentModel@System@@$$FU$AAMXXZ

; 227  : 			this->statusStrip1->SuspendLayout();

  0023d	02		 ldarg.0 	; this$
  0023e	7b 00 00 00 00	 ldfld ?statusStrip1@Form1@Mogitter@@3P$AAVStatusStrip@Forms@Windows@System@@$AA
  00243	28 00 00 00 00	 call ?SuspendLayout@Control@Forms@Windows@System@@$$FQ$AAMXXZ

; 228  : 			this->SuspendLayout();

  00248	02		 ldarg.0 	; this$
  00249	28 00 00 00 00	 call ?SuspendLayout@Control@Forms@Windows@System@@$$FQ$AAMXXZ

; 229  : 			// 
; 230  : 			// openFile
; 231  : 			// 
; 232  : 			this->openFile->Font = (gcnew System::Drawing::Font(L"メイリオ", 14.25F, System::Drawing::FontStyle::Regular, System::Drawing::GraphicsUnit::Point, 
; 233  : 				static_cast<System::Byte>(128)));

  0024e	02		 ldarg.0 	; this$
  0024f	7b 00 00 00 00	 ldfld ?openFile@Form1@Mogitter@@3P$AAVButton@Forms@Windows@System@@$AA
  00254	72 00 00 00 00	 ldstr $StringLiteralTok$??_C@_19HMEDOBKD@0?a0?$KE0?j0?$KK?$AA?$AA@
  00259	22 00 00 64 41	 ldc.r4 14.250000
  0025e	16		 ldc.i.0 0	; i32 0x0
  0025f	19		 ldc.i.3 3	; i32 0x3
  00260	20 80 00 00 00	 ldc.i4 128	; u8 0x80
  00265	73 00 00 00 00	 newobj ??0Font@Drawing@System@@$$FQ$AAM@P$AAVString@2@MW4FontStyle@12@W4GraphicsUnit@12@E@Z
  0026a	6f 00 00 00 00	 callvirt ?set@Font@Control@Forms@Windows@System@@$$FU$AAMXP$AAV1Drawing@5@@Z

; 234  : 			this->openFile->Image = (cli::safe_cast<System::Drawing::Image^  >(resources->GetObject(L"openFile.Image")));

  0026f	02		 ldarg.0 	; this$
  00270	7b 00 00 00 00	 ldfld ?openFile@Form1@Mogitter@@3P$AAVButton@Forms@Windows@System@@$AA
  00275	08		 ldloc.2 	; resources$
  00276	72 00 00 00 00	 ldstr $StringLiteralTok$??_C@_1BO@KKNMHCJO@?$AAo?$AAp?$AAe?$AAn?$AAF?$AAi?$AAl?$AAe?$AA?4?$AAI?$AAm?$AAa?$AAg?$AAe?$AA?$AA@
  0027b	6f 00 00 00 00	 callvirt ?GetObject@ResourceManager@Resources@System@@$$FU$AAMP$AAVObject@3@P$AAVString@3@@Z
  00280	74 00 00 00 00	 castClass $TypeTok$112E73C0$
  00285	28 00 00 00 00	 call ?set@Image@ButtonBase@Forms@Windows@System@@$$FQ$AAMXP$AAV1Drawing@5@@Z

; 235  : 			this->openFile->ImageAlign = System::Drawing::ContentAlignment::MiddleRight;

  0028a	02		 ldarg.0 	; this$
  0028b	7b 00 00 00 00	 ldfld ?openFile@Form1@Mogitter@@3P$AAVButton@Forms@Windows@System@@$AA
  00290	1f 40		 ldc.i4.s 64	; i32 0x40
  00292	28 00 00 00 00	 call ?set@ImageAlign@ButtonBase@Forms@Windows@System@@$$FQ$AAMXW4ContentAlignment@Drawing@5@@Z

; 236  : 			this->openFile->Location = System::Drawing::Point(627, 32);

  00297	12 5e		 ldloca.s 94	; $S122$
  00299	20 73 02 00 00	 ldc.i4 627	; i32 0x273
  0029e	1f 20		 ldc.i4.s 32	; i32 0x20
  002a0	28 00 00 00 00	 call ??0Point@Drawing@System@@$$FQ$CAM@HH@Z
  002a5	02		 ldarg.0 	; this$
  002a6	7b 00 00 00 00	 ldfld ?openFile@Form1@Mogitter@@3P$AAVButton@Forms@Windows@System@@$AA
  002ab	11 5e		 ldloc.s 94	; $S122$
  002ad	28 00 00 00 00	 call ?set@Location@Control@Forms@Windows@System@@$$FQ$AAMXVPoint@Drawing@5@@Z

; 237  : 			this->openFile->Name = L"openFile";

  002b2	02		 ldarg.0 	; this$
  002b3	7b 00 00 00 00	 ldfld ?openFile@Form1@Mogitter@@3P$AAVButton@Forms@Windows@System@@$AA
  002b8	72 00 00 00 00	 ldstr $StringLiteralTok$??_C@_1BC@LAOFLFKG@?$AAo?$AAp?$AAe?$AAn?$AAF?$AAi?$AAl?$AAe?$AA?$AA@
  002bd	28 00 00 00 00	 call ?set@Name@Control@Forms@Windows@System@@$$FQ$AAMXP$AAVString@5@@Z

; 238  : 			this->openFile->Size = System::Drawing::Size(91, 45);

  002c2	12 5d		 ldloca.s 93	; $S123$
  002c4	1f 5b		 ldc.i4.s 91	; i32 0x5b
  002c6	1f 2d		 ldc.i4.s 45	; i32 0x2d
  002c8	28 00 00 00 00	 call ??0Size@Drawing@System@@$$FQ$CAM@HH@Z
  002cd	02		 ldarg.0 	; this$
  002ce	7b 00 00 00 00	 ldfld ?openFile@Form1@Mogitter@@3P$AAVButton@Forms@Windows@System@@$AA
  002d3	11 5d		 ldloc.s 93	; $S123$
  002d5	28 00 00 00 00	 call ?set@Size@Control@Forms@Windows@System@@$$FQ$AAMXV1Drawing@5@@Z

; 239  : 			this->openFile->TabIndex = 6;

  002da	02		 ldarg.0 	; this$
  002db	7b 00 00 00 00	 ldfld ?openFile@Form1@Mogitter@@3P$AAVButton@Forms@Windows@System@@$AA
  002e0	1c		 ldc.i.6 6	; i32 0x6
  002e1	28 00 00 00 00	 call ?set@TabIndex@Control@Forms@Windows@System@@$$FQ$AAMXH@Z

; 240  : 			this->openFile->Text = L"開く";

  002e6	02		 ldarg.0 	; this$
  002e7	7b 00 00 00 00	 ldfld ?openFile@Form1@Mogitter@@3P$AAVButton@Forms@Windows@System@@$AA
  002ec	72 00 00 00 00	 ldstr $StringLiteralTok$??_C@_15MELALPNM@?$JF?$IL0O?$AA?$AA@
  002f1	6f 00 00 00 00	 callvirt ?set@Text@ButtonBase@Forms@Windows@System@@$$FU$AAMXP$AAVString@5@@Z

; 241  : 			this->openFile->TextAlign = System::Drawing::ContentAlignment::MiddleLeft;

  002f6	02		 ldarg.0 	; this$
  002f7	7b 00 00 00 00	 ldfld ?openFile@Form1@Mogitter@@3P$AAVButton@Forms@Windows@System@@$AA
  002fc	1f 10		 ldc.i4.s 16	; i32 0x10
  002fe	6f 00 00 00 00	 callvirt ?set@TextAlign@ButtonBase@Forms@Windows@System@@$$FU$AAMXW4ContentAlignment@Drawing@5@@Z

; 242  : 			this->openFile->UseVisualStyleBackColor = true;

  00303	02		 ldarg.0 	; this$
  00304	7b 00 00 00 00	 ldfld ?openFile@Form1@Mogitter@@3P$AAVButton@Forms@Windows@System@@$AA
  00309	17		 ldc.i.1 1	; u8 0x1
  0030a	28 00 00 00 00	 call ?set@UseVisualStyleBackColor@ButtonBase@Forms@Windows@System@@$$FQ$AAMX_N@Z

; 243  : 			this->openFile->Click += gcnew System::EventHandler(this, &Form1::openFile_Click);

  0030f	02		 ldarg.0 	; this$
  00310	7b 00 00 00 00	 ldfld ?openFile@Form1@Mogitter@@3P$AAVButton@Forms@Windows@System@@$AA
  00315	02		 ldarg.0 	; this$
  00316	fe 06 00 00 00
	00		 ldftn ?openFile_Click@Form1@Mogitter@@$$FA$AAMXP$AAVObject@System@@P$AAVEventArgs@4@@Z
  0031c	73 00 00 00 00	 newobj ??0EventHandler@System@@$$FQ$AAM@P$AAVObject@1@VIntPtr@1@@Z
  00321	28 00 00 00 00	 call ?add@Click@Control@Forms@Windows@System@@$$FQ$AAMXP$AAVEventHandler@5@@Z

; 244  : 			// 
; 245  : 			// mogiMake
; 246  : 			// 
; 247  : 			this->mogiMake->Font = (gcnew System::Drawing::Font(L"メイリオ", 14.25F, System::Drawing::FontStyle::Regular, System::Drawing::GraphicsUnit::Point, 
; 248  : 				static_cast<System::Byte>(128)));

  00326	02		 ldarg.0 	; this$
  00327	7b 00 00 00 00	 ldfld ?mogiMake@Form1@Mogitter@@3P$AAVButton@Forms@Windows@System@@$AA
  0032c	72 00 00 00 00	 ldstr $StringLiteralTok$??_C@_19HMEDOBKD@0?a0?$KE0?j0?$KK?$AA?$AA@
  00331	22 00 00 64 41	 ldc.r4 14.250000
  00336	16		 ldc.i.0 0	; i32 0x0
  00337	19		 ldc.i.3 3	; i32 0x3
  00338	20 80 00 00 00	 ldc.i4 128	; u8 0x80
  0033d	73 00 00 00 00	 newobj ??0Font@Drawing@System@@$$FQ$AAM@P$AAVString@2@MW4FontStyle@12@W4GraphicsUnit@12@E@Z
  00342	6f 00 00 00 00	 callvirt ?set@Font@Control@Forms@Windows@System@@$$FU$AAMXP$AAV1Drawing@5@@Z

; 249  : 			this->mogiMake->Image = (cli::safe_cast<System::Drawing::Image^  >(resources->GetObject(L"mogiMake.Image")));

  00347	02		 ldarg.0 	; this$
  00348	7b 00 00 00 00	 ldfld ?mogiMake@Form1@Mogitter@@3P$AAVButton@Forms@Windows@System@@$AA
  0034d	08		 ldloc.2 	; resources$
  0034e	72 00 00 00 00	 ldstr $StringLiteralTok$??_C@_1BO@BIHIFFGL@?$AAm?$AAo?$AAg?$AAi?$AAM?$AAa?$AAk?$AAe?$AA?4?$AAI?$AAm?$AAa?$AAg?$AAe?$AA?$AA@
  00353	6f 00 00 00 00	 callvirt ?GetObject@ResourceManager@Resources@System@@$$FU$AAMP$AAVObject@3@P$AAVString@3@@Z
  00358	74 00 00 00 00	 castClass $TypeTok$112E73C0$
  0035d	28 00 00 00 00	 call ?set@Image@ButtonBase@Forms@Windows@System@@$$FQ$AAMXP$AAV1Drawing@5@@Z

; 250  : 			this->mogiMake->ImageAlign = System::Drawing::ContentAlignment::MiddleRight;

  00362	02		 ldarg.0 	; this$
  00363	7b 00 00 00 00	 ldfld ?mogiMake@Form1@Mogitter@@3P$AAVButton@Forms@Windows@System@@$AA
  00368	1f 40		 ldc.i4.s 64	; i32 0x40
  0036a	28 00 00 00 00	 call ?set@ImageAlign@ButtonBase@Forms@Windows@System@@$$FQ$AAMXW4ContentAlignment@Drawing@5@@Z

; 251  : 			this->mogiMake->Location = System::Drawing::Point(626, 403);

  0036f	12 5c		 ldloca.s 92	; $S124$
  00371	20 72 02 00 00	 ldc.i4 626	; i32 0x272
  00376	20 93 01 00 00	 ldc.i4 403	; i32 0x193
  0037b	28 00 00 00 00	 call ??0Point@Drawing@System@@$$FQ$CAM@HH@Z
  00380	02		 ldarg.0 	; this$
  00381	7b 00 00 00 00	 ldfld ?mogiMake@Form1@Mogitter@@3P$AAVButton@Forms@Windows@System@@$AA
  00386	11 5c		 ldloc.s 92	; $S124$
  00388	28 00 00 00 00	 call ?set@Location@Control@Forms@Windows@System@@$$FQ$AAMXVPoint@Drawing@5@@Z

; 252  : 			this->mogiMake->Name = L"mogiMake";

  0038d	02		 ldarg.0 	; this$
  0038e	7b 00 00 00 00	 ldfld ?mogiMake@Form1@Mogitter@@3P$AAVButton@Forms@Windows@System@@$AA
  00393	72 00 00 00 00	 ldstr $StringLiteralTok$??_C@_1BC@HOAKHKFJ@?$AAm?$AAo?$AAg?$AAi?$AAM?$AAa?$AAk?$AAe?$AA?$AA@
  00398	28 00 00 00 00	 call ?set@Name@Control@Forms@Windows@System@@$$FQ$AAMXP$AAVString@5@@Z

; 253  : 			this->mogiMake->Size = System::Drawing::Size(193, 45);

  0039d	12 5b		 ldloca.s 91	; $S125$
  0039f	20 c1 00 00 00	 ldc.i4 193	; i32 0xc1
  003a4	1f 2d		 ldc.i4.s 45	; i32 0x2d
  003a6	28 00 00 00 00	 call ??0Size@Drawing@System@@$$FQ$CAM@HH@Z
  003ab	02		 ldarg.0 	; this$
  003ac	7b 00 00 00 00	 ldfld ?mogiMake@Form1@Mogitter@@3P$AAVButton@Forms@Windows@System@@$AA
  003b1	11 5b		 ldloc.s 91	; $S125$
  003b3	28 00 00 00 00	 call ?set@Size@Control@Forms@Windows@System@@$$FQ$AAMXV1Drawing@5@@Z

; 254  : 			this->mogiMake->TabIndex = 7;

  003b8	02		 ldarg.0 	; this$
  003b9	7b 00 00 00 00	 ldfld ?mogiMake@Form1@Mogitter@@3P$AAVButton@Forms@Windows@System@@$AA
  003be	1d		 ldc.i.7 7	; i32 0x7
  003bf	28 00 00 00 00	 call ?set@TabIndex@Control@Forms@Windows@System@@$$FQ$AAMXH@Z

; 255  : 			this->mogiMake->Text = L"模擬テスト生成";

  003c4	02		 ldarg.0 	; this$
  003c5	7b 00 00 00 00	 ldfld ?mogiMake@Form1@Mogitter@@3P$AAVButton@Forms@Windows@System@@$AA
  003ca	72 00 00 00 00	 ldstr $StringLiteralTok$??_C@_1BA@HGMKBPKA@j?$CBd?l0?F0?$LJ0?Hu?$BPb?$BA?$AA?$AA@
  003cf	6f 00 00 00 00	 callvirt ?set@Text@ButtonBase@Forms@Windows@System@@$$FU$AAMXP$AAVString@5@@Z

; 256  : 			this->mogiMake->TextAlign = System::Drawing::ContentAlignment::MiddleLeft;

  003d4	02		 ldarg.0 	; this$
  003d5	7b 00 00 00 00	 ldfld ?mogiMake@Form1@Mogitter@@3P$AAVButton@Forms@Windows@System@@$AA
  003da	1f 10		 ldc.i4.s 16	; i32 0x10
  003dc	6f 00 00 00 00	 callvirt ?set@TextAlign@ButtonBase@Forms@Windows@System@@$$FU$AAMXW4ContentAlignment@Drawing@5@@Z

; 257  : 			this->mogiMake->TextImageRelation = System::Windows::Forms::TextImageRelation::TextBeforeImage;

  003e1	02		 ldarg.0 	; this$
  003e2	7b 00 00 00 00	 ldfld ?mogiMake@Form1@Mogitter@@3P$AAVButton@Forms@Windows@System@@$AA
  003e7	1e		 ldc.i.8 8	; i32 0x8
  003e8	28 00 00 00 00	 call ?set@TextImageRelation@ButtonBase@Forms@Windows@System@@$$FQ$AAMXW41345@@Z

; 258  : 			this->mogiMake->UseVisualStyleBackColor = true;

  003ed	02		 ldarg.0 	; this$
  003ee	7b 00 00 00 00	 ldfld ?mogiMake@Form1@Mogitter@@3P$AAVButton@Forms@Windows@System@@$AA
  003f3	17		 ldc.i.1 1	; u8 0x1
  003f4	28 00 00 00 00	 call ?set@UseVisualStyleBackColor@ButtonBase@Forms@Windows@System@@$$FQ$AAMX_N@Z

; 259  : 			this->mogiMake->Click += gcnew System::EventHandler(this, &Form1::mogiMake_Click);

  003f9	02		 ldarg.0 	; this$
  003fa	7b 00 00 00 00	 ldfld ?mogiMake@Form1@Mogitter@@3P$AAVButton@Forms@Windows@System@@$AA
  003ff	02		 ldarg.0 	; this$
  00400	fe 06 00 00 00
	00		 ldftn ?mogiMake_Click@Form1@Mogitter@@$$FA$AAMXP$AAVObject@System@@P$AAVEventArgs@4@@Z
  00406	73 00 00 00 00	 newobj ??0EventHandler@System@@$$FQ$AAM@P$AAVObject@1@VIntPtr@1@@Z
  0040b	28 00 00 00 00	 call ?add@Click@Control@Forms@Windows@System@@$$FQ$AAMXP$AAVEventHandler@5@@Z

; 260  : 			// 
; 261  : 			// setting
; 262  : 			// 
; 263  : 			this->setting->Image = (cli::safe_cast<System::Drawing::Image^  >(resources->GetObject(L"setting.Image")));

  00410	02		 ldarg.0 	; this$
  00411	7b 00 00 00 00	 ldfld ?setting@Form1@Mogitter@@3P$AAVButton@Forms@Windows@System@@$AA
  00416	08		 ldloc.2 	; resources$
  00417	72 00 00 00 00	 ldstr $StringLiteralTok$??_C@_1BM@KFCKNFPP@?$AAs?$AAe?$AAt?$AAt?$AAi?$AAn?$AAg?$AA?4?$AAI?$AAm?$AAa?$AAg?$AAe?$AA?$AA@
  0041c	6f 00 00 00 00	 callvirt ?GetObject@ResourceManager@Resources@System@@$$FU$AAMP$AAVObject@3@P$AAVString@3@@Z
  00421	74 00 00 00 00	 castClass $TypeTok$112E73C0$
  00426	28 00 00 00 00	 call ?set@Image@ButtonBase@Forms@Windows@System@@$$FQ$AAMXP$AAV1Drawing@5@@Z

; 264  : 			this->setting->Location = System::Drawing::Point(648, 573);

  0042b	12 5a		 ldloca.s 90	; $S126$
  0042d	20 88 02 00 00	 ldc.i4 648	; i32 0x288
  00432	20 3d 02 00 00	 ldc.i4 573	; i32 0x23d
  00437	28 00 00 00 00	 call ??0Point@Drawing@System@@$$FQ$CAM@HH@Z
  0043c	02		 ldarg.0 	; this$
  0043d	7b 00 00 00 00	 ldfld ?setting@Form1@Mogitter@@3P$AAVButton@Forms@Windows@System@@$AA
  00442	11 5a		 ldloc.s 90	; $S126$
  00444	28 00 00 00 00	 call ?set@Location@Control@Forms@Windows@System@@$$FQ$AAMXVPoint@Drawing@5@@Z

; 265  : 			this->setting->Name = L"setting";

  00449	02		 ldarg.0 	; this$
  0044a	7b 00 00 00 00	 ldfld ?setting@Form1@Mogitter@@3P$AAVButton@Forms@Windows@System@@$AA
  0044f	72 00 00 00 00	 ldstr $StringLiteralTok$??_C@_1BA@GONBNHGM@?$AAs?$AAe?$AAt?$AAt?$AAi?$AAn?$AAg?$AA?$AA@
  00454	28 00 00 00 00	 call ?set@Name@Control@Forms@Windows@System@@$$FQ$AAMXP$AAVString@5@@Z

; 266  : 			this->setting->Size = System::Drawing::Size(60, 60);

  00459	12 59		 ldloca.s 89	; $S127$
  0045b	1f 3c		 ldc.i4.s 60	; i32 0x3c
  0045d	1f 3c		 ldc.i4.s 60	; i32 0x3c
  0045f	28 00 00 00 00	 call ??0Size@Drawing@System@@$$FQ$CAM@HH@Z
  00464	02		 ldarg.0 	; this$
  00465	7b 00 00 00 00	 ldfld ?setting@Form1@Mogitter@@3P$AAVButton@Forms@Windows@System@@$AA
  0046a	11 59		 ldloc.s 89	; $S127$
  0046c	28 00 00 00 00	 call ?set@Size@Control@Forms@Windows@System@@$$FQ$AAMXV1Drawing@5@@Z

; 267  : 			this->setting->TabIndex = 8;

  00471	02		 ldarg.0 	; this$
  00472	7b 00 00 00 00	 ldfld ?setting@Form1@Mogitter@@3P$AAVButton@Forms@Windows@System@@$AA
  00477	1e		 ldc.i.8 8	; i32 0x8
  00478	28 00 00 00 00	 call ?set@TabIndex@Control@Forms@Windows@System@@$$FQ$AAMXH@Z

; 268  : 			this->setting->UseVisualStyleBackColor = true;

  0047d	02		 ldarg.0 	; this$
  0047e	7b 00 00 00 00	 ldfld ?setting@Form1@Mogitter@@3P$AAVButton@Forms@Windows@System@@$AA
  00483	17		 ldc.i.1 1	; u8 0x1
  00484	28 00 00 00 00	 call ?set@UseVisualStyleBackColor@ButtonBase@Forms@Windows@System@@$$FQ$AAMX_N@Z

; 269  : 			this->setting->Click += gcnew System::EventHandler(this, &Form1::setting_Click);

  00489	02		 ldarg.0 	; this$
  0048a	7b 00 00 00 00	 ldfld ?setting@Form1@Mogitter@@3P$AAVButton@Forms@Windows@System@@$AA
  0048f	02		 ldarg.0 	; this$
  00490	fe 06 00 00 00
	00		 ldftn ?setting_Click@Form1@Mogitter@@$$FA$AAMXP$AAVObject@System@@P$AAVEventArgs@4@@Z
  00496	73 00 00 00 00	 newobj ??0EventHandler@System@@$$FQ$AAM@P$AAVObject@1@VIntPtr@1@@Z
  0049b	28 00 00 00 00	 call ?add@Click@Control@Forms@Windows@System@@$$FQ$AAMXP$AAVEventHandler@5@@Z

; 270  : 			// 
; 271  : 			// helping
; 272  : 			// 
; 273  : 			this->helping->Image = (cli::safe_cast<System::Drawing::Image^  >(resources->GetObject(L"helping.Image")));

  004a0	02		 ldarg.0 	; this$
  004a1	7b 00 00 00 00	 ldfld ?helping@Form1@Mogitter@@3P$AAVButton@Forms@Windows@System@@$AA
  004a6	08		 ldloc.2 	; resources$
  004a7	72 00 00 00 00	 ldstr $StringLiteralTok$??_C@_1BM@EAMDDLGD@?$AAh?$AAe?$AAl?$AAp?$AAi?$AAn?$AAg?$AA?4?$AAI?$AAm?$AAa?$AAg?$AAe?$AA?$AA@
  004ac	6f 00 00 00 00	 callvirt ?GetObject@ResourceManager@Resources@System@@$$FU$AAMP$AAVObject@3@P$AAVString@3@@Z
  004b1	74 00 00 00 00	 castClass $TypeTok$112E73C0$
  004b6	28 00 00 00 00	 call ?set@Image@ButtonBase@Forms@Windows@System@@$$FQ$AAMXP$AAV1Drawing@5@@Z

; 274  : 			this->helping->Location = System::Drawing::Point(738, 573);

  004bb	12 58		 ldloca.s 88	; $S128$
  004bd	20 e2 02 00 00	 ldc.i4 738	; i32 0x2e2
  004c2	20 3d 02 00 00	 ldc.i4 573	; i32 0x23d
  004c7	28 00 00 00 00	 call ??0Point@Drawing@System@@$$FQ$CAM@HH@Z
  004cc	02		 ldarg.0 	; this$
  004cd	7b 00 00 00 00	 ldfld ?helping@Form1@Mogitter@@3P$AAVButton@Forms@Windows@System@@$AA
  004d2	11 58		 ldloc.s 88	; $S128$
  004d4	28 00 00 00 00	 call ?set@Location@Control@Forms@Windows@System@@$$FQ$AAMXVPoint@Drawing@5@@Z

; 275  : 			this->helping->Name = L"helping";

  004d9	02		 ldarg.0 	; this$
  004da	7b 00 00 00 00	 ldfld ?helping@Form1@Mogitter@@3P$AAVButton@Forms@Windows@System@@$AA
  004df	72 00 00 00 00	 ldstr $StringLiteralTok$??_C@_1BA@NBNCPJDH@?$AAh?$AAe?$AAl?$AAp?$AAi?$AAn?$AAg?$AA?$AA@
  004e4	28 00 00 00 00	 call ?set@Name@Control@Forms@Windows@System@@$$FQ$AAMXP$AAVString@5@@Z

; 276  : 			this->helping->Size = System::Drawing::Size(60, 60);

  004e9	12 57		 ldloca.s 87	; $S129$
  004eb	1f 3c		 ldc.i4.s 60	; i32 0x3c
  004ed	1f 3c		 ldc.i4.s 60	; i32 0x3c
  004ef	28 00 00 00 00	 call ??0Size@Drawing@System@@$$FQ$CAM@HH@Z
  004f4	02		 ldarg.0 	; this$
  004f5	7b 00 00 00 00	 ldfld ?helping@Form1@Mogitter@@3P$AAVButton@Forms@Windows@System@@$AA
  004fa	11 57		 ldloc.s 87	; $S129$
  004fc	28 00 00 00 00	 call ?set@Size@Control@Forms@Windows@System@@$$FQ$AAMXV1Drawing@5@@Z

; 277  : 			this->helping->TabIndex = 9;

  00501	02		 ldarg.0 	; this$
  00502	7b 00 00 00 00	 ldfld ?helping@Form1@Mogitter@@3P$AAVButton@Forms@Windows@System@@$AA
  00507	1f 09		 ldc.i4.s 9	; i32 0x9
  00509	28 00 00 00 00	 call ?set@TabIndex@Control@Forms@Windows@System@@$$FQ$AAMXH@Z

; 278  : 			this->helping->UseVisualStyleBackColor = true;

  0050e	02		 ldarg.0 	; this$
  0050f	7b 00 00 00 00	 ldfld ?helping@Form1@Mogitter@@3P$AAVButton@Forms@Windows@System@@$AA
  00514	17		 ldc.i.1 1	; u8 0x1
  00515	28 00 00 00 00	 call ?set@UseVisualStyleBackColor@ButtonBase@Forms@Windows@System@@$$FQ$AAMX_N@Z

; 279  : 			this->helping->Click += gcnew System::EventHandler(this, &Form1::helping_Click);

  0051a	02		 ldarg.0 	; this$
  0051b	7b 00 00 00 00	 ldfld ?helping@Form1@Mogitter@@3P$AAVButton@Forms@Windows@System@@$AA
  00520	02		 ldarg.0 	; this$
  00521	fe 06 00 00 00
	00		 ldftn ?helping_Click@Form1@Mogitter@@$$FA$AAMXP$AAVObject@System@@P$AAVEventArgs@4@@Z
  00527	73 00 00 00 00	 newobj ??0EventHandler@System@@$$FQ$AAM@P$AAVObject@1@VIntPtr@1@@Z
  0052c	28 00 00 00 00	 call ?add@Click@Control@Forms@Windows@System@@$$FQ$AAMXP$AAVEventHandler@5@@Z

; 280  : 			// 
; 281  : 			// menuStrip1
; 282  : 			// 
; 283  : 			this->menuStrip1->Items->AddRange(gcnew cli::array< System::Windows::Forms::ToolStripItem^  >(4) {this->FileMenu, this->EditMenu, 
; 284  : 				this->ToolMenu, this->HelpMenu});

  00531	1a		 ldc.i.4 4	; i32 0x4
  00532	8d 00 00 00 00	 newarr $TypeTok$116E771C$
  00537	13 06		 stloc.s 6	; $S130$
  00539	11 06		 ldloc.s 6	; $S130$
  0053b	16		 ldc.i.0 0	; i32 0x0
  0053c	02		 ldarg.0 	; this$
  0053d	7b 00 00 00 00	 ldfld ?FileMenu@Form1@Mogitter@@3P$AAVToolStripMenuItem@Forms@Windows@System@@$AA
  00542	a2		 stelem.ref 
  00543	11 06		 ldloc.s 6	; $S130$
  00545	17		 ldc.i.1 1	; i32 0x1
  00546	02		 ldarg.0 	; this$
  00547	7b 00 00 00 00	 ldfld ?EditMenu@Form1@Mogitter@@3P$AAVToolStripMenuItem@Forms@Windows@System@@$AA
  0054c	a2		 stelem.ref 
  0054d	11 06		 ldloc.s 6	; $S130$
  0054f	18		 ldc.i.2 2	; i32 0x2
  00550	02		 ldarg.0 	; this$
  00551	7b 00 00 00 00	 ldfld ?ToolMenu@Form1@Mogitter@@3P$AAVToolStripMenuItem@Forms@Windows@System@@$AA
  00556	a2		 stelem.ref 
  00557	11 06		 ldloc.s 6	; $S130$
  00559	19		 ldc.i.3 3	; i32 0x3
  0055a	02		 ldarg.0 	; this$
  0055b	7b 00 00 00 00	 ldfld ?HelpMenu@Form1@Mogitter@@3P$AAVToolStripMenuItem@Forms@Windows@System@@$AA
  00560	a2		 stelem.ref 
  00561	02		 ldarg.0 	; this$
  00562	7b 00 00 00 00	 ldfld ?menuStrip1@Form1@Mogitter@@3P$AAVMenuStrip@Forms@Windows@System@@$AA
  00567	6f 00 00 00 00	 callvirt ?get@Items@ToolStrip@Forms@Windows@System@@$$FU$AAMP$AAVToolStripItemCollection@345@XZ
  0056c	11 06		 ldloc.s 6	; $S130$
  0056e	28 00 00 00 00	 call ?AddRange@ToolStripItemCollection@Forms@Windows@System@@$$FQ$AAMXP$01AP$AAVToolStripItem@234@@Z

; 285  : 			this->menuStrip1->Location = System::Drawing::Point(0, 0);

  00573	12 56		 ldloca.s 86	; $S131$
  00575	16		 ldc.i.0 0	; i32 0x0
  00576	16		 ldc.i.0 0	; i32 0x0
  00577	28 00 00 00 00	 call ??0Point@Drawing@System@@$$FQ$CAM@HH@Z
  0057c	02		 ldarg.0 	; this$
  0057d	7b 00 00 00 00	 ldfld ?menuStrip1@Form1@Mogitter@@3P$AAVMenuStrip@Forms@Windows@System@@$AA
  00582	11 56		 ldloc.s 86	; $S131$
  00584	28 00 00 00 00	 call ?set@Location@Control@Forms@Windows@System@@$$FQ$AAMXVPoint@Drawing@5@@Z

; 286  : 			this->menuStrip1->Name = L"menuStrip1";

  00589	02		 ldarg.0 	; this$
  0058a	7b 00 00 00 00	 ldfld ?menuStrip1@Form1@Mogitter@@3P$AAVMenuStrip@Forms@Windows@System@@$AA
  0058f	72 00 00 00 00	 ldstr $StringLiteralTok$??_C@_1BG@LKBBJCPC@?$AAm?$AAe?$AAn?$AAu?$AAS?$AAt?$AAr?$AAi?$AAp?$AA1?$AA?$AA@
  00594	28 00 00 00 00	 call ?set@Name@Control@Forms@Windows@System@@$$FQ$AAMXP$AAVString@5@@Z

; 287  : 			this->menuStrip1->RenderMode = System::Windows::Forms::ToolStripRenderMode::Professional;

  00599	02		 ldarg.0 	; this$
  0059a	7b 00 00 00 00	 ldfld ?menuStrip1@Form1@Mogitter@@3P$AAVMenuStrip@Forms@Windows@System@@$AA
  0059f	18		 ldc.i.2 2	; i32 0x2
  005a0	28 00 00 00 00	 call ?set@RenderMode@ToolStrip@Forms@Windows@System@@$$FQ$AAMXW4ToolStripRenderMode@345@@Z

; 288  : 			this->menuStrip1->Size = System::Drawing::Size(827, 26);

  005a5	12 55		 ldloca.s 85	; $S132$
  005a7	20 3b 03 00 00	 ldc.i4 827	; i32 0x33b
  005ac	1f 1a		 ldc.i4.s 26	; i32 0x1a
  005ae	28 00 00 00 00	 call ??0Size@Drawing@System@@$$FQ$CAM@HH@Z
  005b3	02		 ldarg.0 	; this$
  005b4	7b 00 00 00 00	 ldfld ?menuStrip1@Form1@Mogitter@@3P$AAVMenuStrip@Forms@Windows@System@@$AA
  005b9	11 55		 ldloc.s 85	; $S132$
  005bb	28 00 00 00 00	 call ?set@Size@Control@Forms@Windows@System@@$$FQ$AAMXV1Drawing@5@@Z

; 289  : 			this->menuStrip1->TabIndex = 10;

  005c0	02		 ldarg.0 	; this$
  005c1	7b 00 00 00 00	 ldfld ?menuStrip1@Form1@Mogitter@@3P$AAVMenuStrip@Forms@Windows@System@@$AA
  005c6	1f 0a		 ldc.i4.s 10	; i32 0xa
  005c8	28 00 00 00 00	 call ?set@TabIndex@Control@Forms@Windows@System@@$$FQ$AAMXH@Z

; 290  : 			this->menuStrip1->Text = L"menuStrip1";

  005cd	02		 ldarg.0 	; this$
  005ce	7b 00 00 00 00	 ldfld ?menuStrip1@Form1@Mogitter@@3P$AAVMenuStrip@Forms@Windows@System@@$AA
  005d3	72 00 00 00 00	 ldstr $StringLiteralTok$??_C@_1BG@LKBBJCPC@?$AAm?$AAe?$AAn?$AAu?$AAS?$AAt?$AAr?$AAi?$AAp?$AA1?$AA?$AA@
  005d8	6f 00 00 00 00	 callvirt ?set@Text@Control@Forms@Windows@System@@$$FU$AAMXP$AAVString@5@@Z

; 291  : 			// 
; 292  : 			// FileMenu
; 293  : 			// 
; 294  : 			this->FileMenu->DropDownItems->AddRange(gcnew cli::array< System::Windows::Forms::ToolStripItem^  >(8) {this->newMakeItem, 
; 295  : 				this->openMenuItem, this->toolStripSeparator, this->over_writeMenuItem, this->named_saveMenuItem, this->plusMenuItem, this->toolStripSeparator1, 
; 296  : 				this->endMenuItem});

  005dd	1e		 ldc.i.8 8	; i32 0x8
  005de	8d 00 00 00 00	 newarr $TypeTok$116E771C$
  005e3	0a		 stloc.0 	; $S133$
  005e4	06		 ldloc.0 	; $S133$
  005e5	16		 ldc.i.0 0	; i32 0x0
  005e6	02		 ldarg.0 	; this$
  005e7	7b 00 00 00 00	 ldfld ?newMakeItem@Form1@Mogitter@@3P$AAVToolStripMenuItem@Forms@Windows@System@@$AA
  005ec	a2		 stelem.ref 
  005ed	06		 ldloc.0 	; $S133$
  005ee	17		 ldc.i.1 1	; i32 0x1
  005ef	02		 ldarg.0 	; this$
  005f0	7b 00 00 00 00	 ldfld ?openMenuItem@Form1@Mogitter@@3P$AAVToolStripMenuItem@Forms@Windows@System@@$AA
  005f5	a2		 stelem.ref 
  005f6	06		 ldloc.0 	; $S133$
  005f7	18		 ldc.i.2 2	; i32 0x2
  005f8	02		 ldarg.0 	; this$
  005f9	7b 00 00 00 00	 ldfld ?toolStripSeparator@Form1@Mogitter@@3P$AAVToolStripSeparator@Forms@Windows@System@@$AA
  005fe	a2		 stelem.ref 
  005ff	06		 ldloc.0 	; $S133$
  00600	19		 ldc.i.3 3	; i32 0x3
  00601	02		 ldarg.0 	; this$
  00602	7b 00 00 00 00	 ldfld ?over_writeMenuItem@Form1@Mogitter@@3P$AAVToolStripMenuItem@Forms@Windows@System@@$AA
  00607	a2		 stelem.ref 
  00608	06		 ldloc.0 	; $S133$
  00609	1a		 ldc.i.4 4	; i32 0x4
  0060a	02		 ldarg.0 	; this$
  0060b	7b 00 00 00 00	 ldfld ?named_saveMenuItem@Form1@Mogitter@@3P$AAVToolStripMenuItem@Forms@Windows@System@@$AA
  00610	a2		 stelem.ref 
  00611	06		 ldloc.0 	; $S133$
  00612	1b		 ldc.i.5 5	; i32 0x5
  00613	02		 ldarg.0 	; this$
  00614	7b 00 00 00 00	 ldfld ?plusMenuItem@Form1@Mogitter@@3P$AAVToolStripMenuItem@Forms@Windows@System@@$AA
  00619	a2		 stelem.ref 
  0061a	06		 ldloc.0 	; $S133$
  0061b	1c		 ldc.i.6 6	; i32 0x6
  0061c	02		 ldarg.0 	; this$
  0061d	7b 00 00 00 00	 ldfld ?toolStripSeparator1@Form1@Mogitter@@3P$AAVToolStripSeparator@Forms@Windows@System@@$AA
  00622	a2		 stelem.ref 
  00623	06		 ldloc.0 	; $S133$
  00624	1d		 ldc.i.7 7	; i32 0x7
  00625	02		 ldarg.0 	; this$
  00626	7b 00 00 00 00	 ldfld ?endMenuItem@Form1@Mogitter@@3P$AAVToolStripMenuItem@Forms@Windows@System@@$AA
  0062b	a2		 stelem.ref 
  0062c	02		 ldarg.0 	; this$
  0062d	7b 00 00 00 00	 ldfld ?FileMenu@Form1@Mogitter@@3P$AAVToolStripMenuItem@Forms@Windows@System@@$AA
  00632	28 00 00 00 00	 call ?get@DropDownItems@ToolStripDropDownItem@Forms@Windows@System@@$$FQ$AAMP$AAVToolStripItemCollection@345@XZ
  00637	06		 ldloc.0 	; $S133$
  00638	28 00 00 00 00	 call ?AddRange@ToolStripItemCollection@Forms@Windows@System@@$$FQ$AAMXP$01AP$AAVToolStripItem@234@@Z

; 297  : 			this->FileMenu->Name = L"FileMenu";

  0063d	02		 ldarg.0 	; this$
  0063e	7b 00 00 00 00	 ldfld ?FileMenu@Form1@Mogitter@@3P$AAVToolStripMenuItem@Forms@Windows@System@@$AA
  00643	72 00 00 00 00	 ldstr $StringLiteralTok$??_C@_1BC@EDKGGGFJ@?$AAF?$AAi?$AAl?$AAe?$AAM?$AAe?$AAn?$AAu?$AA?$AA@
  00648	28 00 00 00 00	 call ?set@Name@ToolStripItem@Forms@Windows@System@@$$FQ$AAMXP$AAVString@5@@Z

; 298  : 			this->FileMenu->Size = System::Drawing::Size(85, 22);

  0064d	12 54		 ldloca.s 84	; $S134$
  0064f	1f 55		 ldc.i4.s 85	; i32 0x55
  00651	1f 16		 ldc.i4.s 22	; i32 0x16
  00653	28 00 00 00 00	 call ??0Size@Drawing@System@@$$FQ$CAM@HH@Z
  00658	02		 ldarg.0 	; this$
  00659	7b 00 00 00 00	 ldfld ?FileMenu@Form1@Mogitter@@3P$AAVToolStripMenuItem@Forms@Windows@System@@$AA
  0065e	11 54		 ldloc.s 84	; $S134$
  00660	6f 00 00 00 00	 callvirt ?set@Size@ToolStripItem@Forms@Windows@System@@$$FU$AAMXV1Drawing@5@@Z

; 299  : 			this->FileMenu->Text = L"ファイル(&F)";

  00665	02		 ldarg.0 	; this$
  00666	7b 00 00 00 00	 ldfld ?FileMenu@Form1@Mogitter@@3P$AAVToolStripMenuItem@Forms@Windows@System@@$AA
  0066b	72 00 00 00 00	 ldstr $StringLiteralTok$??_C@_1BC@HAKDKOCG@0?U0?$KB0?$KE0?k?$AA?$CI?$AA?$CG?$AAF?$AA?$CJ?$AA?$AA@
  00670	6f 00 00 00 00	 callvirt ?set@Text@ToolStripItem@Forms@Windows@System@@$$FU$AAMXP$AAVString@5@@Z

; 300  : 			// 
; 301  : 			// newMakeItem
; 302  : 			// 
; 303  : 			this->newMakeItem->ImageTransparentColor = System::Drawing::Color::Magenta;

  00675	28 00 00 00 00	 call ?get@Magenta@Color@Drawing@System@@$$FSM?AV234@XZ
  0067a	13 53		 stloc.s 83	; $T2
  0067c	02		 ldarg.0 	; this$
  0067d	7b 00 00 00 00	 ldfld ?newMakeItem@Form1@Mogitter@@3P$AAVToolStripMenuItem@Forms@Windows@System@@$AA
  00682	11 53		 ldloc.s 83	; $T2
  00684	28 00 00 00 00	 call ?set@ImageTransparentColor@ToolStripItem@Forms@Windows@System@@$$FQ$AAMXVColor@Drawing@5@@Z

; 304  : 			this->newMakeItem->Name = L"newMakeItem";

  00689	02		 ldarg.0 	; this$
  0068a	7b 00 00 00 00	 ldfld ?newMakeItem@Form1@Mogitter@@3P$AAVToolStripMenuItem@Forms@Windows@System@@$AA
  0068f	72 00 00 00 00	 ldstr $StringLiteralTok$??_C@_1BI@LHABOKOH@?$AAn?$AAe?$AAw?$AAM?$AAa?$AAk?$AAe?$AAI?$AAt?$AAe?$AAm?$AA?$AA@
  00694	28 00 00 00 00	 call ?set@Name@ToolStripItem@Forms@Windows@System@@$$FQ$AAMXP$AAVString@5@@Z

; 305  : 			this->newMakeItem->ShortcutKeys = static_cast<System::Windows::Forms::Keys>((System::Windows::Forms::Keys::Control | System::Windows::Forms::Keys::N));

  00699	02		 ldarg.0 	; this$
  0069a	7b 00 00 00 00	 ldfld ?newMakeItem@Form1@Mogitter@@3P$AAVToolStripMenuItem@Forms@Windows@System@@$AA
  0069f	20 4e 00 02 00	 ldc.i4 131150	; i32 0x2004e
  006a4	28 00 00 00 00	 call ?set@ShortcutKeys@ToolStripMenuItem@Forms@Windows@System@@$$FQ$AAMXW4Keys@345@@Z

; 306  : 			this->newMakeItem->Size = System::Drawing::Size(287, 22);

  006a9	12 52		 ldloca.s 82	; $S135$
  006ab	20 1f 01 00 00	 ldc.i4 287	; i32 0x11f
  006b0	1f 16		 ldc.i4.s 22	; i32 0x16
  006b2	28 00 00 00 00	 call ??0Size@Drawing@System@@$$FQ$CAM@HH@Z
  006b7	02		 ldarg.0 	; this$
  006b8	7b 00 00 00 00	 ldfld ?newMakeItem@Form1@Mogitter@@3P$AAVToolStripMenuItem@Forms@Windows@System@@$AA
  006bd	11 52		 ldloc.s 82	; $S135$
  006bf	6f 00 00 00 00	 callvirt ?set@Size@ToolStripItem@Forms@Windows@System@@$$FU$AAMXV1Drawing@5@@Z

; 307  : 			this->newMakeItem->Text = L"新規作成(&N)";

  006c4	02		 ldarg.0 	; this$
  006c5	7b 00 00 00 00	 ldfld ?newMakeItem@Form1@Mogitter@@3P$AAVToolStripMenuItem@Forms@Windows@System@@$AA
  006ca	72 00 00 00 00	 ldstr $StringLiteralTok$??_C@_1BC@DAJLJLPF@e?$LA?$IJ?$IPO?2b?$BA?$AA?$CI?$AA?$CG?$AAN?$AA?$CJ?$AA?$AA@
  006cf	6f 00 00 00 00	 callvirt ?set@Text@ToolStripItem@Forms@Windows@System@@$$FU$AAMXP$AAVString@5@@Z

; 308  : 			this->newMakeItem->Click += gcnew System::EventHandler(this, &Form1::newMakeItem_Click);

  006d4	02		 ldarg.0 	; this$
  006d5	7b 00 00 00 00	 ldfld ?newMakeItem@Form1@Mogitter@@3P$AAVToolStripMenuItem@Forms@Windows@System@@$AA
  006da	02		 ldarg.0 	; this$
  006db	fe 06 00 00 00
	00		 ldftn ?newMakeItem_Click@Form1@Mogitter@@$$FA$AAMXP$AAVObject@System@@P$AAVEventArgs@4@@Z
  006e1	73 00 00 00 00	 newobj ??0EventHandler@System@@$$FQ$AAM@P$AAVObject@1@VIntPtr@1@@Z
  006e6	28 00 00 00 00	 call ?add@Click@ToolStripItem@Forms@Windows@System@@$$FQ$AAMXP$AAVEventHandler@5@@Z

; 309  : 			// 
; 310  : 			// openMenuItem
; 311  : 			// 
; 312  : 			this->openMenuItem->ImageTransparentColor = System::Drawing::Color::Magenta;

  006eb	28 00 00 00 00	 call ?get@Magenta@Color@Drawing@System@@$$FSM?AV234@XZ
  006f0	13 51		 stloc.s 81	; $T3
  006f2	02		 ldarg.0 	; this$
  006f3	7b 00 00 00 00	 ldfld ?openMenuItem@Form1@Mogitter@@3P$AAVToolStripMenuItem@Forms@Windows@System@@$AA
  006f8	11 51		 ldloc.s 81	; $T3
  006fa	28 00 00 00 00	 call ?set@ImageTransparentColor@ToolStripItem@Forms@Windows@System@@$$FQ$AAMXVColor@Drawing@5@@Z

; 313  : 			this->openMenuItem->Name = L"openMenuItem";

  006ff	02		 ldarg.0 	; this$
  00700	7b 00 00 00 00	 ldfld ?openMenuItem@Form1@Mogitter@@3P$AAVToolStripMenuItem@Forms@Windows@System@@$AA
  00705	72 00 00 00 00	 ldstr $StringLiteralTok$??_C@_1BK@CEGCIHOJ@?$AAo?$AAp?$AAe?$AAn?$AAM?$AAe?$AAn?$AAu?$AAI?$AAt?$AAe?$AAm?$AA?$AA@
  0070a	28 00 00 00 00	 call ?set@Name@ToolStripItem@Forms@Windows@System@@$$FQ$AAMXP$AAVString@5@@Z

; 314  : 			this->openMenuItem->ShortcutKeys = static_cast<System::Windows::Forms::Keys>((System::Windows::Forms::Keys::Control | System::Windows::Forms::Keys::O));

  0070f	02		 ldarg.0 	; this$
  00710	7b 00 00 00 00	 ldfld ?openMenuItem@Form1@Mogitter@@3P$AAVToolStripMenuItem@Forms@Windows@System@@$AA
  00715	20 4f 00 02 00	 ldc.i4 131151	; i32 0x2004f
  0071a	28 00 00 00 00	 call ?set@ShortcutKeys@ToolStripMenuItem@Forms@Windows@System@@$$FQ$AAMXW4Keys@345@@Z

; 315  : 			this->openMenuItem->Size = System::Drawing::Size(287, 22);

  0071f	12 50		 ldloca.s 80	; $S136$
  00721	20 1f 01 00 00	 ldc.i4 287	; i32 0x11f
  00726	1f 16		 ldc.i4.s 22	; i32 0x16
  00728	28 00 00 00 00	 call ??0Size@Drawing@System@@$$FQ$CAM@HH@Z
  0072d	02		 ldarg.0 	; this$
  0072e	7b 00 00 00 00	 ldfld ?openMenuItem@Form1@Mogitter@@3P$AAVToolStripMenuItem@Forms@Windows@System@@$AA
  00733	11 50		 ldloc.s 80	; $S136$
  00735	6f 00 00 00 00	 callvirt ?set@Size@ToolStripItem@Forms@Windows@System@@$$FU$AAMXV1Drawing@5@@Z

; 316  : 			this->openMenuItem->Text = L"開く(&O)";

  0073a	02		 ldarg.0 	; this$
  0073b	7b 00 00 00 00	 ldfld ?openMenuItem@Form1@Mogitter@@3P$AAVToolStripMenuItem@Forms@Windows@System@@$AA
  00740	72 00 00 00 00	 ldstr $StringLiteralTok$??_C@_1O@MBHHHBIM@?$JF?$IL0O?$AA?$CI?$AA?$CG?$AAO?$AA?$CJ?$AA?$AA@
  00745	6f 00 00 00 00	 callvirt ?set@Text@ToolStripItem@Forms@Windows@System@@$$FU$AAMXP$AAVString@5@@Z

; 317  : 			this->openMenuItem->Click += gcnew System::EventHandler(this, &Form1::openMenuItem_Click);

  0074a	02		 ldarg.0 	; this$
  0074b	7b 00 00 00 00	 ldfld ?openMenuItem@Form1@Mogitter@@3P$AAVToolStripMenuItem@Forms@Windows@System@@$AA
  00750	02		 ldarg.0 	; this$
  00751	fe 06 00 00 00
	00		 ldftn ?openMenuItem_Click@Form1@Mogitter@@$$FA$AAMXP$AAVObject@System@@P$AAVEventArgs@4@@Z
  00757	73 00 00 00 00	 newobj ??0EventHandler@System@@$$FQ$AAM@P$AAVObject@1@VIntPtr@1@@Z
  0075c	28 00 00 00 00	 call ?add@Click@ToolStripItem@Forms@Windows@System@@$$FQ$AAMXP$AAVEventHandler@5@@Z

; 318  : 			// 
; 319  : 			// toolStripSeparator
; 320  : 			// 
; 321  : 			this->toolStripSeparator->Name = L"toolStripSeparator";

  00761	02		 ldarg.0 	; this$
  00762	7b 00 00 00 00	 ldfld ?toolStripSeparator@Form1@Mogitter@@3P$AAVToolStripSeparator@Forms@Windows@System@@$AA
  00767	72 00 00 00 00	 ldstr $StringLiteralTok$??_C@_1CG@CLECPKCF@?$AAt?$AAo?$AAo?$AAl?$AAS?$AAt?$AAr?$AAi?$AAp?$AAS?$AAe?$AAp?$AAa?$AAr?$AAa?$AAt?$AAo?$AAr?$AA?$AA@
  0076c	28 00 00 00 00	 call ?set@Name@ToolStripItem@Forms@Windows@System@@$$FQ$AAMXP$AAVString@5@@Z

; 322  : 			this->toolStripSeparator->Size = System::Drawing::Size(284, 6);

  00771	12 4f		 ldloca.s 79	; $S137$
  00773	20 1c 01 00 00	 ldc.i4 284	; i32 0x11c
  00778	1c		 ldc.i.6 6	; i32 0x6
  00779	28 00 00 00 00	 call ??0Size@Drawing@System@@$$FQ$CAM@HH@Z
  0077e	02		 ldarg.0 	; this$
  0077f	7b 00 00 00 00	 ldfld ?toolStripSeparator@Form1@Mogitter@@3P$AAVToolStripSeparator@Forms@Windows@System@@$AA
  00784	11 4f		 ldloc.s 79	; $S137$
  00786	6f 00 00 00 00	 callvirt ?set@Size@ToolStripItem@Forms@Windows@System@@$$FU$AAMXV1Drawing@5@@Z

; 323  : 			// 
; 324  : 			// over_writeMenuItem
; 325  : 			// 
; 326  : 			this->over_writeMenuItem->ImageTransparentColor = System::Drawing::Color::Magenta;

  0078b	28 00 00 00 00	 call ?get@Magenta@Color@Drawing@System@@$$FSM?AV234@XZ
  00790	13 4e		 stloc.s 78	; $T4
  00792	02		 ldarg.0 	; this$
  00793	7b 00 00 00 00	 ldfld ?over_writeMenuItem@Form1@Mogitter@@3P$AAVToolStripMenuItem@Forms@Windows@System@@$AA
  00798	11 4e		 ldloc.s 78	; $T4
  0079a	28 00 00 00 00	 call ?set@ImageTransparentColor@ToolStripItem@Forms@Windows@System@@$$FQ$AAMXVColor@Drawing@5@@Z

; 327  : 			this->over_writeMenuItem->Name = L"over_writeMenuItem";

  0079f	02		 ldarg.0 	; this$
  007a0	7b 00 00 00 00	 ldfld ?over_writeMenuItem@Form1@Mogitter@@3P$AAVToolStripMenuItem@Forms@Windows@System@@$AA
  007a5	72 00 00 00 00	 ldstr $StringLiteralTok$??_C@_1CG@IJBAHLPK@?$AAo?$AAv?$AAe?$AAr?$AA_?$AAw?$AAr?$AAi?$AAt?$AAe?$AAM?$AAe?$AAn?$AAu?$AAI?$AAt?$AAe?$AAm?$AA?$AA@
  007aa	28 00 00 00 00	 call ?set@Name@ToolStripItem@Forms@Windows@System@@$$FQ$AAMXP$AAVString@5@@Z

; 328  : 			this->over_writeMenuItem->ShortcutKeys = static_cast<System::Windows::Forms::Keys>((System::Windows::Forms::Keys::Control | System::Windows::Forms::Keys::S));

  007af	02		 ldarg.0 	; this$
  007b0	7b 00 00 00 00	 ldfld ?over_writeMenuItem@Form1@Mogitter@@3P$AAVToolStripMenuItem@Forms@Windows@System@@$AA
  007b5	20 53 00 02 00	 ldc.i4 131155	; i32 0x20053
  007ba	28 00 00 00 00	 call ?set@ShortcutKeys@ToolStripMenuItem@Forms@Windows@System@@$$FQ$AAMXW4Keys@345@@Z

; 329  : 			this->over_writeMenuItem->Size = System::Drawing::Size(287, 22);

  007bf	12 4d		 ldloca.s 77	; $S138$
  007c1	20 1f 01 00 00	 ldc.i4 287	; i32 0x11f
  007c6	1f 16		 ldc.i4.s 22	; i32 0x16
  007c8	28 00 00 00 00	 call ??0Size@Drawing@System@@$$FQ$CAM@HH@Z
  007cd	02		 ldarg.0 	; this$
  007ce	7b 00 00 00 00	 ldfld ?over_writeMenuItem@Form1@Mogitter@@3P$AAVToolStripMenuItem@Forms@Windows@System@@$AA
  007d3	11 4d		 ldloc.s 77	; $S138$
  007d5	6f 00 00 00 00	 callvirt ?set@Size@ToolStripItem@Forms@Windows@System@@$$FU$AAMXV1Drawing@5@@Z

; 330  : 			this->over_writeMenuItem->Text = L"上書き保存(&S)";

  007da	02		 ldarg.0 	; this$
  007db	7b 00 00 00 00	 ldfld ?over_writeMenuItem@Form1@Mogitter@@3P$AAVToolStripMenuItem@Forms@Windows@System@@$AA
  007e0	72 00 00 00 00	 ldstr $StringLiteralTok$??_C@_1BE@ONHOMDHD@N?6f?x0MO?$NN?$FLX?$AA?$CI?$AA?$CG?$AAS?$AA?$CJ?$AA?$AA@
  007e5	6f 00 00 00 00	 callvirt ?set@Text@ToolStripItem@Forms@Windows@System@@$$FU$AAMXP$AAVString@5@@Z

; 331  : 			this->over_writeMenuItem->Click += gcnew System::EventHandler(this, &Form1::over_writeMenuItem_Click);

  007ea	02		 ldarg.0 	; this$
  007eb	7b 00 00 00 00	 ldfld ?over_writeMenuItem@Form1@Mogitter@@3P$AAVToolStripMenuItem@Forms@Windows@System@@$AA
  007f0	02		 ldarg.0 	; this$
  007f1	fe 06 00 00 00
	00		 ldftn ?over_writeMenuItem_Click@Form1@Mogitter@@$$FA$AAMXP$AAVObject@System@@P$AAVEventArgs@4@@Z
  007f7	73 00 00 00 00	 newobj ??0EventHandler@System@@$$FQ$AAM@P$AAVObject@1@VIntPtr@1@@Z
  007fc	28 00 00 00 00	 call ?add@Click@ToolStripItem@Forms@Windows@System@@$$FQ$AAMXP$AAVEventHandler@5@@Z

; 332  : 			// 
; 333  : 			// named_saveMenuItem
; 334  : 			// 
; 335  : 			this->named_saveMenuItem->Name = L"named_saveMenuItem";

  00801	02		 ldarg.0 	; this$
  00802	7b 00 00 00 00	 ldfld ?named_saveMenuItem@Form1@Mogitter@@3P$AAVToolStripMenuItem@Forms@Windows@System@@$AA
  00807	72 00 00 00 00	 ldstr $StringLiteralTok$??_C@_1CG@COHFFDFO@?$AAn?$AAa?$AAm?$AAe?$AAd?$AA_?$AAs?$AAa?$AAv?$AAe?$AAM?$AAe?$AAn?$AAu?$AAI?$AAt?$AAe?$AAm?$AA?$AA@
  0080c	28 00 00 00 00	 call ?set@Name@ToolStripItem@Forms@Windows@System@@$$FQ$AAMXP$AAVString@5@@Z

; 336  : 			this->named_saveMenuItem->ShortcutKeys = static_cast<System::Windows::Forms::Keys>(((System::Windows::Forms::Keys::Control | System::Windows::Forms::Keys::Shift) 
; 337  : 				| System::Windows::Forms::Keys::S));

  00811	02		 ldarg.0 	; this$
  00812	7b 00 00 00 00	 ldfld ?named_saveMenuItem@Form1@Mogitter@@3P$AAVToolStripMenuItem@Forms@Windows@System@@$AA
  00817	20 53 00 03 00	 ldc.i4 196691	; i32 0x30053
  0081c	28 00 00 00 00	 call ?set@ShortcutKeys@ToolStripMenuItem@Forms@Windows@System@@$$FQ$AAMXW4Keys@345@@Z

; 338  : 			this->named_saveMenuItem->Size = System::Drawing::Size(287, 22);

  00821	12 4c		 ldloca.s 76	; $S139$
  00823	20 1f 01 00 00	 ldc.i4 287	; i32 0x11f
  00828	1f 16		 ldc.i4.s 22	; i32 0x16
  0082a	28 00 00 00 00	 call ??0Size@Drawing@System@@$$FQ$CAM@HH@Z
  0082f	02		 ldarg.0 	; this$
  00830	7b 00 00 00 00	 ldfld ?named_saveMenuItem@Form1@Mogitter@@3P$AAVToolStripMenuItem@Forms@Windows@System@@$AA
  00835	11 4c		 ldloc.s 76	; $S139$
  00837	6f 00 00 00 00	 callvirt ?set@Size@ToolStripItem@Forms@Windows@System@@$$FU$AAMXV1Drawing@5@@Z

; 339  : 			this->named_saveMenuItem->Text = L"名前を付けて保存(&N)";

  0083c	02		 ldarg.0 	; this$
  0083d	7b 00 00 00 00	 ldfld ?named_saveMenuItem@Form1@Mogitter@@3P$AAVToolStripMenuItem@Forms@Windows@System@@$AA
  00842	72 00 00 00 00	 ldstr $StringLiteralTok$??_C@_1BK@EMHKPIEC@T?$ANRM0?$JCN?X0Q0fO?$NN?$FLX?$AA?$CI?$AA?$CG?$AAN?$AA?$CJ?$AA?$AA@
  00847	6f 00 00 00 00	 callvirt ?set@Text@ToolStripItem@Forms@Windows@System@@$$FU$AAMXP$AAVString@5@@Z

; 340  : 			this->named_saveMenuItem->Click += gcnew System::EventHandler(this, &Form1::named_saveMenuItem_Click);

  0084c	02		 ldarg.0 	; this$
  0084d	7b 00 00 00 00	 ldfld ?named_saveMenuItem@Form1@Mogitter@@3P$AAVToolStripMenuItem@Forms@Windows@System@@$AA
  00852	02		 ldarg.0 	; this$
  00853	fe 06 00 00 00
	00		 ldftn ?named_saveMenuItem_Click@Form1@Mogitter@@$$FA$AAMXP$AAVObject@System@@P$AAVEventArgs@4@@Z
  00859	73 00 00 00 00	 newobj ??0EventHandler@System@@$$FQ$AAM@P$AAVObject@1@VIntPtr@1@@Z
  0085e	28 00 00 00 00	 call ?add@Click@ToolStripItem@Forms@Windows@System@@$$FQ$AAMXP$AAVEventHandler@5@@Z

; 341  : 			// 
; 342  : 			// plusMenuItem
; 343  : 			// 
; 344  : 			this->plusMenuItem->Name = L"plusMenuItem";

  00863	02		 ldarg.0 	; this$
  00864	7b 00 00 00 00	 ldfld ?plusMenuItem@Form1@Mogitter@@3P$AAVToolStripMenuItem@Forms@Windows@System@@$AA
  00869	72 00 00 00 00	 ldstr $StringLiteralTok$??_C@_1BK@DINKLABO@?$AAp?$AAl?$AAu?$AAs?$AAM?$AAe?$AAn?$AAu?$AAI?$AAt?$AAe?$AAm?$AA?$AA@
  0086e	28 00 00 00 00	 call ?set@Name@ToolStripItem@Forms@Windows@System@@$$FQ$AAMXP$AAVString@5@@Z

; 345  : 			this->plusMenuItem->ShortcutKeys = static_cast<System::Windows::Forms::Keys>(((System::Windows::Forms::Keys::Control | System::Windows::Forms::Keys::Alt) 
; 346  : 				| System::Windows::Forms::Keys::S));

  00873	02		 ldarg.0 	; this$
  00874	7b 00 00 00 00	 ldfld ?plusMenuItem@Form1@Mogitter@@3P$AAVToolStripMenuItem@Forms@Windows@System@@$AA
  00879	20 53 00 06 00	 ldc.i4 393299	; i32 0x60053
  0087e	28 00 00 00 00	 call ?set@ShortcutKeys@ToolStripMenuItem@Forms@Windows@System@@$$FQ$AAMXW4Keys@345@@Z

; 347  : 			this->plusMenuItem->Size = System::Drawing::Size(287, 22);

  00883	12 4b		 ldloca.s 75	; $S140$
  00885	20 1f 01 00 00	 ldc.i4 287	; i32 0x11f
  0088a	1f 16		 ldc.i4.s 22	; i32 0x16
  0088c	28 00 00 00 00	 call ??0Size@Drawing@System@@$$FQ$CAM@HH@Z
  00891	02		 ldarg.0 	; this$
  00892	7b 00 00 00 00	 ldfld ?plusMenuItem@Form1@Mogitter@@3P$AAVToolStripMenuItem@Forms@Windows@System@@$AA
  00897	11 4b		 ldloc.s 75	; $S140$
  00899	6f 00 00 00 00	 callvirt ?set@Size@ToolStripItem@Forms@Windows@System@@$$FU$AAMXV1Drawing@5@@Z

; 348  : 			this->plusMenuItem->Text = L"既存のファイルに追加(&A)";

  0089e	02		 ldarg.0 	; this$
  0089f	7b 00 00 00 00	 ldfld ?plusMenuItem@Form1@Mogitter@@3P$AAVToolStripMenuItem@Forms@Windows@System@@$AA
  008a4	72 00 00 00 00	 ldstr $StringLiteralTok$??_C@_1BO@EEDAOMBO@e?b?$FLX0n0?U0?$KB0?$KE0?k0k?$IP?$PNR?$KA?$AA?$CI?$AA?$CG?$AAA?$AA?$CJ?$AA?$AA@
  008a9	6f 00 00 00 00	 callvirt ?set@Text@ToolStripItem@Forms@Windows@System@@$$FU$AAMXP$AAVString@5@@Z

; 349  : 			this->plusMenuItem->Click += gcnew System::EventHandler(this, &Form1::plusMenuItem_Click);

  008ae	02		 ldarg.0 	; this$
  008af	7b 00 00 00 00	 ldfld ?plusMenuItem@Form1@Mogitter@@3P$AAVToolStripMenuItem@Forms@Windows@System@@$AA
  008b4	02		 ldarg.0 	; this$
  008b5	fe 06 00 00 00
	00		 ldftn ?plusMenuItem_Click@Form1@Mogitter@@$$FA$AAMXP$AAVObject@System@@P$AAVEventArgs@4@@Z
  008bb	73 00 00 00 00	 newobj ??0EventHandler@System@@$$FQ$AAM@P$AAVObject@1@VIntPtr@1@@Z
  008c0	28 00 00 00 00	 call ?add@Click@ToolStripItem@Forms@Windows@System@@$$FQ$AAMXP$AAVEventHandler@5@@Z

; 350  : 			// 
; 351  : 			// toolStripSeparator1
; 352  : 			// 
; 353  : 			this->toolStripSeparator1->Name = L"toolStripSeparator1";

  008c5	02		 ldarg.0 	; this$
  008c6	7b 00 00 00 00	 ldfld ?toolStripSeparator1@Form1@Mogitter@@3P$AAVToolStripSeparator@Forms@Windows@System@@$AA
  008cb	72 00 00 00 00	 ldstr $StringLiteralTok$??_C@_1CI@PNAMHPGD@?$AAt?$AAo?$AAo?$AAl?$AAS?$AAt?$AAr?$AAi?$AAp?$AAS?$AAe?$AAp?$AAa?$AAr?$AAa?$AAt?$AAo?$AAr?$AA1?$AA?$AA@
  008d0	28 00 00 00 00	 call ?set@Name@ToolStripItem@Forms@Windows@System@@$$FQ$AAMXP$AAVString@5@@Z

; 354  : 			this->toolStripSeparator1->Size = System::Drawing::Size(284, 6);

  008d5	12 4a		 ldloca.s 74	; $S141$
  008d7	20 1c 01 00 00	 ldc.i4 284	; i32 0x11c
  008dc	1c		 ldc.i.6 6	; i32 0x6
  008dd	28 00 00 00 00	 call ??0Size@Drawing@System@@$$FQ$CAM@HH@Z
  008e2	02		 ldarg.0 	; this$
  008e3	7b 00 00 00 00	 ldfld ?toolStripSeparator1@Form1@Mogitter@@3P$AAVToolStripSeparator@Forms@Windows@System@@$AA
  008e8	11 4a		 ldloc.s 74	; $S141$
  008ea	6f 00 00 00 00	 callvirt ?set@Size@ToolStripItem@Forms@Windows@System@@$$FU$AAMXV1Drawing@5@@Z

; 355  : 			// 
; 356  : 			// endMenuItem
; 357  : 			// 
; 358  : 			this->endMenuItem->Name = L"endMenuItem";

  008ef	02		 ldarg.0 	; this$
  008f0	7b 00 00 00 00	 ldfld ?endMenuItem@Form1@Mogitter@@3P$AAVToolStripMenuItem@Forms@Windows@System@@$AA
  008f5	72 00 00 00 00	 ldstr $StringLiteralTok$??_C@_1BI@KOMMNNMI@?$AAe?$AAn?$AAd?$AAM?$AAe?$AAn?$AAu?$AAI?$AAt?$AAe?$AAm?$AA?$AA@
  008fa	28 00 00 00 00	 call ?set@Name@ToolStripItem@Forms@Windows@System@@$$FQ$AAMXP$AAVString@5@@Z

; 359  : 			this->endMenuItem->ShortcutKeys = static_cast<System::Windows::Forms::Keys>((System::Windows::Forms::Keys::Alt | System::Windows::Forms::Keys::F1));

  008ff	02		 ldarg.0 	; this$
  00900	7b 00 00 00 00	 ldfld ?endMenuItem@Form1@Mogitter@@3P$AAVToolStripMenuItem@Forms@Windows@System@@$AA
  00905	20 70 00 04 00	 ldc.i4 262256	; i32 0x40070
  0090a	28 00 00 00 00	 call ?set@ShortcutKeys@ToolStripMenuItem@Forms@Windows@System@@$$FQ$AAMXW4Keys@345@@Z

; 360  : 			this->endMenuItem->Size = System::Drawing::Size(287, 22);

  0090f	12 49		 ldloca.s 73	; $S142$
  00911	20 1f 01 00 00	 ldc.i4 287	; i32 0x11f
  00916	1f 16		 ldc.i4.s 22	; i32 0x16
  00918	28 00 00 00 00	 call ??0Size@Drawing@System@@$$FQ$CAM@HH@Z
  0091d	02		 ldarg.0 	; this$
  0091e	7b 00 00 00 00	 ldfld ?endMenuItem@Form1@Mogitter@@3P$AAVToolStripMenuItem@Forms@Windows@System@@$AA
  00923	11 49		 ldloc.s 73	; $S142$
  00925	6f 00 00 00 00	 callvirt ?set@Size@ToolStripItem@Forms@Windows@System@@$$FU$AAMXV1Drawing@5@@Z

; 361  : 			this->endMenuItem->Text = L"終了(&X)";

  0092a	02		 ldarg.0 	; this$
  0092b	7b 00 00 00 00	 ldfld ?endMenuItem@Form1@Mogitter@@3P$AAVToolStripMenuItem@Forms@Windows@System@@$AA
  00930	72 00 00 00 00	 ldstr $StringLiteralTok$??_C@_1O@CGPLBDKM@?$HNBN?$IG?$AA?$CI?$AA?$CG?$AAX?$AA?$CJ?$AA?$AA@
  00935	6f 00 00 00 00	 callvirt ?set@Text@ToolStripItem@Forms@Windows@System@@$$FU$AAMXP$AAVString@5@@Z

; 362  : 			this->endMenuItem->Click += gcnew System::EventHandler(this, &Form1::endMenuItem_Click);

  0093a	02		 ldarg.0 	; this$
  0093b	7b 00 00 00 00	 ldfld ?endMenuItem@Form1@Mogitter@@3P$AAVToolStripMenuItem@Forms@Windows@System@@$AA
  00940	02		 ldarg.0 	; this$
  00941	fe 06 00 00 00
	00		 ldftn ?endMenuItem_Click@Form1@Mogitter@@$$FA$AAMXP$AAVObject@System@@P$AAVEventArgs@4@@Z
  00947	73 00 00 00 00	 newobj ??0EventHandler@System@@$$FQ$AAM@P$AAVObject@1@VIntPtr@1@@Z
  0094c	28 00 00 00 00	 call ?add@Click@ToolStripItem@Forms@Windows@System@@$$FQ$AAMXP$AAVEventHandler@5@@Z

; 363  : 			// 
; 364  : 			// EditMenu
; 365  : 			// 
; 366  : 			this->EditMenu->DropDownItems->AddRange(gcnew cli::array< System::Windows::Forms::ToolStripItem^  >(6) {this->undoMenuItem, 
; 367  : 				this->redoMenuItem, this->toolStripSeparator3, this->copyMenuItem, this->toolStripSeparator4, this->all_selectMenuItem});

  00951	1c		 ldc.i.6 6	; i32 0x6
  00952	8d 00 00 00 00	 newarr $TypeTok$116E771C$
  00957	0b		 stloc.1 	; $S143$
  00958	07		 ldloc.1 	; $S143$
  00959	16		 ldc.i.0 0	; i32 0x0
  0095a	02		 ldarg.0 	; this$
  0095b	7b 00 00 00 00	 ldfld ?undoMenuItem@Form1@Mogitter@@3P$AAVToolStripMenuItem@Forms@Windows@System@@$AA
  00960	a2		 stelem.ref 
  00961	07		 ldloc.1 	; $S143$
  00962	17		 ldc.i.1 1	; i32 0x1
  00963	02		 ldarg.0 	; this$
  00964	7b 00 00 00 00	 ldfld ?redoMenuItem@Form1@Mogitter@@3P$AAVToolStripMenuItem@Forms@Windows@System@@$AA
  00969	a2		 stelem.ref 
  0096a	07		 ldloc.1 	; $S143$
  0096b	18		 ldc.i.2 2	; i32 0x2
  0096c	02		 ldarg.0 	; this$
  0096d	7b 00 00 00 00	 ldfld ?toolStripSeparator3@Form1@Mogitter@@3P$AAVToolStripSeparator@Forms@Windows@System@@$AA
  00972	a2		 stelem.ref 
  00973	07		 ldloc.1 	; $S143$
  00974	19		 ldc.i.3 3	; i32 0x3
  00975	02		 ldarg.0 	; this$
  00976	7b 00 00 00 00	 ldfld ?copyMenuItem@Form1@Mogitter@@3P$AAVToolStripMenuItem@Forms@Windows@System@@$AA
  0097b	a2		 stelem.ref 
  0097c	07		 ldloc.1 	; $S143$
  0097d	1a		 ldc.i.4 4	; i32 0x4
  0097e	02		 ldarg.0 	; this$
  0097f	7b 00 00 00 00	 ldfld ?toolStripSeparator4@Form1@Mogitter@@3P$AAVToolStripSeparator@Forms@Windows@System@@$AA
  00984	a2		 stelem.ref 
  00985	07		 ldloc.1 	; $S143$
  00986	1b		 ldc.i.5 5	; i32 0x5
  00987	02		 ldarg.0 	; this$
  00988	7b 00 00 00 00	 ldfld ?all_selectMenuItem@Form1@Mogitter@@3P$AAVToolStripMenuItem@Forms@Windows@System@@$AA
  0098d	a2		 stelem.ref 
  0098e	02		 ldarg.0 	; this$
  0098f	7b 00 00 00 00	 ldfld ?EditMenu@Form1@Mogitter@@3P$AAVToolStripMenuItem@Forms@Windows@System@@$AA
  00994	28 00 00 00 00	 call ?get@DropDownItems@ToolStripDropDownItem@Forms@Windows@System@@$$FQ$AAMP$AAVToolStripItemCollection@345@XZ
  00999	07		 ldloc.1 	; $S143$
  0099a	28 00 00 00 00	 call ?AddRange@ToolStripItemCollection@Forms@Windows@System@@$$FQ$AAMXP$01AP$AAVToolStripItem@234@@Z

; 368  : 			this->EditMenu->Name = L"EditMenu";

  0099f	02		 ldarg.0 	; this$
  009a0	7b 00 00 00 00	 ldfld ?EditMenu@Form1@Mogitter@@3P$AAVToolStripMenuItem@Forms@Windows@System@@$AA
  009a5	72 00 00 00 00	 ldstr $StringLiteralTok$??_C@_1BC@LDHEDGJM@?$AAE?$AAd?$AAi?$AAt?$AAM?$AAe?$AAn?$AAu?$AA?$AA@
  009aa	28 00 00 00 00	 call ?set@Name@ToolStripItem@Forms@Windows@System@@$$FQ$AAMXP$AAVString@5@@Z

; 369  : 			this->EditMenu->Size = System::Drawing::Size(61, 22);

  009af	12 48		 ldloca.s 72	; $S144$
  009b1	1f 3d		 ldc.i4.s 61	; i32 0x3d
  009b3	1f 16		 ldc.i4.s 22	; i32 0x16
  009b5	28 00 00 00 00	 call ??0Size@Drawing@System@@$$FQ$CAM@HH@Z
  009ba	02		 ldarg.0 	; this$
  009bb	7b 00 00 00 00	 ldfld ?EditMenu@Form1@Mogitter@@3P$AAVToolStripMenuItem@Forms@Windows@System@@$AA
  009c0	11 48		 ldloc.s 72	; $S144$
  009c2	6f 00 00 00 00	 callvirt ?set@Size@ToolStripItem@Forms@Windows@System@@$$FU$AAMXV1Drawing@5@@Z

; 370  : 			this->EditMenu->Text = L"編集(&E)";

  009c7	02		 ldarg.0 	; this$
  009c8	7b 00 00 00 00	 ldfld ?EditMenu@Form1@Mogitter@@3P$AAVToolStripMenuItem@Forms@Windows@System@@$AA
  009cd	72 00 00 00 00	 ldstr $StringLiteralTok$??_C@_1O@IAGMPBEG@?$HN?h?$JG?F?$AA?$CI?$AA?$CG?$AAE?$AA?$CJ?$AA?$AA@
  009d2	6f 00 00 00 00	 callvirt ?set@Text@ToolStripItem@Forms@Windows@System@@$$FU$AAMXP$AAVString@5@@Z

; 371  : 			// 
; 372  : 			// undoMenuItem
; 373  : 			// 
; 374  : 			this->undoMenuItem->Name = L"undoMenuItem";

  009d7	02		 ldarg.0 	; this$
  009d8	7b 00 00 00 00	 ldfld ?undoMenuItem@Form1@Mogitter@@3P$AAVToolStripMenuItem@Forms@Windows@System@@$AA
  009dd	72 00 00 00 00	 ldstr $StringLiteralTok$??_C@_1BK@KBEHPEBH@?$AAu?$AAn?$AAd?$AAo?$AAM?$AAe?$AAn?$AAu?$AAI?$AAt?$AAe?$AAm?$AA?$AA@
  009e2	28 00 00 00 00	 call ?set@Name@ToolStripItem@Forms@Windows@System@@$$FQ$AAMXP$AAVString@5@@Z

; 375  : 			this->undoMenuItem->ShortcutKeys = static_cast<System::Windows::Forms::Keys>((System::Windows::Forms::Keys::Control | System::Windows::Forms::Keys::Z));

  009e7	02		 ldarg.0 	; this$
  009e8	7b 00 00 00 00	 ldfld ?undoMenuItem@Form1@Mogitter@@3P$AAVToolStripMenuItem@Forms@Windows@System@@$AA
  009ed	20 5a 00 02 00	 ldc.i4 131162	; i32 0x2005a
  009f2	28 00 00 00 00	 call ?set@ShortcutKeys@ToolStripMenuItem@Forms@Windows@System@@$$FQ$AAMXW4Keys@345@@Z

; 376  : 			this->undoMenuItem->Size = System::Drawing::Size(201, 22);

  009f7	12 47		 ldloca.s 71	; $S145$
  009f9	20 c9 00 00 00	 ldc.i4 201	; i32 0xc9
  009fe	1f 16		 ldc.i4.s 22	; i32 0x16
  00a00	28 00 00 00 00	 call ??0Size@Drawing@System@@$$FQ$CAM@HH@Z
  00a05	02		 ldarg.0 	; this$
  00a06	7b 00 00 00 00	 ldfld ?undoMenuItem@Form1@Mogitter@@3P$AAVToolStripMenuItem@Forms@Windows@System@@$AA
  00a0b	11 47		 ldloc.s 71	; $S145$
  00a0d	6f 00 00 00 00	 callvirt ?set@Size@ToolStripItem@Forms@Windows@System@@$$FU$AAMXV1Drawing@5@@Z

; 377  : 			this->undoMenuItem->Text = L"元に戻す(&U)";

  00a12	02		 ldarg.0 	; this$
  00a13	7b 00 00 00 00	 ldfld ?undoMenuItem@Form1@Mogitter@@3P$AAVToolStripMenuItem@Forms@Windows@System@@$AA
  00a18	72 00 00 00 00	 ldstr $StringLiteralTok$??_C@_1BC@ELHAMHFJ@QC0kb?$DL0Y?$AA?$CI?$AA?$CG?$AAU?$AA?$CJ?$AA?$AA@
  00a1d	6f 00 00 00 00	 callvirt ?set@Text@ToolStripItem@Forms@Windows@System@@$$FU$AAMXP$AAVString@5@@Z

; 378  : 			this->undoMenuItem->Click += gcnew System::EventHandler(this, &Form1::undoMenuItem_Click);

  00a22	02		 ldarg.0 	; this$
  00a23	7b 00 00 00 00	 ldfld ?undoMenuItem@Form1@Mogitter@@3P$AAVToolStripMenuItem@Forms@Windows@System@@$AA
  00a28	02		 ldarg.0 	; this$
  00a29	fe 06 00 00 00
	00		 ldftn ?undoMenuItem_Click@Form1@Mogitter@@$$FA$AAMXP$AAVObject@System@@P$AAVEventArgs@4@@Z
  00a2f	73 00 00 00 00	 newobj ??0EventHandler@System@@$$FQ$AAM@P$AAVObject@1@VIntPtr@1@@Z
  00a34	28 00 00 00 00	 call ?add@Click@ToolStripItem@Forms@Windows@System@@$$FQ$AAMXP$AAVEventHandler@5@@Z

; 379  : 			// 
; 380  : 			// redoMenuItem
; 381  : 			// 
; 382  : 			this->redoMenuItem->Name = L"redoMenuItem";

  00a39	02		 ldarg.0 	; this$
  00a3a	7b 00 00 00 00	 ldfld ?redoMenuItem@Form1@Mogitter@@3P$AAVToolStripMenuItem@Forms@Windows@System@@$AA
  00a3f	72 00 00 00 00	 ldstr $StringLiteralTok$??_C@_1BK@PDJHBKKH@?$AAr?$AAe?$AAd?$AAo?$AAM?$AAe?$AAn?$AAu?$AAI?$AAt?$AAe?$AAm?$AA?$AA@
  00a44	28 00 00 00 00	 call ?set@Name@ToolStripItem@Forms@Windows@System@@$$FQ$AAMXP$AAVString@5@@Z

; 383  : 			this->redoMenuItem->ShortcutKeys = static_cast<System::Windows::Forms::Keys>((System::Windows::Forms::Keys::Control | System::Windows::Forms::Keys::Y));

  00a49	02		 ldarg.0 	; this$
  00a4a	7b 00 00 00 00	 ldfld ?redoMenuItem@Form1@Mogitter@@3P$AAVToolStripMenuItem@Forms@Windows@System@@$AA
  00a4f	20 59 00 02 00	 ldc.i4 131161	; i32 0x20059
  00a54	28 00 00 00 00	 call ?set@ShortcutKeys@ToolStripMenuItem@Forms@Windows@System@@$$FQ$AAMXW4Keys@345@@Z

; 384  : 			this->redoMenuItem->Size = System::Drawing::Size(201, 22);

  00a59	12 46		 ldloca.s 70	; $S146$
  00a5b	20 c9 00 00 00	 ldc.i4 201	; i32 0xc9
  00a60	1f 16		 ldc.i4.s 22	; i32 0x16
  00a62	28 00 00 00 00	 call ??0Size@Drawing@System@@$$FQ$CAM@HH@Z
  00a67	02		 ldarg.0 	; this$
  00a68	7b 00 00 00 00	 ldfld ?redoMenuItem@Form1@Mogitter@@3P$AAVToolStripMenuItem@Forms@Windows@System@@$AA
  00a6d	11 46		 ldloc.s 70	; $S146$
  00a6f	6f 00 00 00 00	 callvirt ?set@Size@ToolStripItem@Forms@Windows@System@@$$FU$AAMXV1Drawing@5@@Z

; 385  : 			this->redoMenuItem->Text = L"やり直し(&R)";

  00a74	02		 ldarg.0 	; this$
  00a75	7b 00 00 00 00	 ldfld ?redoMenuItem@Form1@Mogitter@@3P$AAVToolStripMenuItem@Forms@Windows@System@@$AA
  00a7a	72 00 00 00 00	 ldstr $StringLiteralTok$??_C@_1BC@JFPLLFHM@0?$IE0?$IKv?t0W?$AA?$CI?$AA?$CG?$AAR?$AA?$CJ?$AA?$AA@
  00a7f	6f 00 00 00 00	 callvirt ?set@Text@ToolStripItem@Forms@Windows@System@@$$FU$AAMXP$AAVString@5@@Z

; 386  : 			this->redoMenuItem->Click += gcnew System::EventHandler(this, &Form1::redoMenuItem_Click);

  00a84	02		 ldarg.0 	; this$
  00a85	7b 00 00 00 00	 ldfld ?redoMenuItem@Form1@Mogitter@@3P$AAVToolStripMenuItem@Forms@Windows@System@@$AA
  00a8a	02		 ldarg.0 	; this$
  00a8b	fe 06 00 00 00
	00		 ldftn ?redoMenuItem_Click@Form1@Mogitter@@$$FA$AAMXP$AAVObject@System@@P$AAVEventArgs@4@@Z
  00a91	73 00 00 00 00	 newobj ??0EventHandler@System@@$$FQ$AAM@P$AAVObject@1@VIntPtr@1@@Z
  00a96	28 00 00 00 00	 call ?add@Click@ToolStripItem@Forms@Windows@System@@$$FQ$AAMXP$AAVEventHandler@5@@Z

; 387  : 			// 
; 388  : 			// toolStripSeparator3
; 389  : 			// 
; 390  : 			this->toolStripSeparator3->Name = L"toolStripSeparator3";

  00a9b	02		 ldarg.0 	; this$
  00a9c	7b 00 00 00 00	 ldfld ?toolStripSeparator3@Form1@Mogitter@@3P$AAVToolStripSeparator@Forms@Windows@System@@$AA
  00aa1	72 00 00 00 00	 ldstr $StringLiteralTok$??_C@_1CI@FHAFLHOI@?$AAt?$AAo?$AAo?$AAl?$AAS?$AAt?$AAr?$AAi?$AAp?$AAS?$AAe?$AAp?$AAa?$AAr?$AAa?$AAt?$AAo?$AAr?$AA3?$AA?$AA@
  00aa6	28 00 00 00 00	 call ?set@Name@ToolStripItem@Forms@Windows@System@@$$FQ$AAMXP$AAVString@5@@Z

; 391  : 			this->toolStripSeparator3->Size = System::Drawing::Size(198, 6);

  00aab	12 45		 ldloca.s 69	; $S147$
  00aad	20 c6 00 00 00	 ldc.i4 198	; i32 0xc6
  00ab2	1c		 ldc.i.6 6	; i32 0x6
  00ab3	28 00 00 00 00	 call ??0Size@Drawing@System@@$$FQ$CAM@HH@Z
  00ab8	02		 ldarg.0 	; this$
  00ab9	7b 00 00 00 00	 ldfld ?toolStripSeparator3@Form1@Mogitter@@3P$AAVToolStripSeparator@Forms@Windows@System@@$AA
  00abe	11 45		 ldloc.s 69	; $S147$
  00ac0	6f 00 00 00 00	 callvirt ?set@Size@ToolStripItem@Forms@Windows@System@@$$FU$AAMXV1Drawing@5@@Z

; 392  : 			// 
; 393  : 			// copyMenuItem
; 394  : 			// 
; 395  : 			this->copyMenuItem->Name = L"copyMenuItem";

  00ac5	02		 ldarg.0 	; this$
  00ac6	7b 00 00 00 00	 ldfld ?copyMenuItem@Form1@Mogitter@@3P$AAVToolStripMenuItem@Forms@Windows@System@@$AA
  00acb	72 00 00 00 00	 ldstr $StringLiteralTok$??_C@_1BK@CEFNPIEI@?$AAc?$AAo?$AAp?$AAy?$AAM?$AAe?$AAn?$AAu?$AAI?$AAt?$AAe?$AAm?$AA?$AA@
  00ad0	28 00 00 00 00	 call ?set@Name@ToolStripItem@Forms@Windows@System@@$$FQ$AAMXP$AAVString@5@@Z

; 396  : 			this->copyMenuItem->ShortcutKeyDisplayString = L"Ctrl+C";

  00ad5	02		 ldarg.0 	; this$
  00ad6	7b 00 00 00 00	 ldfld ?copyMenuItem@Form1@Mogitter@@3P$AAVToolStripMenuItem@Forms@Windows@System@@$AA
  00adb	72 00 00 00 00	 ldstr $StringLiteralTok$??_C@_1O@KFOCAMOO@?$AAC?$AAt?$AAr?$AAl?$AA?$CL?$AAC?$AA?$AA@
  00ae0	28 00 00 00 00	 call ?set@ShortcutKeyDisplayString@ToolStripMenuItem@Forms@Windows@System@@$$FQ$AAMXP$AAVString@5@@Z

; 397  : 			this->copyMenuItem->ShortcutKeys = static_cast<System::Windows::Forms::Keys>((System::Windows::Forms::Keys::Control | System::Windows::Forms::Keys::C));

  00ae5	02		 ldarg.0 	; this$
  00ae6	7b 00 00 00 00	 ldfld ?copyMenuItem@Form1@Mogitter@@3P$AAVToolStripMenuItem@Forms@Windows@System@@$AA
  00aeb	20 43 00 02 00	 ldc.i4 131139	; i32 0x20043
  00af0	28 00 00 00 00	 call ?set@ShortcutKeys@ToolStripMenuItem@Forms@Windows@System@@$$FQ$AAMXW4Keys@345@@Z

; 398  : 			this->copyMenuItem->Size = System::Drawing::Size(201, 22);

  00af5	12 44		 ldloca.s 68	; $S148$
  00af7	20 c9 00 00 00	 ldc.i4 201	; i32 0xc9
  00afc	1f 16		 ldc.i4.s 22	; i32 0x16
  00afe	28 00 00 00 00	 call ??0Size@Drawing@System@@$$FQ$CAM@HH@Z
  00b03	02		 ldarg.0 	; this$
  00b04	7b 00 00 00 00	 ldfld ?copyMenuItem@Form1@Mogitter@@3P$AAVToolStripMenuItem@Forms@Windows@System@@$AA
  00b09	11 44		 ldloc.s 68	; $S148$
  00b0b	6f 00 00 00 00	 callvirt ?set@Size@ToolStripItem@Forms@Windows@System@@$$FU$AAMXV1Drawing@5@@Z

; 399  : 			this->copyMenuItem->Text = L"コピー(&C)";

  00b10	02		 ldarg.0 	; this$
  00b11	7b 00 00 00 00	 ldfld ?copyMenuItem@Form1@Mogitter@@3P$AAVToolStripMenuItem@Forms@Windows@System@@$AA
  00b16	72 00 00 00 00	 ldstr $StringLiteralTok$??_C@_1BA@LPOLBHNP@0?$LD0?T0?$PM?$AA?$CI?$AA?$CG?$AAC?$AA?$CJ?$AA?$AA@
  00b1b	6f 00 00 00 00	 callvirt ?set@Text@ToolStripItem@Forms@Windows@System@@$$FU$AAMXP$AAVString@5@@Z

; 400  : 			this->copyMenuItem->Click += gcnew System::EventHandler(this, &Form1::copyMenuItem_Click);

  00b20	02		 ldarg.0 	; this$
  00b21	7b 00 00 00 00	 ldfld ?copyMenuItem@Form1@Mogitter@@3P$AAVToolStripMenuItem@Forms@Windows@System@@$AA
  00b26	02		 ldarg.0 	; this$
  00b27	fe 06 00 00 00
	00		 ldftn ?copyMenuItem_Click@Form1@Mogitter@@$$FA$AAMXP$AAVObject@System@@P$AAVEventArgs@4@@Z
  00b2d	73 00 00 00 00	 newobj ??0EventHandler@System@@$$FQ$AAM@P$AAVObject@1@VIntPtr@1@@Z
  00b32	28 00 00 00 00	 call ?add@Click@ToolStripItem@Forms@Windows@System@@$$FQ$AAMXP$AAVEventHandler@5@@Z

; 401  : 			// 
; 402  : 			// toolStripSeparator4
; 403  : 			// 
; 404  : 			this->toolStripSeparator4->Name = L"toolStripSeparator4";

  00b37	02		 ldarg.0 	; this$
  00b38	7b 00 00 00 00	 ldfld ?toolStripSeparator4@Form1@Mogitter@@3P$AAVToolStripSeparator@Forms@Windows@System@@$AA
  00b3d	72 00 00 00 00	 ldstr $StringLiteralTok$??_C@_1CI@MKNCIPFB@?$AAt?$AAo?$AAo?$AAl?$AAS?$AAt?$AAr?$AAi?$AAp?$AAS?$AAe?$AAp?$AAa?$AAr?$AAa?$AAt?$AAo?$AAr?$AA4?$AA?$AA@
  00b42	28 00 00 00 00	 call ?set@Name@ToolStripItem@Forms@Windows@System@@$$FQ$AAMXP$AAVString@5@@Z

; 405  : 			this->toolStripSeparator4->Size = System::Drawing::Size(198, 6);

  00b47	12 43		 ldloca.s 67	; $S149$
  00b49	20 c6 00 00 00	 ldc.i4 198	; i32 0xc6
  00b4e	1c		 ldc.i.6 6	; i32 0x6
  00b4f	28 00 00 00 00	 call ??0Size@Drawing@System@@$$FQ$CAM@HH@Z
  00b54	02		 ldarg.0 	; this$
  00b55	7b 00 00 00 00	 ldfld ?toolStripSeparator4@Form1@Mogitter@@3P$AAVToolStripSeparator@Forms@Windows@System@@$AA
  00b5a	11 43		 ldloc.s 67	; $S149$
  00b5c	6f 00 00 00 00	 callvirt ?set@Size@ToolStripItem@Forms@Windows@System@@$$FU$AAMXV1Drawing@5@@Z

; 406  : 			// 
; 407  : 			// all_selectMenuItem
; 408  : 			// 
; 409  : 			this->all_selectMenuItem->Name = L"all_selectMenuItem";

  00b61	02		 ldarg.0 	; this$
  00b62	7b 00 00 00 00	 ldfld ?all_selectMenuItem@Form1@Mogitter@@3P$AAVToolStripMenuItem@Forms@Windows@System@@$AA
  00b67	72 00 00 00 00	 ldstr $StringLiteralTok$??_C@_1CG@EFPPPJED@?$AAa?$AAl?$AAl?$AA_?$AAs?$AAe?$AAl?$AAe?$AAc?$AAt?$AAM?$AAe?$AAn?$AAu?$AAI?$AAt?$AAe?$AAm?$AA?$AA@
  00b6c	28 00 00 00 00	 call ?set@Name@ToolStripItem@Forms@Windows@System@@$$FQ$AAMXP$AAVString@5@@Z

; 410  : 			this->all_selectMenuItem->ShortcutKeys = static_cast<System::Windows::Forms::Keys>((System::Windows::Forms::Keys::Control | System::Windows::Forms::Keys::A));

  00b71	02		 ldarg.0 	; this$
  00b72	7b 00 00 00 00	 ldfld ?all_selectMenuItem@Form1@Mogitter@@3P$AAVToolStripMenuItem@Forms@Windows@System@@$AA
  00b77	20 41 00 02 00	 ldc.i4 131137	; i32 0x20041
  00b7c	28 00 00 00 00	 call ?set@ShortcutKeys@ToolStripMenuItem@Forms@Windows@System@@$$FQ$AAMXW4Keys@345@@Z

; 411  : 			this->all_selectMenuItem->Size = System::Drawing::Size(201, 22);

  00b81	12 42		 ldloca.s 66	; $S150$
  00b83	20 c9 00 00 00	 ldc.i4 201	; i32 0xc9
  00b88	1f 16		 ldc.i4.s 22	; i32 0x16
  00b8a	28 00 00 00 00	 call ??0Size@Drawing@System@@$$FQ$CAM@HH@Z
  00b8f	02		 ldarg.0 	; this$
  00b90	7b 00 00 00 00	 ldfld ?all_selectMenuItem@Form1@Mogitter@@3P$AAVToolStripMenuItem@Forms@Windows@System@@$AA
  00b95	11 42		 ldloc.s 66	; $S150$
  00b97	6f 00 00 00 00	 callvirt ?set@Size@ToolStripItem@Forms@Windows@System@@$$FU$AAMXV1Drawing@5@@Z

; 412  : 			this->all_selectMenuItem->Text = L"すべて選択(&A)";

  00b9c	02		 ldarg.0 	; this$
  00b9d	7b 00 00 00 00	 ldfld ?all_selectMenuItem@Form1@Mogitter@@3P$AAVToolStripMenuItem@Forms@Windows@System@@$AA
  00ba2	72 00 00 00 00	 ldstr $StringLiteralTok$??_C@_1BE@HMCAOMPG@0Y0y0f?$JAxb?$JO?$AA?$CI?$AA?$CG?$AAA?$AA?$CJ?$AA?$AA@
  00ba7	6f 00 00 00 00	 callvirt ?set@Text@ToolStripItem@Forms@Windows@System@@$$FU$AAMXP$AAVString@5@@Z

; 413  : 			this->all_selectMenuItem->Click += gcnew System::EventHandler(this, &Form1::all_selectMenuItem_Click);

  00bac	02		 ldarg.0 	; this$
  00bad	7b 00 00 00 00	 ldfld ?all_selectMenuItem@Form1@Mogitter@@3P$AAVToolStripMenuItem@Forms@Windows@System@@$AA
  00bb2	02		 ldarg.0 	; this$
  00bb3	fe 06 00 00 00
	00		 ldftn ?all_selectMenuItem_Click@Form1@Mogitter@@$$FA$AAMXP$AAVObject@System@@P$AAVEventArgs@4@@Z
  00bb9	73 00 00 00 00	 newobj ??0EventHandler@System@@$$FQ$AAM@P$AAVObject@1@VIntPtr@1@@Z
  00bbe	28 00 00 00 00	 call ?add@Click@ToolStripItem@Forms@Windows@System@@$$FQ$AAMXP$AAVEventHandler@5@@Z

; 414  : 			// 
; 415  : 			// ToolMenu
; 416  : 			// 
; 417  : 			this->ToolMenu->DropDownItems->AddRange(gcnew cli::array< System::Windows::Forms::ToolStripItem^  >(2) {this->mogi_makeMenuItem, 
; 418  : 				this->optionMenuItem});

  00bc3	18		 ldc.i.2 2	; i32 0x2
  00bc4	8d 00 00 00 00	 newarr $TypeTok$116E771C$
  00bc9	13 0a		 stloc.s 10	; $S151$
  00bcb	11 0a		 ldloc.s 10	; $S151$
  00bcd	16		 ldc.i.0 0	; i32 0x0
  00bce	02		 ldarg.0 	; this$
  00bcf	7b 00 00 00 00	 ldfld ?mogi_makeMenuItem@Form1@Mogitter@@3P$AAVToolStripMenuItem@Forms@Windows@System@@$AA
  00bd4	a2		 stelem.ref 
  00bd5	11 0a		 ldloc.s 10	; $S151$
  00bd7	17		 ldc.i.1 1	; i32 0x1
  00bd8	02		 ldarg.0 	; this$
  00bd9	7b 00 00 00 00	 ldfld ?optionMenuItem@Form1@Mogitter@@3P$AAVToolStripMenuItem@Forms@Windows@System@@$AA
  00bde	a2		 stelem.ref 
  00bdf	02		 ldarg.0 	; this$
  00be0	7b 00 00 00 00	 ldfld ?ToolMenu@Form1@Mogitter@@3P$AAVToolStripMenuItem@Forms@Windows@System@@$AA
  00be5	28 00 00 00 00	 call ?get@DropDownItems@ToolStripDropDownItem@Forms@Windows@System@@$$FQ$AAMP$AAVToolStripItemCollection@345@XZ
  00bea	11 0a		 ldloc.s 10	; $S151$
  00bec	28 00 00 00 00	 call ?AddRange@ToolStripItemCollection@Forms@Windows@System@@$$FQ$AAMXP$01AP$AAVToolStripItem@234@@Z

; 419  : 			this->ToolMenu->Name = L"ToolMenu";

  00bf1	02		 ldarg.0 	; this$
  00bf2	7b 00 00 00 00	 ldfld ?ToolMenu@Form1@Mogitter@@3P$AAVToolStripMenuItem@Forms@Windows@System@@$AA
  00bf7	72 00 00 00 00	 ldstr $StringLiteralTok$??_C@_1BC@NKIICHGM@?$AAT?$AAo?$AAo?$AAl?$AAM?$AAe?$AAn?$AAu?$AA?$AA@
  00bfc	28 00 00 00 00	 call ?set@Name@ToolStripItem@Forms@Windows@System@@$$FQ$AAMXP$AAVString@5@@Z

; 420  : 			this->ToolMenu->Size = System::Drawing::Size(74, 22);

  00c01	12 41		 ldloca.s 65	; $S152$
  00c03	1f 4a		 ldc.i4.s 74	; i32 0x4a
  00c05	1f 16		 ldc.i4.s 22	; i32 0x16
  00c07	28 00 00 00 00	 call ??0Size@Drawing@System@@$$FQ$CAM@HH@Z
  00c0c	02		 ldarg.0 	; this$
  00c0d	7b 00 00 00 00	 ldfld ?ToolMenu@Form1@Mogitter@@3P$AAVToolStripMenuItem@Forms@Windows@System@@$AA
  00c12	11 41		 ldloc.s 65	; $S152$
  00c14	6f 00 00 00 00	 callvirt ?set@Size@ToolStripItem@Forms@Windows@System@@$$FU$AAMXV1Drawing@5@@Z

; 421  : 			this->ToolMenu->Text = L"ツール(&T)";

  00c19	02		 ldarg.0 	; this$
  00c1a	7b 00 00 00 00	 ldfld ?ToolMenu@Form1@Mogitter@@3P$AAVToolStripMenuItem@Forms@Windows@System@@$AA
  00c1f	72 00 00 00 00	 ldstr $StringLiteralTok$??_C@_1BA@FBKAMAN@0?D0?$PM0?k?$AA?$CI?$AA?$CG?$AAT?$AA?$CJ?$AA?$AA@
  00c24	6f 00 00 00 00	 callvirt ?set@Text@ToolStripItem@Forms@Windows@System@@$$FU$AAMXP$AAVString@5@@Z

; 422  : 			// 
; 423  : 			// mogi_makeMenuItem
; 424  : 			// 
; 425  : 			this->mogi_makeMenuItem->Name = L"mogi_makeMenuItem";

  00c29	02		 ldarg.0 	; this$
  00c2a	7b 00 00 00 00	 ldfld ?mogi_makeMenuItem@Form1@Mogitter@@3P$AAVToolStripMenuItem@Forms@Windows@System@@$AA
  00c2f	72 00 00 00 00	 ldstr $StringLiteralTok$??_C@_1CE@KMPLKAJB@?$AAm?$AAo?$AAg?$AAi?$AA_?$AAm?$AAa?$AAk?$AAe?$AAM?$AAe?$AAn?$AAu?$AAI?$AAt?$AAe?$AAm?$AA?$AA@
  00c34	28 00 00 00 00	 call ?set@Name@ToolStripItem@Forms@Windows@System@@$$FQ$AAMXP$AAVString@5@@Z

; 426  : 			this->mogi_makeMenuItem->Size = System::Drawing::Size(179, 22);

  00c39	12 40		 ldloca.s 64	; $S153$
  00c3b	20 b3 00 00 00	 ldc.i4 179	; i32 0xb3
  00c40	1f 16		 ldc.i4.s 22	; i32 0x16
  00c42	28 00 00 00 00	 call ??0Size@Drawing@System@@$$FQ$CAM@HH@Z
  00c47	02		 ldarg.0 	; this$
  00c48	7b 00 00 00 00	 ldfld ?mogi_makeMenuItem@Form1@Mogitter@@3P$AAVToolStripMenuItem@Forms@Windows@System@@$AA
  00c4d	11 40		 ldloc.s 64	; $S153$
  00c4f	6f 00 00 00 00	 callvirt ?set@Size@ToolStripItem@Forms@Windows@System@@$$FU$AAMXV1Drawing@5@@Z

; 427  : 			this->mogi_makeMenuItem->Text = L"模擬テスト生成(&G)";

  00c54	02		 ldarg.0 	; this$
  00c55	7b 00 00 00 00	 ldfld ?mogi_makeMenuItem@Form1@Mogitter@@3P$AAVToolStripMenuItem@Forms@Windows@System@@$AA
  00c5a	72 00 00 00 00	 ldstr $StringLiteralTok$??_C@_1BI@FBMONBID@j?$CBd?l0?F0?$LJ0?Hu?$BPb?$BA?$AA?$CI?$AA?$CG?$AAG?$AA?$CJ?$AA?$AA@
  00c5f	6f 00 00 00 00	 callvirt ?set@Text@ToolStripItem@Forms@Windows@System@@$$FU$AAMXP$AAVString@5@@Z

; 428  : 			this->mogi_makeMenuItem->Click += gcnew System::EventHandler(this, &Form1::mogiMake_Click);

  00c64	02		 ldarg.0 	; this$
  00c65	7b 00 00 00 00	 ldfld ?mogi_makeMenuItem@Form1@Mogitter@@3P$AAVToolStripMenuItem@Forms@Windows@System@@$AA
  00c6a	02		 ldarg.0 	; this$
  00c6b	fe 06 00 00 00
	00		 ldftn ?mogiMake_Click@Form1@Mogitter@@$$FA$AAMXP$AAVObject@System@@P$AAVEventArgs@4@@Z
  00c71	73 00 00 00 00	 newobj ??0EventHandler@System@@$$FQ$AAM@P$AAVObject@1@VIntPtr@1@@Z
  00c76	28 00 00 00 00	 call ?add@Click@ToolStripItem@Forms@Windows@System@@$$FQ$AAMXP$AAVEventHandler@5@@Z

; 429  : 			// 
; 430  : 			// optionMenuItem
; 431  : 			// 
; 432  : 			this->optionMenuItem->Name = L"optionMenuItem";

  00c7b	02		 ldarg.0 	; this$
  00c7c	7b 00 00 00 00	 ldfld ?optionMenuItem@Form1@Mogitter@@3P$AAVToolStripMenuItem@Forms@Windows@System@@$AA
  00c81	72 00 00 00 00	 ldstr $StringLiteralTok$??_C@_1BO@JCEFJDC@?$AAo?$AAp?$AAt?$AAi?$AAo?$AAn?$AAM?$AAe?$AAn?$AAu?$AAI?$AAt?$AAe?$AAm?$AA?$AA@
  00c86	28 00 00 00 00	 call ?set@Name@ToolStripItem@Forms@Windows@System@@$$FQ$AAMXP$AAVString@5@@Z

; 433  : 			this->optionMenuItem->Size = System::Drawing::Size(179, 22);

  00c8b	12 3f		 ldloca.s 63	; $S154$
  00c8d	20 b3 00 00 00	 ldc.i4 179	; i32 0xb3
  00c92	1f 16		 ldc.i4.s 22	; i32 0x16
  00c94	28 00 00 00 00	 call ??0Size@Drawing@System@@$$FQ$CAM@HH@Z
  00c99	02		 ldarg.0 	; this$
  00c9a	7b 00 00 00 00	 ldfld ?optionMenuItem@Form1@Mogitter@@3P$AAVToolStripMenuItem@Forms@Windows@System@@$AA
  00c9f	11 3f		 ldloc.s 63	; $S154$
  00ca1	6f 00 00 00 00	 callvirt ?set@Size@ToolStripItem@Forms@Windows@System@@$$FU$AAMXV1Drawing@5@@Z

; 434  : 			this->optionMenuItem->Text = L"設定(&S)";

  00ca6	02		 ldarg.0 	; this$
  00ca7	7b 00 00 00 00	 ldfld ?optionMenuItem@Form1@Mogitter@@3P$AAVToolStripMenuItem@Forms@Windows@System@@$AA
  00cac	72 00 00 00 00	 ldstr $StringLiteralTok$??_C@_1O@CHCLEPIP@?$IK?9?$FL?$JK?$AA?$CI?$AA?$CG?$AAS?$AA?$CJ?$AA?$AA@
  00cb1	6f 00 00 00 00	 callvirt ?set@Text@ToolStripItem@Forms@Windows@System@@$$FU$AAMXP$AAVString@5@@Z

; 435  : 			// 
; 436  : 			// HelpMenu
; 437  : 			// 
; 438  : 			this->HelpMenu->DropDownItems->AddRange(gcnew cli::array< System::Windows::Forms::ToolStripItem^  >(1) {this->helpMenuItem});

  00cb6	17		 ldc.i.1 1	; i32 0x1
  00cb7	8d 00 00 00 00	 newarr $TypeTok$116E771C$
  00cbc	13 0b		 stloc.s 11	; $S155$
  00cbe	11 0b		 ldloc.s 11	; $S155$
  00cc0	16		 ldc.i.0 0	; i32 0x0
  00cc1	02		 ldarg.0 	; this$
  00cc2	7b 00 00 00 00	 ldfld ?helpMenuItem@Form1@Mogitter@@3P$AAVToolStripMenuItem@Forms@Windows@System@@$AA
  00cc7	a2		 stelem.ref 
  00cc8	02		 ldarg.0 	; this$
  00cc9	7b 00 00 00 00	 ldfld ?HelpMenu@Form1@Mogitter@@3P$AAVToolStripMenuItem@Forms@Windows@System@@$AA
  00cce	28 00 00 00 00	 call ?get@DropDownItems@ToolStripDropDownItem@Forms@Windows@System@@$$FQ$AAMP$AAVToolStripItemCollection@345@XZ
  00cd3	11 0b		 ldloc.s 11	; $S155$
  00cd5	28 00 00 00 00	 call ?AddRange@ToolStripItemCollection@Forms@Windows@System@@$$FQ$AAMXP$01AP$AAVToolStripItem@234@@Z

; 439  : 			this->HelpMenu->Name = L"HelpMenu";

  00cda	02		 ldarg.0 	; this$
  00cdb	7b 00 00 00 00	 ldfld ?HelpMenu@Form1@Mogitter@@3P$AAVToolStripMenuItem@Forms@Windows@System@@$AA
  00ce0	72 00 00 00 00	 ldstr $StringLiteralTok$??_C@_1BC@GJBCDNPE@?$AAH?$AAe?$AAl?$AAp?$AAM?$AAe?$AAn?$AAu?$AA?$AA@
  00ce5	28 00 00 00 00	 call ?set@Name@ToolStripItem@Forms@Windows@System@@$$FQ$AAMXP$AAVString@5@@Z

; 440  : 			this->HelpMenu->Size = System::Drawing::Size(75, 22);

  00cea	12 3e		 ldloca.s 62	; $S156$
  00cec	1f 4b		 ldc.i4.s 75	; i32 0x4b
  00cee	1f 16		 ldc.i4.s 22	; i32 0x16
  00cf0	28 00 00 00 00	 call ??0Size@Drawing@System@@$$FQ$CAM@HH@Z
  00cf5	02		 ldarg.0 	; this$
  00cf6	7b 00 00 00 00	 ldfld ?HelpMenu@Form1@Mogitter@@3P$AAVToolStripMenuItem@Forms@Windows@System@@$AA
  00cfb	11 3e		 ldloc.s 62	; $S156$
  00cfd	6f 00 00 00 00	 callvirt ?set@Size@ToolStripItem@Forms@Windows@System@@$$FU$AAMXV1Drawing@5@@Z

; 441  : 			this->HelpMenu->Text = L"ヘルプ(&H)";

  00d02	02		 ldarg.0 	; this$
  00d03	7b 00 00 00 00	 ldfld ?HelpMenu@Form1@Mogitter@@3P$AAVToolStripMenuItem@Forms@Windows@System@@$AA
  00d08	72 00 00 00 00	 ldstr $StringLiteralTok$??_C@_1BA@CCFHMOJC@0?X0?k0?W?$AA?$CI?$AA?$CG?$AAH?$AA?$CJ?$AA?$AA@
  00d0d	6f 00 00 00 00	 callvirt ?set@Text@ToolStripItem@Forms@Windows@System@@$$FU$AAMXP$AAVString@5@@Z

; 442  : 			// 
; 443  : 			// helpMenuItem
; 444  : 			// 
; 445  : 			this->helpMenuItem->Name = L"helpMenuItem";

  00d12	02		 ldarg.0 	; this$
  00d13	7b 00 00 00 00	 ldfld ?helpMenuItem@Form1@Mogitter@@3P$AAVToolStripMenuItem@Forms@Windows@System@@$AA
  00d18	72 00 00 00 00	 ldstr $StringLiteralTok$??_C@_1BK@DMLMNKAI@?$AAh?$AAe?$AAl?$AAp?$AAM?$AAe?$AAn?$AAu?$AAI?$AAt?$AAe?$AAm?$AA?$AA@
  00d1d	28 00 00 00 00	 call ?set@Name@ToolStripItem@Forms@Windows@System@@$$FQ$AAMXP$AAVString@5@@Z

; 446  : 			this->helpMenuItem->Size = System::Drawing::Size(118, 22);

  00d22	12 3d		 ldloca.s 61	; $S157$
  00d24	1f 76		 ldc.i4.s 118	; i32 0x76
  00d26	1f 16		 ldc.i4.s 22	; i32 0x16
  00d28	28 00 00 00 00	 call ??0Size@Drawing@System@@$$FQ$CAM@HH@Z
  00d2d	02		 ldarg.0 	; this$
  00d2e	7b 00 00 00 00	 ldfld ?helpMenuItem@Form1@Mogitter@@3P$AAVToolStripMenuItem@Forms@Windows@System@@$AA
  00d33	11 3d		 ldloc.s 61	; $S157$
  00d35	6f 00 00 00 00	 callvirt ?set@Size@ToolStripItem@Forms@Windows@System@@$$FU$AAMXV1Drawing@5@@Z

; 447  : 			this->helpMenuItem->Text = L"内容(&C)";

  00d3a	02		 ldarg.0 	; this$
  00d3b	7b 00 00 00 00	 ldfld ?helpMenuItem@Form1@Mogitter@@3P$AAVToolStripMenuItem@Forms@Windows@System@@$AA
  00d40	72 00 00 00 00	 ldstr $StringLiteralTok$??_C@_1O@HIDFGANF@Q?$IF?$FL?$LJ?$AA?$CI?$AA?$CG?$AAC?$AA?$CJ?$AA?$AA@
  00d45	6f 00 00 00 00	 callvirt ?set@Text@ToolStripItem@Forms@Windows@System@@$$FU$AAMXP$AAVString@5@@Z

; 448  : 			this->helpMenuItem->Click += gcnew System::EventHandler(this, &Form1::helpMenuItem_Click);

  00d4a	02		 ldarg.0 	; this$
  00d4b	7b 00 00 00 00	 ldfld ?helpMenuItem@Form1@Mogitter@@3P$AAVToolStripMenuItem@Forms@Windows@System@@$AA
  00d50	02		 ldarg.0 	; this$
  00d51	fe 06 00 00 00
	00		 ldftn ?helpMenuItem_Click@Form1@Mogitter@@$$FA$AAMXP$AAVObject@System@@P$AAVEventArgs@4@@Z
  00d57	73 00 00 00 00	 newobj ??0EventHandler@System@@$$FQ$AAM@P$AAVObject@1@VIntPtr@1@@Z
  00d5c	28 00 00 00 00	 call ?add@Click@ToolStripItem@Forms@Windows@System@@$$FQ$AAMXP$AAVEventHandler@5@@Z

; 449  : 			// 
; 450  : 			// onlyAnaume
; 451  : 			// 
; 452  : 			this->onlyAnaume->AutoSize = true;

  00d61	02		 ldarg.0 	; this$
  00d62	7b 00 00 00 00	 ldfld ?onlyAnaume@Form1@Mogitter@@3P$AAVCheckBox@Forms@Windows@System@@$AA
  00d67	17		 ldc.i.1 1	; u8 0x1
  00d68	6f 00 00 00 00	 callvirt ?set@AutoSize@ButtonBase@Forms@Windows@System@@$$FU$AAMX_N@Z

; 453  : 			this->onlyAnaume->Font = (gcnew System::Drawing::Font(L"メイリオ", 11.25F, System::Drawing::FontStyle::Regular, System::Drawing::GraphicsUnit::Point, 
; 454  : 				static_cast<System::Byte>(128)));

  00d6d	02		 ldarg.0 	; this$
  00d6e	7b 00 00 00 00	 ldfld ?onlyAnaume@Form1@Mogitter@@3P$AAVCheckBox@Forms@Windows@System@@$AA
  00d73	72 00 00 00 00	 ldstr $StringLiteralTok$??_C@_19HMEDOBKD@0?a0?$KE0?j0?$KK?$AA?$AA@
  00d78	22 00 00 34 41	 ldc.r4 11.250000
  00d7d	16		 ldc.i.0 0	; i32 0x0
  00d7e	19		 ldc.i.3 3	; i32 0x3
  00d7f	20 80 00 00 00	 ldc.i4 128	; u8 0x80
  00d84	73 00 00 00 00	 newobj ??0Font@Drawing@System@@$$FQ$AAM@P$AAVString@2@MW4FontStyle@12@W4GraphicsUnit@12@E@Z
  00d89	6f 00 00 00 00	 callvirt ?set@Font@Control@Forms@Windows@System@@$$FU$AAMXP$AAV1Drawing@5@@Z

; 455  : 			this->onlyAnaume->Location = System::Drawing::Point(12, 26);

  00d8e	12 3c		 ldloca.s 60	; $S158$
  00d90	1f 0c		 ldc.i4.s 12	; i32 0xc
  00d92	1f 1a		 ldc.i4.s 26	; i32 0x1a
  00d94	28 00 00 00 00	 call ??0Point@Drawing@System@@$$FQ$CAM@HH@Z
  00d99	02		 ldarg.0 	; this$
  00d9a	7b 00 00 00 00	 ldfld ?onlyAnaume@Form1@Mogitter@@3P$AAVCheckBox@Forms@Windows@System@@$AA
  00d9f	11 3c		 ldloc.s 60	; $S158$
  00da1	28 00 00 00 00	 call ?set@Location@Control@Forms@Windows@System@@$$FQ$AAMXVPoint@Drawing@5@@Z

; 456  : 			this->onlyAnaume->Name = L"onlyAnaume";

  00da6	02		 ldarg.0 	; this$
  00da7	7b 00 00 00 00	 ldfld ?onlyAnaume@Form1@Mogitter@@3P$AAVCheckBox@Forms@Windows@System@@$AA
  00dac	72 00 00 00 00	 ldstr $StringLiteralTok$??_C@_1BG@HJJMBCCC@?$AAo?$AAn?$AAl?$AAy?$AAA?$AAn?$AAa?$AAu?$AAm?$AAe?$AA?$AA@
  00db1	28 00 00 00 00	 call ?set@Name@Control@Forms@Windows@System@@$$FQ$AAMXP$AAVString@5@@Z

; 457  : 			this->onlyAnaume->Size = System::Drawing::Size(164, 27);

  00db6	12 3b		 ldloca.s 59	; $S159$
  00db8	20 a4 00 00 00	 ldc.i4 164	; i32 0xa4
  00dbd	1f 1b		 ldc.i4.s 27	; i32 0x1b
  00dbf	28 00 00 00 00	 call ??0Size@Drawing@System@@$$FQ$CAM@HH@Z
  00dc4	02		 ldarg.0 	; this$
  00dc5	7b 00 00 00 00	 ldfld ?onlyAnaume@Form1@Mogitter@@3P$AAVCheckBox@Forms@Windows@System@@$AA
  00dca	11 3b		 ldloc.s 59	; $S159$
  00dcc	28 00 00 00 00	 call ?set@Size@Control@Forms@Windows@System@@$$FQ$AAMXV1Drawing@5@@Z

; 458  : 			this->onlyAnaume->TabIndex = 12;

  00dd1	02		 ldarg.0 	; this$
  00dd2	7b 00 00 00 00	 ldfld ?onlyAnaume@Form1@Mogitter@@3P$AAVCheckBox@Forms@Windows@System@@$AA
  00dd7	1f 0c		 ldc.i4.s 12	; i32 0xc
  00dd9	28 00 00 00 00	 call ?set@TabIndex@Control@Forms@Windows@System@@$$FQ$AAMXH@Z

; 459  : 			this->onlyAnaume->Text = L"穴埋め問題のみ作成";

  00dde	02		 ldarg.0 	; this$
  00ddf	7b 00 00 00 00	 ldfld ?onlyAnaume@Form1@Mogitter@@3P$AAVCheckBox@Forms@Windows@System@@$AA
  00de4	72 00 00 00 00	 ldstr $StringLiteralTok$??_C@_1BE@BKMEGGBH@ztW?K0?$IBUO?$JIL0n0?$HPO?2b?$BA?$AA?$AA@
  00de9	6f 00 00 00 00	 callvirt ?set@Text@ButtonBase@Forms@Windows@System@@$$FU$AAMXP$AAVString@5@@Z

; 460  : 			this->onlyAnaume->TextAlign = System::Drawing::ContentAlignment::MiddleCenter;

  00dee	02		 ldarg.0 	; this$
  00def	7b 00 00 00 00	 ldfld ?onlyAnaume@Form1@Mogitter@@3P$AAVCheckBox@Forms@Windows@System@@$AA
  00df4	1f 20		 ldc.i4.s 32	; i32 0x20
  00df6	6f 00 00 00 00	 callvirt ?set@TextAlign@CheckBox@Forms@Windows@System@@$$FU$AAMXW4ContentAlignment@Drawing@5@@Z

; 461  : 			this->onlyAnaume->UseVisualStyleBackColor = true;

  00dfb	02		 ldarg.0 	; this$
  00dfc	7b 00 00 00 00	 ldfld ?onlyAnaume@Form1@Mogitter@@3P$AAVCheckBox@Forms@Windows@System@@$AA
  00e01	17		 ldc.i.1 1	; u8 0x1
  00e02	28 00 00 00 00	 call ?set@UseVisualStyleBackColor@ButtonBase@Forms@Windows@System@@$$FQ$AAMX_N@Z

; 462  : 			// 
; 463  : 			// makeKaitougun
; 464  : 			// 
; 465  : 			this->makeKaitougun->AutoSize = true;

  00e07	02		 ldarg.0 	; this$
  00e08	7b 00 00 00 00	 ldfld ?makeKaitougun@Form1@Mogitter@@3P$AAVCheckBox@Forms@Windows@System@@$AA
  00e0d	17		 ldc.i.1 1	; u8 0x1
  00e0e	6f 00 00 00 00	 callvirt ?set@AutoSize@ButtonBase@Forms@Windows@System@@$$FU$AAMX_N@Z

; 466  : 			this->makeKaitougun->Font = (gcnew System::Drawing::Font(L"メイリオ", 11.25F, System::Drawing::FontStyle::Regular, System::Drawing::GraphicsUnit::Point, 
; 467  : 				static_cast<System::Byte>(128)));

  00e13	02		 ldarg.0 	; this$
  00e14	7b 00 00 00 00	 ldfld ?makeKaitougun@Form1@Mogitter@@3P$AAVCheckBox@Forms@Windows@System@@$AA
  00e19	72 00 00 00 00	 ldstr $StringLiteralTok$??_C@_19HMEDOBKD@0?a0?$KE0?j0?$KK?$AA?$AA@
  00e1e	22 00 00 34 41	 ldc.r4 11.250000
  00e23	16		 ldc.i.0 0	; i32 0x0
  00e24	19		 ldc.i.3 3	; i32 0x3
  00e25	20 80 00 00 00	 ldc.i4 128	; u8 0x80
  00e2a	73 00 00 00 00	 newobj ??0Font@Drawing@System@@$$FQ$AAM@P$AAVString@2@MW4FontStyle@12@W4GraphicsUnit@12@E@Z
  00e2f	6f 00 00 00 00	 callvirt ?set@Font@Control@Forms@Windows@System@@$$FU$AAMXP$AAV1Drawing@5@@Z

; 468  : 			this->makeKaitougun->Location = System::Drawing::Point(12, 59);

  00e34	12 3a		 ldloca.s 58	; $S160$
  00e36	1f 0c		 ldc.i4.s 12	; i32 0xc
  00e38	1f 3b		 ldc.i4.s 59	; i32 0x3b
  00e3a	28 00 00 00 00	 call ??0Point@Drawing@System@@$$FQ$CAM@HH@Z
  00e3f	02		 ldarg.0 	; this$
  00e40	7b 00 00 00 00	 ldfld ?makeKaitougun@Form1@Mogitter@@3P$AAVCheckBox@Forms@Windows@System@@$AA
  00e45	11 3a		 ldloc.s 58	; $S160$
  00e47	28 00 00 00 00	 call ?set@Location@Control@Forms@Windows@System@@$$FQ$AAMXVPoint@Drawing@5@@Z

; 469  : 			this->makeKaitougun->Name = L"makeKaitougun";

  00e4c	02		 ldarg.0 	; this$
  00e4d	7b 00 00 00 00	 ldfld ?makeKaitougun@Form1@Mogitter@@3P$AAVCheckBox@Forms@Windows@System@@$AA
  00e52	72 00 00 00 00	 ldstr $StringLiteralTok$??_C@_1BM@NBKFNJHC@?$AAm?$AAa?$AAk?$AAe?$AAK?$AAa?$AAi?$AAt?$AAo?$AAu?$AAg?$AAu?$AAn?$AA?$AA@
  00e57	28 00 00 00 00	 call ?set@Name@Control@Forms@Windows@System@@$$FQ$AAMXP$AAVString@5@@Z

; 470  : 			this->makeKaitougun->Size = System::Drawing::Size(164, 29);

  00e5c	12 39		 ldloca.s 57	; $S161$
  00e5e	20 a4 00 00 00	 ldc.i4 164	; i32 0xa4
  00e63	1f 1d		 ldc.i4.s 29	; i32 0x1d
  00e65	28 00 00 00 00	 call ??0Size@Drawing@System@@$$FQ$CAM@HH@Z
  00e6a	02		 ldarg.0 	; this$
  00e6b	7b 00 00 00 00	 ldfld ?makeKaitougun@Form1@Mogitter@@3P$AAVCheckBox@Forms@Windows@System@@$AA
  00e70	11 39		 ldloc.s 57	; $S161$
  00e72	28 00 00 00 00	 call ?set@Size@Control@Forms@Windows@System@@$$FQ$AAMXV1Drawing@5@@Z

; 471  : 			this->makeKaitougun->TabIndex = 13;

  00e77	02		 ldarg.0 	; this$
  00e78	7b 00 00 00 00	 ldfld ?makeKaitougun@Form1@Mogitter@@3P$AAVCheckBox@Forms@Windows@System@@$AA
  00e7d	1f 0d		 ldc.i4.s 13	; i32 0xd
  00e7f	28 00 00 00 00	 call ?set@TabIndex@Control@Forms@Windows@System@@$$FQ$AAMXH@Z

; 472  : 			this->makeKaitougun->Text = L"解答群問題を作成　";

  00e84	02		 ldarg.0 	; this$
  00e85	7b 00 00 00 00	 ldfld ?makeKaitougun@Form1@Mogitter@@3P$AAVCheckBox@Forms@Windows@System@@$AA
  00e8a	72 00 00 00 00	 ldstr $StringLiteralTok$??_C@_1BE@BGGEKLBA@?$IJ?c?$HLT?$HP?$KEUO?$JIL0?$JCO?2b?$BA0?$AA?$AA?$AA@
  00e8f	6f 00 00 00 00	 callvirt ?set@Text@ButtonBase@Forms@Windows@System@@$$FU$AAMXP$AAVString@5@@Z

; 473  : 			this->makeKaitougun->TextAlign = System::Drawing::ContentAlignment::MiddleRight;

  00e94	02		 ldarg.0 	; this$
  00e95	7b 00 00 00 00	 ldfld ?makeKaitougun@Form1@Mogitter@@3P$AAVCheckBox@Forms@Windows@System@@$AA
  00e9a	1f 40		 ldc.i4.s 64	; i32 0x40
  00e9c	6f 00 00 00 00	 callvirt ?set@TextAlign@CheckBox@Forms@Windows@System@@$$FU$AAMXW4ContentAlignment@Drawing@5@@Z

; 474  : 			this->makeKaitougun->UseCompatibleTextRendering = true;

  00ea1	02		 ldarg.0 	; this$
  00ea2	7b 00 00 00 00	 ldfld ?makeKaitougun@Form1@Mogitter@@3P$AAVCheckBox@Forms@Windows@System@@$AA
  00ea7	17		 ldc.i.1 1	; u8 0x1
  00ea8	28 00 00 00 00	 call ?set@UseCompatibleTextRendering@ButtonBase@Forms@Windows@System@@$$FQ$AAMX_N@Z

; 475  : 			this->makeKaitougun->UseVisualStyleBackColor = true;

  00ead	02		 ldarg.0 	; this$
  00eae	7b 00 00 00 00	 ldfld ?makeKaitougun@Form1@Mogitter@@3P$AAVCheckBox@Forms@Windows@System@@$AA
  00eb3	17		 ldc.i.1 1	; u8 0x1
  00eb4	28 00 00 00 00	 call ?set@UseVisualStyleBackColor@ButtonBase@Forms@Windows@System@@$$FQ$AAMX_N@Z

; 476  : 			// 
; 477  : 			// sakuseiRB
; 478  : 			// 
; 479  : 			this->sakuseiRB->AutoSize = true;

  00eb9	02		 ldarg.0 	; this$
  00eba	7b 00 00 00 00	 ldfld ?sakuseiRB@Form1@Mogitter@@3P$AAVRadioButton@Forms@Windows@System@@$AA
  00ebf	17		 ldc.i.1 1	; u8 0x1
  00ec0	6f 00 00 00 00	 callvirt ?set@AutoSize@ButtonBase@Forms@Windows@System@@$$FU$AAMX_N@Z

; 480  : 			this->sakuseiRB->Checked = true;

  00ec5	02		 ldarg.0 	; this$
  00ec6	7b 00 00 00 00	 ldfld ?sakuseiRB@Form1@Mogitter@@3P$AAVRadioButton@Forms@Windows@System@@$AA
  00ecb	17		 ldc.i.1 1	; u8 0x1
  00ecc	28 00 00 00 00	 call ?set@Checked@RadioButton@Forms@Windows@System@@$$FQ$AAMX_N@Z

; 481  : 			this->sakuseiRB->Font = (gcnew System::Drawing::Font(L"メイリオ", 12, System::Drawing::FontStyle::Regular, System::Drawing::GraphicsUnit::Point, 
; 482  : 				static_cast<System::Byte>(128)));

  00ed1	02		 ldarg.0 	; this$
  00ed2	7b 00 00 00 00	 ldfld ?sakuseiRB@Form1@Mogitter@@3P$AAVRadioButton@Forms@Windows@System@@$AA
  00ed7	72 00 00 00 00	 ldstr $StringLiteralTok$??_C@_19HMEDOBKD@0?a0?$KE0?j0?$KK?$AA?$AA@
  00edc	22 00 00 40 41	 ldc.r4 12.000000
  00ee1	16		 ldc.i.0 0	; i32 0x0
  00ee2	19		 ldc.i.3 3	; i32 0x3
  00ee3	20 80 00 00 00	 ldc.i4 128	; u8 0x80
  00ee8	73 00 00 00 00	 newobj ??0Font@Drawing@System@@$$FQ$AAM@P$AAVString@2@MW4FontStyle@12@W4GraphicsUnit@12@E@Z
  00eed	6f 00 00 00 00	 callvirt ?set@Font@Control@Forms@Windows@System@@$$FU$AAMXP$AAV1Drawing@5@@Z

; 483  : 			this->sakuseiRB->Location = System::Drawing::Point(12, 26);

  00ef2	12 38		 ldloca.s 56	; $S162$
  00ef4	1f 0c		 ldc.i4.s 12	; i32 0xc
  00ef6	1f 1a		 ldc.i4.s 26	; i32 0x1a
  00ef8	28 00 00 00 00	 call ??0Point@Drawing@System@@$$FQ$CAM@HH@Z
  00efd	02		 ldarg.0 	; this$
  00efe	7b 00 00 00 00	 ldfld ?sakuseiRB@Form1@Mogitter@@3P$AAVRadioButton@Forms@Windows@System@@$AA
  00f03	11 38		 ldloc.s 56	; $S162$
  00f05	28 00 00 00 00	 call ?set@Location@Control@Forms@Windows@System@@$$FQ$AAMXVPoint@Drawing@5@@Z

; 484  : 			this->sakuseiRB->Name = L"sakuseiRB";

  00f0a	02		 ldarg.0 	; this$
  00f0b	7b 00 00 00 00	 ldfld ?sakuseiRB@Form1@Mogitter@@3P$AAVRadioButton@Forms@Windows@System@@$AA
  00f10	72 00 00 00 00	 ldstr $StringLiteralTok$??_C@_1BE@EOGLGJMJ@?$AAs?$AAa?$AAk?$AAu?$AAs?$AAe?$AAi?$AAR?$AAB?$AA?$AA@
  00f15	28 00 00 00 00	 call ?set@Name@Control@Forms@Windows@System@@$$FQ$AAMXP$AAVString@5@@Z

; 485  : 			this->sakuseiRB->Size = System::Drawing::Size(140, 28);

  00f1a	12 37		 ldloca.s 55	; $S163$
  00f1c	20 8c 00 00 00	 ldc.i4 140	; i32 0x8c
  00f21	1f 1c		 ldc.i4.s 28	; i32 0x1c
  00f23	28 00 00 00 00	 call ??0Size@Drawing@System@@$$FQ$CAM@HH@Z
  00f28	02		 ldarg.0 	; this$
  00f29	7b 00 00 00 00	 ldfld ?sakuseiRB@Form1@Mogitter@@3P$AAVRadioButton@Forms@Windows@System@@$AA
  00f2e	11 37		 ldloc.s 55	; $S163$
  00f30	28 00 00 00 00	 call ?set@Size@Control@Forms@Windows@System@@$$FQ$AAMXV1Drawing@5@@Z

; 486  : 			this->sakuseiRB->TabIndex = 14;

  00f35	02		 ldarg.0 	; this$
  00f36	7b 00 00 00 00	 ldfld ?sakuseiRB@Form1@Mogitter@@3P$AAVRadioButton@Forms@Windows@System@@$AA
  00f3b	1f 0e		 ldc.i4.s 14	; i32 0xe
  00f3d	28 00 00 00 00	 call ?set@TabIndex@Control@Forms@Windows@System@@$$FQ$AAMXH@Z

; 487  : 			this->sakuseiRB->TabStop = true;

  00f42	02		 ldarg.0 	; this$
  00f43	7b 00 00 00 00	 ldfld ?sakuseiRB@Form1@Mogitter@@3P$AAVRadioButton@Forms@Windows@System@@$AA
  00f48	17		 ldc.i.1 1	; u8 0x1
  00f49	28 00 00 00 00	 call ?set@TabStop@RadioButton@Forms@Windows@System@@$$FQ$AAMX_N@Z

; 488  : 			this->sakuseiRB->Text = L"問題を作成する";

  00f4e	02		 ldarg.0 	; this$
  00f4f	7b 00 00 00 00	 ldfld ?sakuseiRB@Form1@Mogitter@@3P$AAVRadioButton@Forms@Windows@System@@$AA
  00f54	72 00 00 00 00	 ldstr $StringLiteralTok$??_C@_1BA@NFGAONNE@UO?$JIL0?$JCO?2b?$BA0Y0?$IL?$AA?$AA@
  00f59	6f 00 00 00 00	 callvirt ?set@Text@ButtonBase@Forms@Windows@System@@$$FU$AAMXP$AAVString@5@@Z

; 489  : 			this->sakuseiRB->UseVisualStyleBackColor = true;

  00f5e	02		 ldarg.0 	; this$
  00f5f	7b 00 00 00 00	 ldfld ?sakuseiRB@Form1@Mogitter@@3P$AAVRadioButton@Forms@Windows@System@@$AA
  00f64	17		 ldc.i.1 1	; u8 0x1
  00f65	28 00 00 00 00	 call ?set@UseVisualStyleBackColor@ButtonBase@Forms@Windows@System@@$$FQ$AAMX_N@Z

; 490  : 			// 
; 491  : 			// deleteRB
; 492  : 			// 
; 493  : 			this->deleteRB->AutoSize = true;

  00f6a	02		 ldarg.0 	; this$
  00f6b	7b 00 00 00 00	 ldfld ?deleteRB@Form1@Mogitter@@3P$AAVRadioButton@Forms@Windows@System@@$AA
  00f70	17		 ldc.i.1 1	; u8 0x1
  00f71	6f 00 00 00 00	 callvirt ?set@AutoSize@ButtonBase@Forms@Windows@System@@$$FU$AAMX_N@Z

; 494  : 			this->deleteRB->Font = (gcnew System::Drawing::Font(L"メイリオ", 12, System::Drawing::FontStyle::Regular, System::Drawing::GraphicsUnit::Point, 
; 495  : 				static_cast<System::Byte>(128)));

  00f76	02		 ldarg.0 	; this$
  00f77	7b 00 00 00 00	 ldfld ?deleteRB@Form1@Mogitter@@3P$AAVRadioButton@Forms@Windows@System@@$AA
  00f7c	72 00 00 00 00	 ldstr $StringLiteralTok$??_C@_19HMEDOBKD@0?a0?$KE0?j0?$KK?$AA?$AA@
  00f81	22 00 00 40 41	 ldc.r4 12.000000
  00f86	16		 ldc.i.0 0	; i32 0x0
  00f87	19		 ldc.i.3 3	; i32 0x3
  00f88	20 80 00 00 00	 ldc.i4 128	; u8 0x80
  00f8d	73 00 00 00 00	 newobj ??0Font@Drawing@System@@$$FQ$AAM@P$AAVString@2@MW4FontStyle@12@W4GraphicsUnit@12@E@Z
  00f92	6f 00 00 00 00	 callvirt ?set@Font@Control@Forms@Windows@System@@$$FU$AAMXP$AAV1Drawing@5@@Z

; 496  : 			this->deleteRB->Location = System::Drawing::Point(12, 60);

  00f97	12 36		 ldloca.s 54	; $S164$
  00f99	1f 0c		 ldc.i4.s 12	; i32 0xc
  00f9b	1f 3c		 ldc.i4.s 60	; i32 0x3c
  00f9d	28 00 00 00 00	 call ??0Point@Drawing@System@@$$FQ$CAM@HH@Z
  00fa2	02		 ldarg.0 	; this$
  00fa3	7b 00 00 00 00	 ldfld ?deleteRB@Form1@Mogitter@@3P$AAVRadioButton@Forms@Windows@System@@$AA
  00fa8	11 36		 ldloc.s 54	; $S164$
  00faa	28 00 00 00 00	 call ?set@Location@Control@Forms@Windows@System@@$$FQ$AAMXVPoint@Drawing@5@@Z

; 497  : 			this->deleteRB->Name = L"deleteRB";

  00faf	02		 ldarg.0 	; this$
  00fb0	7b 00 00 00 00	 ldfld ?deleteRB@Form1@Mogitter@@3P$AAVRadioButton@Forms@Windows@System@@$AA
  00fb5	72 00 00 00 00	 ldstr $StringLiteralTok$??_C@_1BC@DGLEMIBO@?$AAd?$AAe?$AAl?$AAe?$AAt?$AAe?$AAR?$AAB?$AA?$AA@
  00fba	28 00 00 00 00	 call ?set@Name@Control@Forms@Windows@System@@$$FQ$AAMXP$AAVString@5@@Z

; 498  : 			this->deleteRB->Size = System::Drawing::Size(140, 28);

  00fbf	12 35		 ldloca.s 53	; $S165$
  00fc1	20 8c 00 00 00	 ldc.i4 140	; i32 0x8c
  00fc6	1f 1c		 ldc.i4.s 28	; i32 0x1c
  00fc8	28 00 00 00 00	 call ??0Size@Drawing@System@@$$FQ$CAM@HH@Z
  00fcd	02		 ldarg.0 	; this$
  00fce	7b 00 00 00 00	 ldfld ?deleteRB@Form1@Mogitter@@3P$AAVRadioButton@Forms@Windows@System@@$AA
  00fd3	11 35		 ldloc.s 53	; $S165$
  00fd5	28 00 00 00 00	 call ?set@Size@Control@Forms@Windows@System@@$$FQ$AAMXV1Drawing@5@@Z

; 499  : 			this->deleteRB->TabIndex = 15;

  00fda	02		 ldarg.0 	; this$
  00fdb	7b 00 00 00 00	 ldfld ?deleteRB@Form1@Mogitter@@3P$AAVRadioButton@Forms@Windows@System@@$AA
  00fe0	1f 0f		 ldc.i4.s 15	; i32 0xf
  00fe2	28 00 00 00 00	 call ?set@TabIndex@Control@Forms@Windows@System@@$$FQ$AAMXH@Z

; 500  : 			this->deleteRB->Text = L"問題を削除する";

  00fe7	02		 ldarg.0 	; this$
  00fe8	7b 00 00 00 00	 ldfld ?deleteRB@Form1@Mogitter@@3P$AAVRadioButton@Forms@Windows@System@@$AA
  00fed	72 00 00 00 00	 ldstr $StringLiteralTok$??_C@_1BA@BKHEDIPN@UO?$JIL0?$JCRJ?$JGd0Y0?$IL?$AA?$AA@
  00ff2	6f 00 00 00 00	 callvirt ?set@Text@ButtonBase@Forms@Windows@System@@$$FU$AAMXP$AAVString@5@@Z

; 501  : 			this->deleteRB->UseVisualStyleBackColor = true;

  00ff7	02		 ldarg.0 	; this$
  00ff8	7b 00 00 00 00	 ldfld ?deleteRB@Form1@Mogitter@@3P$AAVRadioButton@Forms@Windows@System@@$AA
  00ffd	17		 ldc.i.1 1	; u8 0x1
  00ffe	28 00 00 00 00	 call ?set@UseVisualStyleBackColor@ButtonBase@Forms@Windows@System@@$$FQ$AAMX_N@Z

; 502  : 			// 
; 503  : 			// makeOrDeleteBox
; 504  : 			// 
; 505  : 			this->makeOrDeleteBox->Controls->Add(this->deleteRB);

  01003	02		 ldarg.0 	; this$
  01004	7b 00 00 00 00	 ldfld ?makeOrDeleteBox@Form1@Mogitter@@3P$AAVGroupBox@Forms@Windows@System@@$AA
  01009	28 00 00 00 00	 call ?get@Controls@Control@Forms@Windows@System@@$$FQ$AAMP$AAVControlCollection@2345@XZ
  0100e	02		 ldarg.0 	; this$
  0100f	7b 00 00 00 00	 ldfld ?deleteRB@Form1@Mogitter@@3P$AAVRadioButton@Forms@Windows@System@@$AA
  01014	6f 00 00 00 00	 callvirt ?Add@ControlCollection@Control@Forms@Windows@System@@$$FU$AAMXP$AAV2345@@Z

; 506  : 			this->makeOrDeleteBox->Controls->Add(this->sakuseiRB);

  01019	02		 ldarg.0 	; this$
  0101a	7b 00 00 00 00	 ldfld ?makeOrDeleteBox@Form1@Mogitter@@3P$AAVGroupBox@Forms@Windows@System@@$AA
  0101f	28 00 00 00 00	 call ?get@Controls@Control@Forms@Windows@System@@$$FQ$AAMP$AAVControlCollection@2345@XZ
  01024	02		 ldarg.0 	; this$
  01025	7b 00 00 00 00	 ldfld ?sakuseiRB@Form1@Mogitter@@3P$AAVRadioButton@Forms@Windows@System@@$AA
  0102a	6f 00 00 00 00	 callvirt ?Add@ControlCollection@Control@Forms@Windows@System@@$$FU$AAMXP$AAV2345@@Z

; 507  : 			this->makeOrDeleteBox->Font = (gcnew System::Drawing::Font(L"メイリオ", 9.75F, System::Drawing::FontStyle::Regular, System::Drawing::GraphicsUnit::Point, 
; 508  : 				static_cast<System::Byte>(128)));

  0102f	02		 ldarg.0 	; this$
  01030	7b 00 00 00 00	 ldfld ?makeOrDeleteBox@Form1@Mogitter@@3P$AAVGroupBox@Forms@Windows@System@@$AA
  01035	72 00 00 00 00	 ldstr $StringLiteralTok$??_C@_19HMEDOBKD@0?a0?$KE0?j0?$KK?$AA?$AA@
  0103a	22 00 00 1c 41	 ldc.r4 9.750000
  0103f	16		 ldc.i.0 0	; i32 0x0
  01040	19		 ldc.i.3 3	; i32 0x3
  01041	20 80 00 00 00	 ldc.i4 128	; u8 0x80
  01046	73 00 00 00 00	 newobj ??0Font@Drawing@System@@$$FQ$AAM@P$AAVString@2@MW4FontStyle@12@W4GraphicsUnit@12@E@Z
  0104b	6f 00 00 00 00	 callvirt ?set@Font@Control@Forms@Windows@System@@$$FU$AAMXP$AAV1Drawing@5@@Z

; 509  : 			this->makeOrDeleteBox->Location = System::Drawing::Point(627, 85);

  01050	12 34		 ldloca.s 52	; $S166$
  01052	20 73 02 00 00	 ldc.i4 627	; i32 0x273
  01057	1f 55		 ldc.i4.s 85	; i32 0x55
  01059	28 00 00 00 00	 call ??0Point@Drawing@System@@$$FQ$CAM@HH@Z
  0105e	02		 ldarg.0 	; this$
  0105f	7b 00 00 00 00	 ldfld ?makeOrDeleteBox@Form1@Mogitter@@3P$AAVGroupBox@Forms@Windows@System@@$AA
  01064	11 34		 ldloc.s 52	; $S166$
  01066	28 00 00 00 00	 call ?set@Location@Control@Forms@Windows@System@@$$FQ$AAMXVPoint@Drawing@5@@Z

; 510  : 			this->makeOrDeleteBox->Name = L"makeOrDeleteBox";

  0106b	02		 ldarg.0 	; this$
  0106c	7b 00 00 00 00	 ldfld ?makeOrDeleteBox@Form1@Mogitter@@3P$AAVGroupBox@Forms@Windows@System@@$AA
  01071	72 00 00 00 00	 ldstr $StringLiteralTok$??_C@_1CA@BPLNHNNI@?$AAm?$AAa?$AAk?$AAe?$AAO?$AAr?$AAD?$AAe?$AAl?$AAe?$AAt?$AAe?$AAB?$AAo?$AAx?$AA?$AA@
  01076	28 00 00 00 00	 call ?set@Name@Control@Forms@Windows@System@@$$FQ$AAMXP$AAVString@5@@Z

; 511  : 			this->makeOrDeleteBox->Size = System::Drawing::Size(192, 99);

  0107b	12 33		 ldloca.s 51	; $S167$
  0107d	20 c0 00 00 00	 ldc.i4 192	; i32 0xc0
  01082	1f 63		 ldc.i4.s 99	; i32 0x63
  01084	28 00 00 00 00	 call ??0Size@Drawing@System@@$$FQ$CAM@HH@Z
  01089	02		 ldarg.0 	; this$
  0108a	7b 00 00 00 00	 ldfld ?makeOrDeleteBox@Form1@Mogitter@@3P$AAVGroupBox@Forms@Windows@System@@$AA
  0108f	11 33		 ldloc.s 51	; $S167$
  01091	28 00 00 00 00	 call ?set@Size@Control@Forms@Windows@System@@$$FQ$AAMXV1Drawing@5@@Z

; 512  : 			this->makeOrDeleteBox->TabIndex = 14;

  01096	02		 ldarg.0 	; this$
  01097	7b 00 00 00 00	 ldfld ?makeOrDeleteBox@Form1@Mogitter@@3P$AAVGroupBox@Forms@Windows@System@@$AA
  0109c	1f 0e		 ldc.i4.s 14	; i32 0xe
  0109e	28 00 00 00 00	 call ?set@TabIndex@Control@Forms@Windows@System@@$$FQ$AAMXH@Z

; 513  : 			this->makeOrDeleteBox->TabStop = false;

  010a3	02		 ldarg.0 	; this$
  010a4	7b 00 00 00 00	 ldfld ?makeOrDeleteBox@Form1@Mogitter@@3P$AAVGroupBox@Forms@Windows@System@@$AA
  010a9	16		 ldc.i.0 0	; u8 0x0
  010aa	28 00 00 00 00	 call ?set@TabStop@GroupBox@Forms@Windows@System@@$$FQ$AAMX_N@Z

; 514  : 			this->makeOrDeleteBox->Text = L"作成/削除";

  010af	02		 ldarg.0 	; this$
  010b0	7b 00 00 00 00	 ldfld ?makeOrDeleteBox@Form1@Mogitter@@3P$AAVGroupBox@Forms@Windows@System@@$AA
  010b5	72 00 00 00 00	 ldstr $StringLiteralTok$??_C@_1M@CMEMIKLD@O?2b?$BA?$AA?1RJ?$JGd?$AA?$AA@
  010ba	6f 00 00 00 00	 callvirt ?set@Text@GroupBox@Forms@Windows@System@@$$FU$AAMXP$AAVString@5@@Z

; 515  : 			// 
; 516  : 			// kindSetBox
; 517  : 			// 
; 518  : 			this->kindSetBox->Controls->Add(this->makeKaitougun);

  010bf	02		 ldarg.0 	; this$
  010c0	7b 00 00 00 00	 ldfld ?kindSetBox@Form1@Mogitter@@3P$AAVGroupBox@Forms@Windows@System@@$AA
  010c5	28 00 00 00 00	 call ?get@Controls@Control@Forms@Windows@System@@$$FQ$AAMP$AAVControlCollection@2345@XZ
  010ca	02		 ldarg.0 	; this$
  010cb	7b 00 00 00 00	 ldfld ?makeKaitougun@Form1@Mogitter@@3P$AAVCheckBox@Forms@Windows@System@@$AA
  010d0	6f 00 00 00 00	 callvirt ?Add@ControlCollection@Control@Forms@Windows@System@@$$FU$AAMXP$AAV2345@@Z

; 519  : 			this->kindSetBox->Controls->Add(this->onlyAnaume);

  010d5	02		 ldarg.0 	; this$
  010d6	7b 00 00 00 00	 ldfld ?kindSetBox@Form1@Mogitter@@3P$AAVGroupBox@Forms@Windows@System@@$AA
  010db	28 00 00 00 00	 call ?get@Controls@Control@Forms@Windows@System@@$$FQ$AAMP$AAVControlCollection@2345@XZ
  010e0	02		 ldarg.0 	; this$
  010e1	7b 00 00 00 00	 ldfld ?onlyAnaume@Form1@Mogitter@@3P$AAVCheckBox@Forms@Windows@System@@$AA
  010e6	6f 00 00 00 00	 callvirt ?Add@ControlCollection@Control@Forms@Windows@System@@$$FU$AAMXP$AAV2345@@Z

; 520  : 			this->kindSetBox->Font = (gcnew System::Drawing::Font(L"メイリオ", 9.75F, System::Drawing::FontStyle::Regular, System::Drawing::GraphicsUnit::Point, 
; 521  : 				static_cast<System::Byte>(128)));

  010eb	02		 ldarg.0 	; this$
  010ec	7b 00 00 00 00	 ldfld ?kindSetBox@Form1@Mogitter@@3P$AAVGroupBox@Forms@Windows@System@@$AA
  010f1	72 00 00 00 00	 ldstr $StringLiteralTok$??_C@_19HMEDOBKD@0?a0?$KE0?j0?$KK?$AA?$AA@
  010f6	22 00 00 1c 41	 ldc.r4 9.750000
  010fb	16		 ldc.i.0 0	; i32 0x0
  010fc	19		 ldc.i.3 3	; i32 0x3
  010fd	20 80 00 00 00	 ldc.i4 128	; u8 0x80
  01102	73 00 00 00 00	 newobj ??0Font@Drawing@System@@$$FQ$AAM@P$AAVString@2@MW4FontStyle@12@W4GraphicsUnit@12@E@Z
  01107	6f 00 00 00 00	 callvirt ?set@Font@Control@Forms@Windows@System@@$$FU$AAMXP$AAV1Drawing@5@@Z

; 522  : 			this->kindSetBox->Location = System::Drawing::Point(627, 191);

  0110c	12 32		 ldloca.s 50	; $S168$
  0110e	20 73 02 00 00	 ldc.i4 627	; i32 0x273
  01113	20 bf 00 00 00	 ldc.i4 191	; i32 0xbf
  01118	28 00 00 00 00	 call ??0Point@Drawing@System@@$$FQ$CAM@HH@Z
  0111d	02		 ldarg.0 	; this$
  0111e	7b 00 00 00 00	 ldfld ?kindSetBox@Form1@Mogitter@@3P$AAVGroupBox@Forms@Windows@System@@$AA
  01123	11 32		 ldloc.s 50	; $S168$
  01125	28 00 00 00 00	 call ?set@Location@Control@Forms@Windows@System@@$$FQ$AAMXVPoint@Drawing@5@@Z

; 523  : 			this->kindSetBox->Name = L"kindSetBox";

  0112a	02		 ldarg.0 	; this$
  0112b	7b 00 00 00 00	 ldfld ?kindSetBox@Form1@Mogitter@@3P$AAVGroupBox@Forms@Windows@System@@$AA
  01130	72 00 00 00 00	 ldstr $StringLiteralTok$??_C@_1BG@HJLKFCLL@?$AAk?$AAi?$AAn?$AAd?$AAS?$AAe?$AAt?$AAB?$AAo?$AAx?$AA?$AA@
  01135	28 00 00 00 00	 call ?set@Name@Control@Forms@Windows@System@@$$FQ$AAMXP$AAVString@5@@Z

; 524  : 			this->kindSetBox->Size = System::Drawing::Size(192, 100);

  0113a	12 31		 ldloca.s 49	; $S169$
  0113c	20 c0 00 00 00	 ldc.i4 192	; i32 0xc0
  01141	1f 64		 ldc.i4.s 100	; i32 0x64
  01143	28 00 00 00 00	 call ??0Size@Drawing@System@@$$FQ$CAM@HH@Z
  01148	02		 ldarg.0 	; this$
  01149	7b 00 00 00 00	 ldfld ?kindSetBox@Form1@Mogitter@@3P$AAVGroupBox@Forms@Windows@System@@$AA
  0114e	11 31		 ldloc.s 49	; $S169$
  01150	28 00 00 00 00	 call ?set@Size@Control@Forms@Windows@System@@$$FQ$AAMXV1Drawing@5@@Z

; 525  : 			this->kindSetBox->TabIndex = 15;

  01155	02		 ldarg.0 	; this$
  01156	7b 00 00 00 00	 ldfld ?kindSetBox@Form1@Mogitter@@3P$AAVGroupBox@Forms@Windows@System@@$AA
  0115b	1f 0f		 ldc.i4.s 15	; i32 0xf
  0115d	28 00 00 00 00	 call ?set@TabIndex@Control@Forms@Windows@System@@$$FQ$AAMXH@Z

; 526  : 			this->kindSetBox->TabStop = false;

  01162	02		 ldarg.0 	; this$
  01163	7b 00 00 00 00	 ldfld ?kindSetBox@Form1@Mogitter@@3P$AAVGroupBox@Forms@Windows@System@@$AA
  01168	16		 ldc.i.0 0	; u8 0x0
  01169	28 00 00 00 00	 call ?set@TabStop@GroupBox@Forms@Windows@System@@$$FQ$AAMX_N@Z

; 527  : 			this->kindSetBox->Text = L"問題の種類指定";

  0116e	02		 ldarg.0 	; this$
  0116f	7b 00 00 00 00	 ldfld ?kindSetBox@Form1@Mogitter@@3P$AAVGroupBox@Forms@Windows@System@@$AA
  01174	72 00 00 00 00	 ldstr $StringLiteralTok$??_C@_1BA@BLPEODJG@UO?$JIL0nz?4?$JI?$FOc?$AH?$FL?$JK?$AA?$AA@
  01179	6f 00 00 00 00	 callvirt ?set@Text@GroupBox@Forms@Windows@System@@$$FU$AAMXP$AAVString@5@@Z

; 528  : 			// 
; 529  : 			// saveButton
; 530  : 			// 
; 531  : 			this->saveButton->Font = (gcnew System::Drawing::Font(L"メイリオ", 14.25F, System::Drawing::FontStyle::Regular, System::Drawing::GraphicsUnit::Point, 
; 532  : 				static_cast<System::Byte>(128)));

  0117e	02		 ldarg.0 	; this$
  0117f	7b 00 00 00 00	 ldfld ?saveButton@Form1@Mogitter@@3P$AAVButton@Forms@Windows@System@@$AA
  01184	72 00 00 00 00	 ldstr $StringLiteralTok$??_C@_19HMEDOBKD@0?a0?$KE0?j0?$KK?$AA?$AA@
  01189	22 00 00 64 41	 ldc.r4 14.250000
  0118e	16		 ldc.i.0 0	; i32 0x0
  0118f	19		 ldc.i.3 3	; i32 0x3
  01190	20 80 00 00 00	 ldc.i4 128	; u8 0x80
  01195	73 00 00 00 00	 newobj ??0Font@Drawing@System@@$$FQ$AAM@P$AAVString@2@MW4FontStyle@12@W4GraphicsUnit@12@E@Z
  0119a	6f 00 00 00 00	 callvirt ?set@Font@Control@Forms@Windows@System@@$$FU$AAMXP$AAV1Drawing@5@@Z

; 533  : 			this->saveButton->Image = (cli::safe_cast<System::Drawing::Image^  >(resources->GetObject(L"saveButton.Image")));

  0119f	02		 ldarg.0 	; this$
  011a0	7b 00 00 00 00	 ldfld ?saveButton@Form1@Mogitter@@3P$AAVButton@Forms@Windows@System@@$AA
  011a5	08		 ldloc.2 	; resources$
  011a6	72 00 00 00 00	 ldstr $StringLiteralTok$??_C@_1CC@ODHLIODF@?$AAs?$AAa?$AAv?$AAe?$AAB?$AAu?$AAt?$AAt?$AAo?$AAn?$AA?4?$AAI?$AAm?$AAa?$AAg?$AAe?$AA?$AA@
  011ab	6f 00 00 00 00	 callvirt ?GetObject@ResourceManager@Resources@System@@$$FU$AAMP$AAVObject@3@P$AAVString@3@@Z
  011b0	74 00 00 00 00	 castClass $TypeTok$112E73C0$
  011b5	28 00 00 00 00	 call ?set@Image@ButtonBase@Forms@Windows@System@@$$FQ$AAMXP$AAV1Drawing@5@@Z

; 534  : 			this->saveButton->ImageAlign = System::Drawing::ContentAlignment::MiddleRight;

  011ba	02		 ldarg.0 	; this$
  011bb	7b 00 00 00 00	 ldfld ?saveButton@Form1@Mogitter@@3P$AAVButton@Forms@Windows@System@@$AA
  011c0	1f 40		 ldc.i4.s 64	; i32 0x40
  011c2	28 00 00 00 00	 call ?set@ImageAlign@ButtonBase@Forms@Windows@System@@$$FQ$AAMXW4ContentAlignment@Drawing@5@@Z

; 535  : 			this->saveButton->Location = System::Drawing::Point(728, 32);

  011c7	12 30		 ldloca.s 48	; $S170$
  011c9	20 d8 02 00 00	 ldc.i4 728	; i32 0x2d8
  011ce	1f 20		 ldc.i4.s 32	; i32 0x20
  011d0	28 00 00 00 00	 call ??0Point@Drawing@System@@$$FQ$CAM@HH@Z
  011d5	02		 ldarg.0 	; this$
  011d6	7b 00 00 00 00	 ldfld ?saveButton@Form1@Mogitter@@3P$AAVButton@Forms@Windows@System@@$AA
  011db	11 30		 ldloc.s 48	; $S170$
  011dd	28 00 00 00 00	 call ?set@Location@Control@Forms@Windows@System@@$$FQ$AAMXVPoint@Drawing@5@@Z

; 536  : 			this->saveButton->Name = L"saveButton";

  011e2	02		 ldarg.0 	; this$
  011e3	7b 00 00 00 00	 ldfld ?saveButton@Form1@Mogitter@@3P$AAVButton@Forms@Windows@System@@$AA
  011e8	72 00 00 00 00	 ldstr $StringLiteralTok$??_C@_1BG@KCDKOJJC@?$AAs?$AAa?$AAv?$AAe?$AAB?$AAu?$AAt?$AAt?$AAo?$AAn?$AA?$AA@
  011ed	28 00 00 00 00	 call ?set@Name@Control@Forms@Windows@System@@$$FQ$AAMXP$AAVString@5@@Z

; 537  : 			this->saveButton->Size = System::Drawing::Size(91, 45);

  011f2	12 2f		 ldloca.s 47	; $S171$
  011f4	1f 5b		 ldc.i4.s 91	; i32 0x5b
  011f6	1f 2d		 ldc.i4.s 45	; i32 0x2d
  011f8	28 00 00 00 00	 call ??0Size@Drawing@System@@$$FQ$CAM@HH@Z
  011fd	02		 ldarg.0 	; this$
  011fe	7b 00 00 00 00	 ldfld ?saveButton@Form1@Mogitter@@3P$AAVButton@Forms@Windows@System@@$AA
  01203	11 2f		 ldloc.s 47	; $S171$
  01205	28 00 00 00 00	 call ?set@Size@Control@Forms@Windows@System@@$$FQ$AAMXV1Drawing@5@@Z

; 538  : 			this->saveButton->TabIndex = 16;

  0120a	02		 ldarg.0 	; this$
  0120b	7b 00 00 00 00	 ldfld ?saveButton@Form1@Mogitter@@3P$AAVButton@Forms@Windows@System@@$AA
  01210	1f 10		 ldc.i4.s 16	; i32 0x10
  01212	28 00 00 00 00	 call ?set@TabIndex@Control@Forms@Windows@System@@$$FQ$AAMXH@Z

; 539  : 			this->saveButton->Text = L"保存";

  01217	02		 ldarg.0 	; this$
  01218	7b 00 00 00 00	 ldfld ?saveButton@Form1@Mogitter@@3P$AAVButton@Forms@Windows@System@@$AA
  0121d	72 00 00 00 00	 ldstr $StringLiteralTok$??_C@_15FEGOHICJ@O?$NN?$FLX?$AA?$AA@
  01222	6f 00 00 00 00	 callvirt ?set@Text@ButtonBase@Forms@Windows@System@@$$FU$AAMXP$AAVString@5@@Z

; 540  : 			this->saveButton->TextAlign = System::Drawing::ContentAlignment::MiddleLeft;

  01227	02		 ldarg.0 	; this$
  01228	7b 00 00 00 00	 ldfld ?saveButton@Form1@Mogitter@@3P$AAVButton@Forms@Windows@System@@$AA
  0122d	1f 10		 ldc.i4.s 16	; i32 0x10
  0122f	6f 00 00 00 00	 callvirt ?set@TextAlign@ButtonBase@Forms@Windows@System@@$$FU$AAMXW4ContentAlignment@Drawing@5@@Z

; 541  : 			this->saveButton->UseVisualStyleBackColor = true;

  01234	02		 ldarg.0 	; this$
  01235	7b 00 00 00 00	 ldfld ?saveButton@Form1@Mogitter@@3P$AAVButton@Forms@Windows@System@@$AA
  0123a	17		 ldc.i.1 1	; u8 0x1
  0123b	28 00 00 00 00	 call ?set@UseVisualStyleBackColor@ButtonBase@Forms@Windows@System@@$$FQ$AAMX_N@Z

; 542  : 			this->saveButton->Click += gcnew System::EventHandler(this, &Form1::saveButton_Click);

  01240	02		 ldarg.0 	; this$
  01241	7b 00 00 00 00	 ldfld ?saveButton@Form1@Mogitter@@3P$AAVButton@Forms@Windows@System@@$AA
  01246	02		 ldarg.0 	; this$
  01247	fe 06 00 00 00
	00		 ldftn ?saveButton_Click@Form1@Mogitter@@$$FA$AAMXP$AAVObject@System@@P$AAVEventArgs@4@@Z
  0124d	73 00 00 00 00	 newobj ??0EventHandler@System@@$$FQ$AAM@P$AAVObject@1@VIntPtr@1@@Z
  01252	28 00 00 00 00	 call ?add@Click@Control@Forms@Windows@System@@$$FQ$AAMXP$AAVEventHandler@5@@Z

; 543  : 			// 
; 544  : 			// azukiArea
; 545  : 			// 
; 546  : 			this->azukiArea->BackColor = System::Drawing::Color::SeaShell;

  01257	28 00 00 00 00	 call ?get@SeaShell@Color@Drawing@System@@$$FSM?AV234@XZ
  0125c	13 2e		 stloc.s 46	; $T5
  0125e	02		 ldarg.0 	; this$
  0125f	7b 00 00 00 00	 ldfld ?azukiArea@Form1@Mogitter@@3P$AAVAzukiControl@WinForms@Azuki@Sgry@@$AA
  01264	11 2e		 ldloc.s 46	; $T5
  01266	6f 00 00 00 00	 callvirt ?set@BackColor@AzukiControl@WinForms@Azuki@Sgry@@$$FU$AAMXVColor@Drawing@System@@@Z

; 547  : 			this->azukiArea->Cursor = System::Windows::Forms::Cursors::IBeam;

  0126b	02		 ldarg.0 	; this$
  0126c	7b 00 00 00 00	 ldfld ?azukiArea@Form1@Mogitter@@3P$AAVAzukiControl@WinForms@Azuki@Sgry@@$AA
  01271	28 00 00 00 00	 call ?get@IBeam@Cursors@Forms@Windows@System@@$$FSMP$AAVCursor@345@XZ
  01276	6f 00 00 00 00	 callvirt ?set@Cursor@Control@Forms@Windows@System@@$$FU$AAMXP$AAV1345@@Z

; 548  : 			this->azukiArea->DrawingOption = static_cast<Sgry::Azuki::DrawingOption>((((Sgry::Azuki::DrawingOption::DrawsSpace | Sgry::Azuki::DrawingOption::DrawsFullWidthSpace) 
; 549  : 				| Sgry::Azuki::DrawingOption::DrawsTab) 
; 550  : 				| Sgry::Azuki::DrawingOption::ShowsLineNumber));

  0127b	02		 ldarg.0 	; this$
  0127c	7b 00 00 00 00	 ldfld ?azukiArea@Form1@Mogitter@@3P$AAVAzukiControl@WinForms@Azuki@Sgry@@$AA
  01281	1f 27		 ldc.i4.s 39	; i32 0x27
  01283	6f 00 00 00 00	 callvirt ?set@DrawingOption@AzukiControl@WinForms@Azuki@Sgry@@$$FU$AAMXW4145@@Z

; 551  : 			this->azukiArea->DrawsEolCode = false;

  01288	02		 ldarg.0 	; this$
  01289	7b 00 00 00 00	 ldfld ?azukiArea@Form1@Mogitter@@3P$AAVAzukiControl@WinForms@Azuki@Sgry@@$AA
  0128e	16		 ldc.i.0 0	; u8 0x0
  0128f	6f 00 00 00 00	 callvirt ?set@DrawsEolCode@AzukiControl@WinForms@Azuki@Sgry@@$$FU$AAMX_N@Z

; 552  : 			this->azukiArea->DrawsSpace = true;

  01294	02		 ldarg.0 	; this$
  01295	7b 00 00 00 00	 ldfld ?azukiArea@Form1@Mogitter@@3P$AAVAzukiControl@WinForms@Azuki@Sgry@@$AA
  0129a	17		 ldc.i.1 1	; u8 0x1
  0129b	6f 00 00 00 00	 callvirt ?set@DrawsSpace@AzukiControl@WinForms@Azuki@Sgry@@$$FU$AAMX_N@Z

; 553  : 			this->azukiArea->FirstVisibleLine = 0;

  012a0	02		 ldarg.0 	; this$
  012a1	7b 00 00 00 00	 ldfld ?azukiArea@Form1@Mogitter@@3P$AAVAzukiControl@WinForms@Azuki@Sgry@@$AA
  012a6	16		 ldc.i.0 0	; i32 0x0
  012a7	28 00 00 00 00	 call ?set@FirstVisibleLine@AzukiControl@WinForms@Azuki@Sgry@@$$FQ$AAMXH@Z

; 554  : 			this->azukiArea->Font = (gcnew System::Drawing::Font(L"メイリオ", 12));

  012ac	02		 ldarg.0 	; this$
  012ad	7b 00 00 00 00	 ldfld ?azukiArea@Form1@Mogitter@@3P$AAVAzukiControl@WinForms@Azuki@Sgry@@$AA
  012b2	72 00 00 00 00	 ldstr $StringLiteralTok$??_C@_19HMEDOBKD@0?a0?$KE0?j0?$KK?$AA?$AA@
  012b7	22 00 00 40 41	 ldc.r4 12.000000
  012bc	73 00 00 00 00	 newobj ??0Font@Drawing@System@@$$FQ$AAM@P$AAVString@2@M@Z
  012c1	6f 00 00 00 00	 callvirt ?set@Font@AzukiControl@WinForms@Azuki@Sgry@@$$FU$AAMXP$AAV1Drawing@System@@@Z

; 555  : 			fontInfo1->Name = L"メイリオ";

  012c6	11 07		 ldloc.s 7	; fontInfo1$
  012c8	72 00 00 00 00	 ldstr $StringLiteralTok$??_C@_19HMEDOBKD@0?a0?$KE0?j0?$KK?$AA?$AA@
  012cd	28 00 00 00 00	 call ?set@Name@FontInfo@Azuki@Sgry@@$$FQ$AAMXP$AAVString@System@@@Z

; 556  : 			fontInfo1->Size = 12;

  012d2	11 07		 ldloc.s 7	; fontInfo1$
  012d4	1f 0c		 ldc.i4.s 12	; i32 0xc
  012d6	28 00 00 00 00	 call ?set@Size@FontInfo@Azuki@Sgry@@$$FQ$AAMXH@Z

; 557  : 			fontInfo1->Style = System::Drawing::FontStyle::Regular;

  012db	11 07		 ldloc.s 7	; fontInfo1$
  012dd	16		 ldc.i.0 0	; i32 0x0
  012de	28 00 00 00 00	 call ?set@Style@FontInfo@Azuki@Sgry@@$$FQ$AAMXW4FontStyle@Drawing@System@@@Z

; 558  : 			this->azukiArea->FontInfo = fontInfo1;

  012e3	02		 ldarg.0 	; this$
  012e4	7b 00 00 00 00	 ldfld ?azukiArea@Form1@Mogitter@@3P$AAVAzukiControl@WinForms@Azuki@Sgry@@$AA
  012e9	11 07		 ldloc.s 7	; fontInfo1$
  012eb	6f 00 00 00 00	 callvirt ?set@FontInfo@AzukiControl@WinForms@Azuki@Sgry@@$$FU$AAMXP$AAV145@@Z

; 559  : 			this->azukiArea->ForeColor = System::Drawing::Color::Black;

  012f0	28 00 00 00 00	 call ?get@Black@Color@Drawing@System@@$$FSM?AV234@XZ
  012f5	13 2d		 stloc.s 45	; $T6
  012f7	02		 ldarg.0 	; this$
  012f8	7b 00 00 00 00	 ldfld ?azukiArea@Form1@Mogitter@@3P$AAVAzukiControl@WinForms@Azuki@Sgry@@$AA
  012fd	11 2d		 ldloc.s 45	; $T6
  012ff	6f 00 00 00 00	 callvirt ?set@ForeColor@AzukiControl@WinForms@Azuki@Sgry@@$$FU$AAMXVColor@Drawing@System@@@Z

; 560  : 			this->azukiArea->HighlightsCurrentLine = false;

  01304	02		 ldarg.0 	; this$
  01305	7b 00 00 00 00	 ldfld ?azukiArea@Form1@Mogitter@@3P$AAVAzukiControl@WinForms@Azuki@Sgry@@$AA
  0130a	16		 ldc.i.0 0	; u8 0x0
  0130b	6f 00 00 00 00	 callvirt ?set@HighlightsCurrentLine@AzukiControl@WinForms@Azuki@Sgry@@$$FU$AAMX_N@Z

; 561  : 			this->azukiArea->HighlightsMatchedBracket = false;

  01310	02		 ldarg.0 	; this$
  01311	7b 00 00 00 00	 ldfld ?azukiArea@Form1@Mogitter@@3P$AAVAzukiControl@WinForms@Azuki@Sgry@@$AA
  01316	16		 ldc.i.0 0	; u8 0x0
  01317	6f 00 00 00 00	 callvirt ?set@HighlightsMatchedBracket@AzukiControl@WinForms@Azuki@Sgry@@$$FU$AAMX_N@Z

; 562  : 			this->azukiArea->IsReadOnly = true;

  0131c	02		 ldarg.0 	; this$
  0131d	7b 00 00 00 00	 ldfld ?azukiArea@Form1@Mogitter@@3P$AAVAzukiControl@WinForms@Azuki@Sgry@@$AA
  01322	17		 ldc.i.1 1	; u8 0x1
  01323	6f 00 00 00 00	 callvirt ?set@IsReadOnly@AzukiControl@WinForms@Azuki@Sgry@@$$FU$AAMX_N@Z

; 563  : 			this->azukiArea->Location = System::Drawing::Point(9, 33);

  01328	12 2c		 ldloca.s 44	; $S172$
  0132a	1f 09		 ldc.i4.s 9	; i32 0x9
  0132c	1f 21		 ldc.i4.s 33	; i32 0x21
  0132e	28 00 00 00 00	 call ??0Point@Drawing@System@@$$FQ$CAM@HH@Z
  01333	02		 ldarg.0 	; this$
  01334	7b 00 00 00 00	 ldfld ?azukiArea@Form1@Mogitter@@3P$AAVAzukiControl@WinForms@Azuki@Sgry@@$AA
  01339	11 2c		 ldloc.s 44	; $S172$
  0133b	28 00 00 00 00	 call ?set@Location@Control@Forms@Windows@System@@$$FQ$AAMXVPoint@Drawing@5@@Z

; 564  : 			this->azukiArea->Name = L"azukiArea";

  01340	02		 ldarg.0 	; this$
  01341	7b 00 00 00 00	 ldfld ?azukiArea@Form1@Mogitter@@3P$AAVAzukiControl@WinForms@Azuki@Sgry@@$AA
  01346	72 00 00 00 00	 ldstr $StringLiteralTok$??_C@_1BE@PGCLIGEA@?$AAa?$AAz?$AAu?$AAk?$AAi?$AAA?$AAr?$AAe?$AAa?$AA?$AA@
  0134b	28 00 00 00 00	 call ?set@Name@Control@Forms@Windows@System@@$$FQ$AAMXP$AAVString@5@@Z

; 565  : 			this->azukiArea->ScrollPos = System::Drawing::Point(0, 0);

  01350	12 2b		 ldloca.s 43	; $S173$
  01352	16		 ldc.i.0 0	; i32 0x0
  01353	16		 ldc.i.0 0	; i32 0x0
  01354	28 00 00 00 00	 call ??0Point@Drawing@System@@$$FQ$CAM@HH@Z
  01359	02		 ldarg.0 	; this$
  0135a	7b 00 00 00 00	 ldfld ?azukiArea@Form1@Mogitter@@3P$AAVAzukiControl@WinForms@Azuki@Sgry@@$AA
  0135f	11 2b		 ldloc.s 43	; $S173$
  01361	6f 00 00 00 00	 callvirt ?set@ScrollPos@AzukiControl@WinForms@Azuki@Sgry@@$$FU$AAMXVPoint@Drawing@System@@@Z

; 566  : 			this->azukiArea->ScrollsBeyondLastLine = false;

  01366	02		 ldarg.0 	; this$
  01367	7b 00 00 00 00	 ldfld ?azukiArea@Form1@Mogitter@@3P$AAVAzukiControl@WinForms@Azuki@Sgry@@$AA
  0136c	16		 ldc.i.0 0	; u8 0x0
  0136d	28 00 00 00 00	 call ?set@ScrollsBeyondLastLine@AzukiControl@WinForms@Azuki@Sgry@@$$FQ$AAMX_N@Z

; 567  : 			this->azukiArea->ShowsDirtBar = false;

  01372	02		 ldarg.0 	; this$
  01373	7b 00 00 00 00	 ldfld ?azukiArea@Form1@Mogitter@@3P$AAVAzukiControl@WinForms@Azuki@Sgry@@$AA
  01378	16		 ldc.i.0 0	; u8 0x0
  01379	6f 00 00 00 00	 callvirt ?set@ShowsDirtBar@AzukiControl@WinForms@Azuki@Sgry@@$$FU$AAMX_N@Z

; 568  : 			this->azukiArea->ShowsHScrollBar = false;

  0137e	02		 ldarg.0 	; this$
  0137f	7b 00 00 00 00	 ldfld ?azukiArea@Form1@Mogitter@@3P$AAVAzukiControl@WinForms@Azuki@Sgry@@$AA
  01384	16		 ldc.i.0 0	; u8 0x0
  01385	6f 00 00 00 00	 callvirt ?set@ShowsHScrollBar@AzukiControl@WinForms@Azuki@Sgry@@$$FU$AAMX_N@Z

; 569  : 			this->azukiArea->Size = System::Drawing::Size(611, 600);

  0138a	12 2a		 ldloca.s 42	; $S174$
  0138c	20 63 02 00 00	 ldc.i4 611	; i32 0x263
  01391	20 58 02 00 00	 ldc.i4 600	; i32 0x258
  01396	28 00 00 00 00	 call ??0Size@Drawing@System@@$$FQ$CAM@HH@Z
  0139b	02		 ldarg.0 	; this$
  0139c	7b 00 00 00 00	 ldfld ?azukiArea@Form1@Mogitter@@3P$AAVAzukiControl@WinForms@Azuki@Sgry@@$AA
  013a1	11 2a		 ldloc.s 42	; $S174$
  013a3	28 00 00 00 00	 call ?set@Size@Control@Forms@Windows@System@@$$FQ$AAMXV1Drawing@5@@Z

; 570  : 			this->azukiArea->TabIndex = 0;

  013a8	02		 ldarg.0 	; this$
  013a9	7b 00 00 00 00	 ldfld ?azukiArea@Form1@Mogitter@@3P$AAVAzukiControl@WinForms@Azuki@Sgry@@$AA
  013ae	16		 ldc.i.0 0	; i32 0x0
  013af	28 00 00 00 00	 call ?set@TabIndex@Control@Forms@Windows@System@@$$FQ$AAMXH@Z

; 571  : 			this->azukiArea->ViewType = Sgry::Azuki::ViewType::WrappedProportional;

  013b4	02		 ldarg.0 	; this$
  013b5	7b 00 00 00 00	 ldfld ?azukiArea@Form1@Mogitter@@3P$AAVAzukiControl@WinForms@Azuki@Sgry@@$AA
  013ba	17		 ldc.i.1 1	; i32 0x1
  013bb	6f 00 00 00 00	 callvirt ?set@ViewType@AzukiControl@WinForms@Azuki@Sgry@@$$FU$AAMXW4145@@Z

; 572  : 			this->azukiArea->ViewWidth = 588;

  013c0	02		 ldarg.0 	; this$
  013c1	7b 00 00 00 00	 ldfld ?azukiArea@Form1@Mogitter@@3P$AAVAzukiControl@WinForms@Azuki@Sgry@@$AA
  013c6	20 4c 02 00 00	 ldc.i4 588	; i32 0x24c
  013cb	6f 00 00 00 00	 callvirt ?set@ViewWidth@AzukiControl@WinForms@Azuki@Sgry@@$$FU$AAMXH@Z

; 573  : 			this->azukiArea->TextChanged += gcnew System::EventHandler(this, &Form1::azukiArea_TextChanged);

  013d0	02		 ldarg.0 	; this$
  013d1	7b 00 00 00 00	 ldfld ?azukiArea@Form1@Mogitter@@3P$AAVAzukiControl@WinForms@Azuki@Sgry@@$AA
  013d6	02		 ldarg.0 	; this$
  013d7	fe 06 00 00 00
	00		 ldftn ?azukiArea_TextChanged@Form1@Mogitter@@$$FA$AAMXP$AAVObject@System@@P$AAVEventArgs@4@@Z
  013dd	73 00 00 00 00	 newobj ??0EventHandler@System@@$$FQ$AAM@P$AAVObject@1@VIntPtr@1@@Z
  013e2	28 00 00 00 00	 call ?add@TextChanged@Control@Forms@Windows@System@@$$FQ$AAMXP$AAVEventHandler@5@@Z

; 574  : 			this->azukiArea->KeyDown += gcnew System::Windows::Forms::KeyEventHandler(this, &Form1::sampleKeyDown);

  013e7	02		 ldarg.0 	; this$
  013e8	7b 00 00 00 00	 ldfld ?azukiArea@Form1@Mogitter@@3P$AAVAzukiControl@WinForms@Azuki@Sgry@@$AA
  013ed	02		 ldarg.0 	; this$
  013ee	fe 06 00 00 00
	00		 ldftn ?sampleKeyDown@Form1@Mogitter@@$$FA$AAMXP$AAVObject@System@@P$AAVKeyEventArgs@Forms@Windows@4@@Z
  013f4	73 00 00 00 00	 newobj ??0KeyEventHandler@Forms@Windows@System@@$$FQ$AAM@P$AAVObject@3@VIntPtr@3@@Z
  013f9	28 00 00 00 00	 call ?add@KeyDown@Control@Forms@Windows@System@@$$FQ$AAMXP$AAVKeyEventHandler@345@@Z

; 575  : 			this->azukiArea->MouseUp += gcnew System::Windows::Forms::MouseEventHandler(this, &Form1::tArea_MouseUp);

  013fe	02		 ldarg.0 	; this$
  013ff	7b 00 00 00 00	 ldfld ?azukiArea@Form1@Mogitter@@3P$AAVAzukiControl@WinForms@Azuki@Sgry@@$AA
  01404	02		 ldarg.0 	; this$
  01405	fe 06 00 00 00
	00		 ldftn ?tArea_MouseUp@Form1@Mogitter@@$$FA$AAMXP$AAVObject@System@@P$AAVMouseEventArgs@Forms@Windows@4@@Z
  0140b	73 00 00 00 00	 newobj ??0MouseEventHandler@Forms@Windows@System@@$$FQ$AAM@P$AAVObject@3@VIntPtr@3@@Z
  01410	28 00 00 00 00	 call ?add@MouseUp@Control@Forms@Windows@System@@$$FQ$AAMXP$AAVMouseEventHandler@345@@Z

; 576  : 			// 
; 577  : 			// keishikiBox
; 578  : 			// 
; 579  : 			this->keishikiBox->Controls->Add(this->randomQNum);

  01415	02		 ldarg.0 	; this$
  01416	7b 00 00 00 00	 ldfld ?keishikiBox@Form1@Mogitter@@3P$AAVGroupBox@Forms@Windows@System@@$AA
  0141b	28 00 00 00 00	 call ?get@Controls@Control@Forms@Windows@System@@$$FQ$AAMP$AAVControlCollection@2345@XZ
  01420	02		 ldarg.0 	; this$
  01421	7b 00 00 00 00	 ldfld ?randomQNum@Form1@Mogitter@@3P$AAVNumericUpDown@Forms@Windows@System@@$AA
  01426	6f 00 00 00 00	 callvirt ?Add@ControlCollection@Control@Forms@Windows@System@@$$FU$AAMXP$AAV2345@@Z

; 580  : 			this->keishikiBox->Controls->Add(this->label2);

  0142b	02		 ldarg.0 	; this$
  0142c	7b 00 00 00 00	 ldfld ?keishikiBox@Form1@Mogitter@@3P$AAVGroupBox@Forms@Windows@System@@$AA
  01431	28 00 00 00 00	 call ?get@Controls@Control@Forms@Windows@System@@$$FQ$AAMP$AAVControlCollection@2345@XZ
  01436	02		 ldarg.0 	; this$
  01437	7b 00 00 00 00	 ldfld ?label2@Form1@Mogitter@@3P$AAVLabel@Forms@Windows@System@@$AA
  0143c	6f 00 00 00 00	 callvirt ?Add@ControlCollection@Control@Forms@Windows@System@@$$FU$AAMXP$AAV2345@@Z

; 581  : 			this->keishikiBox->Controls->Add(this->label1);

  01441	02		 ldarg.0 	; this$
  01442	7b 00 00 00 00	 ldfld ?keishikiBox@Form1@Mogitter@@3P$AAVGroupBox@Forms@Windows@System@@$AA
  01447	28 00 00 00 00	 call ?get@Controls@Control@Forms@Windows@System@@$$FQ$AAMP$AAVControlCollection@2345@XZ
  0144c	02		 ldarg.0 	; this$
  0144d	7b 00 00 00 00	 ldfld ?label1@Form1@Mogitter@@3P$AAVLabel@Forms@Windows@System@@$AA
  01452	6f 00 00 00 00	 callvirt ?Add@ControlCollection@Control@Forms@Windows@System@@$$FU$AAMXP$AAV2345@@Z

; 582  : 			this->keishikiBox->Controls->Add(this->randomCheckBox);

  01457	02		 ldarg.0 	; this$
  01458	7b 00 00 00 00	 ldfld ?keishikiBox@Form1@Mogitter@@3P$AAVGroupBox@Forms@Windows@System@@$AA
  0145d	28 00 00 00 00	 call ?get@Controls@Control@Forms@Windows@System@@$$FQ$AAMP$AAVControlCollection@2345@XZ
  01462	02		 ldarg.0 	; this$
  01463	7b 00 00 00 00	 ldfld ?randomCheckBox@Form1@Mogitter@@3P$AAVCheckBox@Forms@Windows@System@@$AA
  01468	6f 00 00 00 00	 callvirt ?Add@ControlCollection@Control@Forms@Windows@System@@$$FU$AAMXP$AAV2345@@Z

; 583  : 			this->keishikiBox->Font = (gcnew System::Drawing::Font(L"メイリオ", 9.75F, System::Drawing::FontStyle::Regular, System::Drawing::GraphicsUnit::Point, 
; 584  : 				static_cast<System::Byte>(128)));

  0146d	02		 ldarg.0 	; this$
  0146e	7b 00 00 00 00	 ldfld ?keishikiBox@Form1@Mogitter@@3P$AAVGroupBox@Forms@Windows@System@@$AA
  01473	72 00 00 00 00	 ldstr $StringLiteralTok$??_C@_19HMEDOBKD@0?a0?$KE0?j0?$KK?$AA?$AA@
  01478	22 00 00 1c 41	 ldc.r4 9.750000
  0147d	16		 ldc.i.0 0	; i32 0x0
  0147e	19		 ldc.i.3 3	; i32 0x3
  0147f	20 80 00 00 00	 ldc.i4 128	; u8 0x80
  01484	73 00 00 00 00	 newobj ??0Font@Drawing@System@@$$FQ$AAM@P$AAVString@2@MW4FontStyle@12@W4GraphicsUnit@12@E@Z
  01489	6f 00 00 00 00	 callvirt ?set@Font@Control@Forms@Windows@System@@$$FU$AAMXP$AAV1Drawing@5@@Z

; 585  : 			this->keishikiBox->Location = System::Drawing::Point(626, 297);

  0148e	12 29		 ldloca.s 41	; $S175$
  01490	20 72 02 00 00	 ldc.i4 626	; i32 0x272
  01495	20 29 01 00 00	 ldc.i4 297	; i32 0x129
  0149a	28 00 00 00 00	 call ??0Point@Drawing@System@@$$FQ$CAM@HH@Z
  0149f	02		 ldarg.0 	; this$
  014a0	7b 00 00 00 00	 ldfld ?keishikiBox@Form1@Mogitter@@3P$AAVGroupBox@Forms@Windows@System@@$AA
  014a5	11 29		 ldloc.s 41	; $S175$
  014a7	28 00 00 00 00	 call ?set@Location@Control@Forms@Windows@System@@$$FQ$AAMXVPoint@Drawing@5@@Z

; 586  : 			this->keishikiBox->Name = L"keishikiBox";

  014ac	02		 ldarg.0 	; this$
  014ad	7b 00 00 00 00	 ldfld ?keishikiBox@Form1@Mogitter@@3P$AAVGroupBox@Forms@Windows@System@@$AA
  014b2	72 00 00 00 00	 ldstr $StringLiteralTok$??_C@_1BI@NDFDMDPA@?$AAk?$AAe?$AAi?$AAs?$AAh?$AAi?$AAk?$AAi?$AAB?$AAo?$AAx?$AA?$AA@
  014b7	28 00 00 00 00	 call ?set@Name@Control@Forms@Windows@System@@$$FQ$AAMXP$AAVString@5@@Z

; 587  : 			this->keishikiBox->Size = System::Drawing::Size(192, 100);

  014bc	12 28		 ldloca.s 40	; $S176$
  014be	20 c0 00 00 00	 ldc.i4 192	; i32 0xc0
  014c3	1f 64		 ldc.i4.s 100	; i32 0x64
  014c5	28 00 00 00 00	 call ??0Size@Drawing@System@@$$FQ$CAM@HH@Z
  014ca	02		 ldarg.0 	; this$
  014cb	7b 00 00 00 00	 ldfld ?keishikiBox@Form1@Mogitter@@3P$AAVGroupBox@Forms@Windows@System@@$AA
  014d0	11 28		 ldloc.s 40	; $S176$
  014d2	28 00 00 00 00	 call ?set@Size@Control@Forms@Windows@System@@$$FQ$AAMXV1Drawing@5@@Z

; 588  : 			this->keishikiBox->TabIndex = 17;

  014d7	02		 ldarg.0 	; this$
  014d8	7b 00 00 00 00	 ldfld ?keishikiBox@Form1@Mogitter@@3P$AAVGroupBox@Forms@Windows@System@@$AA
  014dd	1f 11		 ldc.i4.s 17	; i32 0x11
  014df	28 00 00 00 00	 call ?set@TabIndex@Control@Forms@Windows@System@@$$FQ$AAMXH@Z

; 589  : 			this->keishikiBox->TabStop = false;

  014e4	02		 ldarg.0 	; this$
  014e5	7b 00 00 00 00	 ldfld ?keishikiBox@Form1@Mogitter@@3P$AAVGroupBox@Forms@Windows@System@@$AA
  014ea	16		 ldc.i.0 0	; u8 0x0
  014eb	28 00 00 00 00	 call ?set@TabStop@GroupBox@Forms@Windows@System@@$$FQ$AAMX_N@Z

; 590  : 			this->keishikiBox->Text = L"出題形式指定";

  014f0	02		 ldarg.0 	; this$
  014f1	7b 00 00 00 00	 ldfld ?keishikiBox@Form1@Mogitter@@3P$AAVGroupBox@Forms@Windows@System@@$AA
  014f6	72 00 00 00 00	 ldstr $StringLiteralTok$??_C@_1O@BCAJCIDM@Q?z?$JIL_b_?$APc?$AH?$FL?$JK?$AA?$AA@
  014fb	6f 00 00 00 00	 callvirt ?set@Text@GroupBox@Forms@Windows@System@@$$FU$AAMXP$AAVString@5@@Z

; 591  : 			// 
; 592  : 			// randomQNum
; 593  : 			// 
; 594  : 			this->randomQNum->BackColor = System::Drawing::Color::AliceBlue;

  01500	28 00 00 00 00	 call ?get@AliceBlue@Color@Drawing@System@@$$FSM?AV234@XZ
  01505	13 27		 stloc.s 39	; $T7
  01507	02		 ldarg.0 	; this$
  01508	7b 00 00 00 00	 ldfld ?randomQNum@Form1@Mogitter@@3P$AAVNumericUpDown@Forms@Windows@System@@$AA
  0150d	11 27		 ldloc.s 39	; $T7
  0150f	6f 00 00 00 00	 callvirt ?set@BackColor@UpDownBase@Forms@Windows@System@@$$FU$AAMXVColor@Drawing@5@@Z

; 595  : 			this->randomQNum->Enabled = false;

  01514	02		 ldarg.0 	; this$
  01515	7b 00 00 00 00	 ldfld ?randomQNum@Form1@Mogitter@@3P$AAVNumericUpDown@Forms@Windows@System@@$AA
  0151a	16		 ldc.i.0 0	; u8 0x0
  0151b	28 00 00 00 00	 call ?set@Enabled@Control@Forms@Windows@System@@$$FQ$AAMX_N@Z

; 596  : 			this->randomQNum->Font = (gcnew System::Drawing::Font(L"メイリオ", 14.25F, System::Drawing::FontStyle::Bold, System::Drawing::GraphicsUnit::Point, 
; 597  : 				static_cast<System::Byte>(128)));

  01520	02		 ldarg.0 	; this$
  01521	7b 00 00 00 00	 ldfld ?randomQNum@Form1@Mogitter@@3P$AAVNumericUpDown@Forms@Windows@System@@$AA
  01526	72 00 00 00 00	 ldstr $StringLiteralTok$??_C@_19HMEDOBKD@0?a0?$KE0?j0?$KK?$AA?$AA@
  0152b	22 00 00 64 41	 ldc.r4 14.250000
  01530	17		 ldc.i.1 1	; i32 0x1
  01531	19		 ldc.i.3 3	; i32 0x3
  01532	20 80 00 00 00	 ldc.i4 128	; u8 0x80
  01537	73 00 00 00 00	 newobj ??0Font@Drawing@System@@$$FQ$AAM@P$AAVString@2@MW4FontStyle@12@W4GraphicsUnit@12@E@Z
  0153c	6f 00 00 00 00	 callvirt ?set@Font@Control@Forms@Windows@System@@$$FU$AAMXP$AAV1Drawing@5@@Z

; 598  : 			this->randomQNum->ForeColor = System::Drawing::Color::DarkBlue;

  01541	28 00 00 00 00	 call ?get@DarkBlue@Color@Drawing@System@@$$FSM?AV234@XZ
  01546	13 26		 stloc.s 38	; $T8
  01548	02		 ldarg.0 	; this$
  01549	7b 00 00 00 00	 ldfld ?randomQNum@Form1@Mogitter@@3P$AAVNumericUpDown@Forms@Windows@System@@$AA
  0154e	11 26		 ldloc.s 38	; $T8
  01550	6f 00 00 00 00	 callvirt ?set@ForeColor@UpDownBase@Forms@Windows@System@@$$FU$AAMXVColor@Drawing@5@@Z

; 599  : 			this->randomQNum->Location = System::Drawing::Point(88, 56);

  01555	12 25		 ldloca.s 37	; $S177$
  01557	1f 58		 ldc.i4.s 88	; i32 0x58
  01559	1f 38		 ldc.i4.s 56	; i32 0x38
  0155b	28 00 00 00 00	 call ??0Point@Drawing@System@@$$FQ$CAM@HH@Z
  01560	02		 ldarg.0 	; this$
  01561	7b 00 00 00 00	 ldfld ?randomQNum@Form1@Mogitter@@3P$AAVNumericUpDown@Forms@Windows@System@@$AA
  01566	11 25		 ldloc.s 37	; $S177$
  01568	28 00 00 00 00	 call ?set@Location@Control@Forms@Windows@System@@$$FQ$AAMXVPoint@Drawing@5@@Z

; 600  : 			this->randomQNum->Maximum = System::Decimal(gcnew cli::array< System::Int32 >(4) {1, 0, 0, 0});

  0156d	1a		 ldc.i.4 4	; i32 0x4
  0156e	8d 00 00 00 00	 newarr $TypeTok$110E9E58$
  01573	13 05		 stloc.s 5	; $S178$
  01575	11 05		 ldloc.s 5	; $S178$
  01577	16		 ldc.i.0 0	; i32 0x0
  01578	17		 ldc.i.1 1	; i32 0x1
  01579	9e		 stelem.i4 
  0157a	11 05		 ldloc.s 5	; $S178$
  0157c	17		 ldc.i.1 1	; i32 0x1
  0157d	16		 ldc.i.0 0	; i32 0x0
  0157e	9e		 stelem.i4 
  0157f	11 05		 ldloc.s 5	; $S178$
  01581	18		 ldc.i.2 2	; i32 0x2
  01582	16		 ldc.i.0 0	; i32 0x0
  01583	9e		 stelem.i4 
  01584	11 05		 ldloc.s 5	; $S178$
  01586	19		 ldc.i.3 3	; i32 0x3
  01587	16		 ldc.i.0 0	; i32 0x0
  01588	9e		 stelem.i4 
  01589	12 24		 ldloca.s 36	; $T9
  0158b	11 05		 ldloc.s 5	; $S178$
  0158d	28 00 00 00 00	 call ??0Decimal@System@@$$FQ$CAM@P$01AH@Z
  01592	02		 ldarg.0 	; this$
  01593	7b 00 00 00 00	 ldfld ?randomQNum@Form1@Mogitter@@3P$AAVNumericUpDown@Forms@Windows@System@@$AA
  01598	11 24		 ldloc.s 36	; $T9
  0159a	28 00 00 00 00	 call ?set@Maximum@NumericUpDown@Forms@Windows@System@@$$FQ$AAMXVDecimal@5@@Z

; 601  : 			this->randomQNum->Minimum = System::Decimal(gcnew cli::array< System::Int32 >(4) {1, 0, 0, 0});

  0159f	1a		 ldc.i.4 4	; i32 0x4
  015a0	8d 00 00 00 00	 newarr $TypeTok$110E9E58$
  015a5	13 04		 stloc.s 4	; $S179$
  015a7	11 04		 ldloc.s 4	; $S179$
  015a9	16		 ldc.i.0 0	; i32 0x0
  015aa	17		 ldc.i.1 1	; i32 0x1
  015ab	9e		 stelem.i4 
  015ac	11 04		 ldloc.s 4	; $S179$
  015ae	17		 ldc.i.1 1	; i32 0x1
  015af	16		 ldc.i.0 0	; i32 0x0
  015b0	9e		 stelem.i4 
  015b1	11 04		 ldloc.s 4	; $S179$
  015b3	18		 ldc.i.2 2	; i32 0x2
  015b4	16		 ldc.i.0 0	; i32 0x0
  015b5	9e		 stelem.i4 
  015b6	11 04		 ldloc.s 4	; $S179$
  015b8	19		 ldc.i.3 3	; i32 0x3
  015b9	16		 ldc.i.0 0	; i32 0x0
  015ba	9e		 stelem.i4 
  015bb	12 23		 ldloca.s 35	; $T10
  015bd	11 04		 ldloc.s 4	; $S179$
  015bf	28 00 00 00 00	 call ??0Decimal@System@@$$FQ$CAM@P$01AH@Z
  015c4	02		 ldarg.0 	; this$
  015c5	7b 00 00 00 00	 ldfld ?randomQNum@Form1@Mogitter@@3P$AAVNumericUpDown@Forms@Windows@System@@$AA
  015ca	11 23		 ldloc.s 35	; $T10
  015cc	28 00 00 00 00	 call ?set@Minimum@NumericUpDown@Forms@Windows@System@@$$FQ$AAMXVDecimal@5@@Z

; 602  : 			this->randomQNum->Name = L"randomQNum";

  015d1	02		 ldarg.0 	; this$
  015d2	7b 00 00 00 00	 ldfld ?randomQNum@Form1@Mogitter@@3P$AAVNumericUpDown@Forms@Windows@System@@$AA
  015d7	72 00 00 00 00	 ldstr $StringLiteralTok$??_C@_1BG@FPIDHEGE@?$AAr?$AAa?$AAn?$AAd?$AAo?$AAm?$AAQ?$AAN?$AAu?$AAm?$AA?$AA@
  015dc	28 00 00 00 00	 call ?set@Name@Control@Forms@Windows@System@@$$FQ$AAMXP$AAVString@5@@Z

; 603  : 			this->randomQNum->Size = System::Drawing::Size(64, 36);

  015e1	12 22		 ldloca.s 34	; $S180$
  015e3	1f 40		 ldc.i4.s 64	; i32 0x40
  015e5	1f 24		 ldc.i4.s 36	; i32 0x24
  015e7	28 00 00 00 00	 call ??0Size@Drawing@System@@$$FQ$CAM@HH@Z
  015ec	02		 ldarg.0 	; this$
  015ed	7b 00 00 00 00	 ldfld ?randomQNum@Form1@Mogitter@@3P$AAVNumericUpDown@Forms@Windows@System@@$AA
  015f2	11 22		 ldloc.s 34	; $S180$
  015f4	28 00 00 00 00	 call ?set@Size@Control@Forms@Windows@System@@$$FQ$AAMXV1Drawing@5@@Z

; 604  : 			this->randomQNum->TabIndex = 17;

  015f9	02		 ldarg.0 	; this$
  015fa	7b 00 00 00 00	 ldfld ?randomQNum@Form1@Mogitter@@3P$AAVNumericUpDown@Forms@Windows@System@@$AA
  015ff	1f 11		 ldc.i4.s 17	; i32 0x11
  01601	28 00 00 00 00	 call ?set@TabIndex@Control@Forms@Windows@System@@$$FQ$AAMXH@Z

; 605  : 			this->randomQNum->TextAlign = System::Windows::Forms::HorizontalAlignment::Right;

  01606	02		 ldarg.0 	; this$
  01607	7b 00 00 00 00	 ldfld ?randomQNum@Form1@Mogitter@@3P$AAVNumericUpDown@Forms@Windows@System@@$AA
  0160c	17		 ldc.i.1 1	; i32 0x1
  0160d	28 00 00 00 00	 call ?set@TextAlign@UpDownBase@Forms@Windows@System@@$$FQ$AAMXW4HorizontalAlignment@345@@Z

; 606  : 			this->randomQNum->Value = System::Decimal(gcnew cli::array< System::Int32 >(4) {1, 0, 0, 0});

  01612	1a		 ldc.i.4 4	; i32 0x4
  01613	8d 00 00 00 00	 newarr $TypeTok$110E9E58$
  01618	0d		 stloc.3 	; $S181$
  01619	09		 ldloc.3 	; $S181$
  0161a	16		 ldc.i.0 0	; i32 0x0
  0161b	17		 ldc.i.1 1	; i32 0x1
  0161c	9e		 stelem.i4 
  0161d	09		 ldloc.3 	; $S181$
  0161e	17		 ldc.i.1 1	; i32 0x1
  0161f	16		 ldc.i.0 0	; i32 0x0
  01620	9e		 stelem.i4 
  01621	09		 ldloc.3 	; $S181$
  01622	18		 ldc.i.2 2	; i32 0x2
  01623	16		 ldc.i.0 0	; i32 0x0
  01624	9e		 stelem.i4 
  01625	09		 ldloc.3 	; $S181$
  01626	19		 ldc.i.3 3	; i32 0x3
  01627	16		 ldc.i.0 0	; i32 0x0
  01628	9e		 stelem.i4 
  01629	12 21		 ldloca.s 33	; $T11
  0162b	09		 ldloc.3 	; $S181$
  0162c	28 00 00 00 00	 call ??0Decimal@System@@$$FQ$CAM@P$01AH@Z
  01631	02		 ldarg.0 	; this$
  01632	7b 00 00 00 00	 ldfld ?randomQNum@Form1@Mogitter@@3P$AAVNumericUpDown@Forms@Windows@System@@$AA
  01637	11 21		 ldloc.s 33	; $T11
  01639	28 00 00 00 00	 call ?set@Value@NumericUpDown@Forms@Windows@System@@$$FQ$AAMXVDecimal@5@@Z

; 607  : 			this->randomQNum->ValueChanged += gcnew System::EventHandler(this, &Form1::randomQNum_ValueChanged);

  0163e	02		 ldarg.0 	; this$
  0163f	7b 00 00 00 00	 ldfld ?randomQNum@Form1@Mogitter@@3P$AAVNumericUpDown@Forms@Windows@System@@$AA
  01644	02		 ldarg.0 	; this$
  01645	fe 06 00 00 00
	00		 ldftn ?randomQNum_ValueChanged@Form1@Mogitter@@$$FA$AAMXP$AAVObject@System@@P$AAVEventArgs@4@@Z
  0164b	73 00 00 00 00	 newobj ??0EventHandler@System@@$$FQ$AAM@P$AAVObject@1@VIntPtr@1@@Z
  01650	28 00 00 00 00	 call ?add@ValueChanged@NumericUpDown@Forms@Windows@System@@$$FQ$AAMXP$AAVEventHandler@5@@Z

; 608  : 			// 
; 609  : 			// label2
; 610  : 			// 
; 611  : 			this->label2->AutoSize = true;

  01655	02		 ldarg.0 	; this$
  01656	7b 00 00 00 00	 ldfld ?label2@Form1@Mogitter@@3P$AAVLabel@Forms@Windows@System@@$AA
  0165b	17		 ldc.i.1 1	; u8 0x1
  0165c	6f 00 00 00 00	 callvirt ?set@AutoSize@Label@Forms@Windows@System@@$$FU$AAMX_N@Z

; 612  : 			this->label2->Font = (gcnew System::Drawing::Font(L"メイリオ", 12, System::Drawing::FontStyle::Regular, System::Drawing::GraphicsUnit::Point, 
; 613  : 				static_cast<System::Byte>(128)));

  01661	02		 ldarg.0 	; this$
  01662	7b 00 00 00 00	 ldfld ?label2@Form1@Mogitter@@3P$AAVLabel@Forms@Windows@System@@$AA
  01667	72 00 00 00 00	 ldstr $StringLiteralTok$??_C@_19HMEDOBKD@0?a0?$KE0?j0?$KK?$AA?$AA@
  0166c	22 00 00 40 41	 ldc.r4 12.000000
  01671	16		 ldc.i.0 0	; i32 0x0
  01672	19		 ldc.i.3 3	; i32 0x3
  01673	20 80 00 00 00	 ldc.i4 128	; u8 0x80
  01678	73 00 00 00 00	 newobj ??0Font@Drawing@System@@$$FQ$AAM@P$AAVString@2@MW4FontStyle@12@W4GraphicsUnit@12@E@Z
  0167d	6f 00 00 00 00	 callvirt ?set@Font@Control@Forms@Windows@System@@$$FU$AAMXP$AAV1Drawing@5@@Z

; 614  : 			this->label2->Location = System::Drawing::Point(158, 61);

  01682	12 20		 ldloca.s 32	; $S182$
  01684	20 9e 00 00 00	 ldc.i4 158	; i32 0x9e
  01689	1f 3d		 ldc.i4.s 61	; i32 0x3d
  0168b	28 00 00 00 00	 call ??0Point@Drawing@System@@$$FQ$CAM@HH@Z
  01690	02		 ldarg.0 	; this$
  01691	7b 00 00 00 00	 ldfld ?label2@Form1@Mogitter@@3P$AAVLabel@Forms@Windows@System@@$AA
  01696	11 20		 ldloc.s 32	; $S182$
  01698	28 00 00 00 00	 call ?set@Location@Control@Forms@Windows@System@@$$FQ$AAMXVPoint@Drawing@5@@Z

; 615  : 			this->label2->Name = L"label2";

  0169d	02		 ldarg.0 	; this$
  0169e	7b 00 00 00 00	 ldfld ?label2@Form1@Mogitter@@3P$AAVLabel@Forms@Windows@System@@$AA
  016a3	72 00 00 00 00	 ldstr $StringLiteralTok$??_C@_1O@FDJGDNMC@?$AAl?$AAa?$AAb?$AAe?$AAl?$AA2?$AA?$AA@
  016a8	28 00 00 00 00	 call ?set@Name@Control@Forms@Windows@System@@$$FQ$AAMXP$AAVString@5@@Z

; 616  : 			this->label2->Size = System::Drawing::Size(26, 24);

  016ad	12 1f		 ldloca.s 31	; $S183$
  016af	1f 1a		 ldc.i4.s 26	; i32 0x1a
  016b1	1f 18		 ldc.i4.s 24	; i32 0x18
  016b3	28 00 00 00 00	 call ??0Size@Drawing@System@@$$FQ$CAM@HH@Z
  016b8	02		 ldarg.0 	; this$
  016b9	7b 00 00 00 00	 ldfld ?label2@Form1@Mogitter@@3P$AAVLabel@Forms@Windows@System@@$AA
  016be	11 1f		 ldloc.s 31	; $S183$
  016c0	28 00 00 00 00	 call ?set@Size@Control@Forms@Windows@System@@$$FQ$AAMXV1Drawing@5@@Z

; 617  : 			this->label2->TabIndex = 16;

  016c5	02		 ldarg.0 	; this$
  016c6	7b 00 00 00 00	 ldfld ?label2@Form1@Mogitter@@3P$AAVLabel@Forms@Windows@System@@$AA
  016cb	1f 10		 ldc.i4.s 16	; i32 0x10
  016cd	28 00 00 00 00	 call ?set@TabIndex@Control@Forms@Windows@System@@$$FQ$AAMXH@Z

; 618  : 			this->label2->Text = L"問";

  016d2	02		 ldarg.0 	; this$
  016d3	7b 00 00 00 00	 ldfld ?label2@Form1@Mogitter@@3P$AAVLabel@Forms@Windows@System@@$AA
  016d8	72 00 00 00 00	 ldstr $StringLiteralTok$??_C@_13HHLLIEND@UO?$AA?$AA@
  016dd	6f 00 00 00 00	 callvirt ?set@Text@Label@Forms@Windows@System@@$$FU$AAMXP$AAVString@5@@Z

; 619  : 			// 
; 620  : 			// label1
; 621  : 			// 
; 622  : 			this->label1->AutoSize = true;

  016e2	02		 ldarg.0 	; this$
  016e3	7b 00 00 00 00	 ldfld ?label1@Form1@Mogitter@@3P$AAVLabel@Forms@Windows@System@@$AA
  016e8	17		 ldc.i.1 1	; u8 0x1
  016e9	6f 00 00 00 00	 callvirt ?set@AutoSize@Label@Forms@Windows@System@@$$FU$AAMX_N@Z

; 623  : 			this->label1->Font = (gcnew System::Drawing::Font(L"メイリオ", 12, System::Drawing::FontStyle::Regular, System::Drawing::GraphicsUnit::Point, 
; 624  : 				static_cast<System::Byte>(128)));

  016ee	02		 ldarg.0 	; this$
  016ef	7b 00 00 00 00	 ldfld ?label1@Form1@Mogitter@@3P$AAVLabel@Forms@Windows@System@@$AA
  016f4	72 00 00 00 00	 ldstr $StringLiteralTok$??_C@_19HMEDOBKD@0?a0?$KE0?j0?$KK?$AA?$AA@
  016f9	22 00 00 40 41	 ldc.r4 12.000000
  016fe	16		 ldc.i.0 0	; i32 0x0
  016ff	19		 ldc.i.3 3	; i32 0x3
  01700	20 80 00 00 00	 ldc.i4 128	; u8 0x80
  01705	73 00 00 00 00	 newobj ??0Font@Drawing@System@@$$FQ$AAM@P$AAVString@2@MW4FontStyle@12@W4GraphicsUnit@12@E@Z
  0170a	6f 00 00 00 00	 callvirt ?set@Font@Control@Forms@Windows@System@@$$FU$AAMXP$AAV1Drawing@5@@Z

; 625  : 			this->label1->Location = System::Drawing::Point(8, 61);

  0170f	12 1e		 ldloca.s 30	; $S184$
  01711	1e		 ldc.i.8 8	; i32 0x8
  01712	1f 3d		 ldc.i4.s 61	; i32 0x3d
  01714	28 00 00 00 00	 call ??0Point@Drawing@System@@$$FQ$CAM@HH@Z
  01719	02		 ldarg.0 	; this$
  0171a	7b 00 00 00 00	 ldfld ?label1@Form1@Mogitter@@3P$AAVLabel@Forms@Windows@System@@$AA
  0171f	11 1e		 ldloc.s 30	; $S184$
  01721	28 00 00 00 00	 call ?set@Location@Control@Forms@Windows@System@@$$FQ$AAMXVPoint@Drawing@5@@Z

; 626  : 			this->label1->Name = L"label1";

  01726	02		 ldarg.0 	; this$
  01727	7b 00 00 00 00	 ldfld ?label1@Form1@Mogitter@@3P$AAVLabel@Forms@Windows@System@@$AA
  0172c	72 00 00 00 00	 ldstr $StringLiteralTok$??_C@_1O@EBCDJCCM@?$AAl?$AAa?$AAb?$AAe?$AAl?$AA1?$AA?$AA@
  01731	28 00 00 00 00	 call ?set@Name@Control@Forms@Windows@System@@$$FQ$AAMXP$AAVString@5@@Z

; 627  : 			this->label1->Size = System::Drawing::Size(74, 24);

  01736	12 1d		 ldloca.s 29	; $S185$
  01738	1f 4a		 ldc.i4.s 74	; i32 0x4a
  0173a	1f 18		 ldc.i4.s 24	; i32 0x18
  0173c	28 00 00 00 00	 call ??0Size@Drawing@System@@$$FQ$CAM@HH@Z
  01741	02		 ldarg.0 	; this$
  01742	7b 00 00 00 00	 ldfld ?label1@Form1@Mogitter@@3P$AAVLabel@Forms@Windows@System@@$AA
  01747	11 1d		 ldloc.s 29	; $S185$
  01749	28 00 00 00 00	 call ?set@Size@Control@Forms@Windows@System@@$$FQ$AAMXV1Drawing@5@@Z

; 628  : 			this->label1->TabIndex = 15;

  0174e	02		 ldarg.0 	; this$
  0174f	7b 00 00 00 00	 ldfld ?label1@Form1@Mogitter@@3P$AAVLabel@Forms@Windows@System@@$AA
  01754	1f 0f		 ldc.i4.s 15	; i32 0xf
  01756	28 00 00 00 00	 call ?set@TabIndex@Control@Forms@Windows@System@@$$FQ$AAMXH@Z

; 629  : 			this->label1->Text = L"出題数：";

  0175b	02		 ldarg.0 	; this$
  0175c	7b 00 00 00 00	 ldfld ?label1@Form1@Mogitter@@3P$AAVLabel@Forms@Windows@System@@$AA
  01761	72 00 00 00 00	 ldstr $StringLiteralTok$??_C@_19HOLEHPP@Q?z?$JILep?$PP?$BK?$AA?$AA@
  01766	6f 00 00 00 00	 callvirt ?set@Text@Label@Forms@Windows@System@@$$FU$AAMXP$AAVString@5@@Z

; 630  : 			// 
; 631  : 			// randomCheckBox
; 632  : 			// 
; 633  : 			this->randomCheckBox->AutoSize = true;

  0176b	02		 ldarg.0 	; this$
  0176c	7b 00 00 00 00	 ldfld ?randomCheckBox@Form1@Mogitter@@3P$AAVCheckBox@Forms@Windows@System@@$AA
  01771	17		 ldc.i.1 1	; u8 0x1
  01772	6f 00 00 00 00	 callvirt ?set@AutoSize@ButtonBase@Forms@Windows@System@@$$FU$AAMX_N@Z

; 634  : 			this->randomCheckBox->Font = (gcnew System::Drawing::Font(L"メイリオ", 11.25F, System::Drawing::FontStyle::Regular, System::Drawing::GraphicsUnit::Point, 
; 635  : 				static_cast<System::Byte>(128)));

  01777	02		 ldarg.0 	; this$
  01778	7b 00 00 00 00	 ldfld ?randomCheckBox@Form1@Mogitter@@3P$AAVCheckBox@Forms@Windows@System@@$AA
  0177d	72 00 00 00 00	 ldstr $StringLiteralTok$??_C@_19HMEDOBKD@0?a0?$KE0?j0?$KK?$AA?$AA@
  01782	22 00 00 34 41	 ldc.r4 11.250000
  01787	16		 ldc.i.0 0	; i32 0x0
  01788	19		 ldc.i.3 3	; i32 0x3
  01789	20 80 00 00 00	 ldc.i4 128	; u8 0x80
  0178e	73 00 00 00 00	 newobj ??0Font@Drawing@System@@$$FQ$AAM@P$AAVString@2@MW4FontStyle@12@W4GraphicsUnit@12@E@Z
  01793	6f 00 00 00 00	 callvirt ?set@Font@Control@Forms@Windows@System@@$$FU$AAMXP$AAV1Drawing@5@@Z

; 636  : 			this->randomCheckBox->Location = System::Drawing::Point(12, 26);

  01798	12 1c		 ldloca.s 28	; $S186$
  0179a	1f 0c		 ldc.i4.s 12	; i32 0xc
  0179c	1f 1a		 ldc.i4.s 26	; i32 0x1a
  0179e	28 00 00 00 00	 call ??0Point@Drawing@System@@$$FQ$CAM@HH@Z
  017a3	02		 ldarg.0 	; this$
  017a4	7b 00 00 00 00	 ldfld ?randomCheckBox@Form1@Mogitter@@3P$AAVCheckBox@Forms@Windows@System@@$AA
  017a9	11 1c		 ldloc.s 28	; $S186$
  017ab	28 00 00 00 00	 call ?set@Location@Control@Forms@Windows@System@@$$FQ$AAMXVPoint@Drawing@5@@Z

; 637  : 			this->randomCheckBox->Name = L"randomCheckBox";

  017b0	02		 ldarg.0 	; this$
  017b1	7b 00 00 00 00	 ldfld ?randomCheckBox@Form1@Mogitter@@3P$AAVCheckBox@Forms@Windows@System@@$AA
  017b6	72 00 00 00 00	 ldstr $StringLiteralTok$??_C@_1BO@JLCNKBIO@?$AAr?$AAa?$AAn?$AAd?$AAo?$AAm?$AAC?$AAh?$AAe?$AAc?$AAk?$AAB?$AAo?$AAx?$AA?$AA@
  017bb	28 00 00 00 00	 call ?set@Name@Control@Forms@Windows@System@@$$FQ$AAMXP$AAVString@5@@Z

; 638  : 			this->randomCheckBox->Size = System::Drawing::Size(179, 27);

  017c0	12 1b		 ldloca.s 27	; $S187$
  017c2	20 b3 00 00 00	 ldc.i4 179	; i32 0xb3
  017c7	1f 1b		 ldc.i4.s 27	; i32 0x1b
  017c9	28 00 00 00 00	 call ??0Size@Drawing@System@@$$FQ$CAM@HH@Z
  017ce	02		 ldarg.0 	; this$
  017cf	7b 00 00 00 00	 ldfld ?randomCheckBox@Form1@Mogitter@@3P$AAVCheckBox@Forms@Windows@System@@$AA
  017d4	11 1b		 ldloc.s 27	; $S187$
  017d6	28 00 00 00 00	 call ?set@Size@Control@Forms@Windows@System@@$$FQ$AAMXV1Drawing@5@@Z

; 639  : 			this->randomCheckBox->TabIndex = 14;

  017db	02		 ldarg.0 	; this$
  017dc	7b 00 00 00 00	 ldfld ?randomCheckBox@Form1@Mogitter@@3P$AAVCheckBox@Forms@Windows@System@@$AA
  017e1	1f 0e		 ldc.i4.s 14	; i32 0xe
  017e3	28 00 00 00 00	 call ?set@TabIndex@Control@Forms@Windows@System@@$$FQ$AAMXH@Z

; 640  : 			this->randomCheckBox->Text = L"行を無作為に並び替え";

  017e8	02		 ldarg.0 	; this$
  017e9	7b 00 00 00 00	 ldfld ?randomCheckBox@Form1@Mogitter@@3P$AAVCheckBox@Forms@Windows@System@@$AA
  017ee	72 00 00 00 00	 ldstr $StringLiteralTok$??_C@_1BG@NMBEJOCI@?$IIL0?$JCq?$CBO?2p?$LK0kN?$CG0sf?$PP0H?$AA?$AA@
  017f3	6f 00 00 00 00	 callvirt ?set@Text@ButtonBase@Forms@Windows@System@@$$FU$AAMXP$AAVString@5@@Z

; 641  : 			this->randomCheckBox->TextAlign = System::Drawing::ContentAlignment::MiddleCenter;

  017f8	02		 ldarg.0 	; this$
  017f9	7b 00 00 00 00	 ldfld ?randomCheckBox@Form1@Mogitter@@3P$AAVCheckBox@Forms@Windows@System@@$AA
  017fe	1f 20		 ldc.i4.s 32	; i32 0x20
  01800	6f 00 00 00 00	 callvirt ?set@TextAlign@CheckBox@Forms@Windows@System@@$$FU$AAMXW4ContentAlignment@Drawing@5@@Z

; 642  : 			this->randomCheckBox->UseVisualStyleBackColor = true;

  01805	02		 ldarg.0 	; this$
  01806	7b 00 00 00 00	 ldfld ?randomCheckBox@Form1@Mogitter@@3P$AAVCheckBox@Forms@Windows@System@@$AA
  0180b	17		 ldc.i.1 1	; u8 0x1
  0180c	28 00 00 00 00	 call ?set@UseVisualStyleBackColor@ButtonBase@Forms@Windows@System@@$$FQ$AAMX_N@Z

; 643  : 			this->randomCheckBox->CheckedChanged += gcnew System::EventHandler(this, &Form1::randomCheckBox_CheckedChanged);

  01811	02		 ldarg.0 	; this$
  01812	7b 00 00 00 00	 ldfld ?randomCheckBox@Form1@Mogitter@@3P$AAVCheckBox@Forms@Windows@System@@$AA
  01817	02		 ldarg.0 	; this$
  01818	fe 06 00 00 00
	00		 ldftn ?randomCheckBox_CheckedChanged@Form1@Mogitter@@$$FA$AAMXP$AAVObject@System@@P$AAVEventArgs@4@@Z
  0181e	73 00 00 00 00	 newobj ??0EventHandler@System@@$$FQ$AAM@P$AAVObject@1@VIntPtr@1@@Z
  01823	28 00 00 00 00	 call ?add@CheckedChanged@CheckBox@Forms@Windows@System@@$$FQ$AAMXP$AAVEventHandler@5@@Z

; 644  : 			// 
; 645  : 			// statusStrip1
; 646  : 			// 
; 647  : 			this->statusStrip1->BackColor = System::Drawing::Color::Blue;

  01828	28 00 00 00 00	 call ?get@Blue@Color@Drawing@System@@$$FSM?AV234@XZ
  0182d	13 1a		 stloc.s 26	; $T12
  0182f	02		 ldarg.0 	; this$
  01830	7b 00 00 00 00	 ldfld ?statusStrip1@Form1@Mogitter@@3P$AAVStatusStrip@Forms@Windows@System@@$AA
  01835	11 1a		 ldloc.s 26	; $T12
  01837	28 00 00 00 00	 call ?set@BackColor@ToolStrip@Forms@Windows@System@@$$FQ$AAMXVColor@Drawing@5@@Z

; 648  : 			this->statusStrip1->Items->AddRange(gcnew cli::array< System::Windows::Forms::ToolStripItem^  >(2) {this->whatToDoForUser, 
; 649  : 				this->mojiCode});

  0183c	18		 ldc.i.2 2	; i32 0x2
  0183d	8d 00 00 00 00	 newarr $TypeTok$116E771C$
  01842	13 09		 stloc.s 9	; $S188$
  01844	11 09		 ldloc.s 9	; $S188$
  01846	16		 ldc.i.0 0	; i32 0x0
  01847	02		 ldarg.0 	; this$
  01848	7b 00 00 00 00	 ldfld ?whatToDoForUser@Form1@Mogitter@@3P$AAVToolStripStatusLabel@Forms@Windows@System@@$AA
  0184d	a2		 stelem.ref 
  0184e	11 09		 ldloc.s 9	; $S188$
  01850	17		 ldc.i.1 1	; i32 0x1
  01851	02		 ldarg.0 	; this$
  01852	7b 00 00 00 00	 ldfld ?mojiCode@Form1@Mogitter@@3P$AAVToolStripDropDownButton@Forms@Windows@System@@$AA
  01857	a2		 stelem.ref 
  01858	02		 ldarg.0 	; this$
  01859	7b 00 00 00 00	 ldfld ?statusStrip1@Form1@Mogitter@@3P$AAVStatusStrip@Forms@Windows@System@@$AA
  0185e	6f 00 00 00 00	 callvirt ?get@Items@ToolStrip@Forms@Windows@System@@$$FU$AAMP$AAVToolStripItemCollection@345@XZ
  01863	11 09		 ldloc.s 9	; $S188$
  01865	28 00 00 00 00	 call ?AddRange@ToolStripItemCollection@Forms@Windows@System@@$$FQ$AAMXP$01AP$AAVToolStripItem@234@@Z

; 650  : 			this->statusStrip1->Location = System::Drawing::Point(0, 641);

  0186a	12 19		 ldloca.s 25	; $S189$
  0186c	16		 ldc.i.0 0	; i32 0x0
  0186d	20 81 02 00 00	 ldc.i4 641	; i32 0x281
  01872	28 00 00 00 00	 call ??0Point@Drawing@System@@$$FQ$CAM@HH@Z
  01877	02		 ldarg.0 	; this$
  01878	7b 00 00 00 00	 ldfld ?statusStrip1@Form1@Mogitter@@3P$AAVStatusStrip@Forms@Windows@System@@$AA
  0187d	11 19		 ldloc.s 25	; $S189$
  0187f	28 00 00 00 00	 call ?set@Location@Control@Forms@Windows@System@@$$FQ$AAMXVPoint@Drawing@5@@Z

; 651  : 			this->statusStrip1->Name = L"statusStrip1";

  01884	02		 ldarg.0 	; this$
  01885	7b 00 00 00 00	 ldfld ?statusStrip1@Form1@Mogitter@@3P$AAVStatusStrip@Forms@Windows@System@@$AA
  0188a	72 00 00 00 00	 ldstr $StringLiteralTok$??_C@_1BK@IABPHKGO@?$AAs?$AAt?$AAa?$AAt?$AAu?$AAs?$AAS?$AAt?$AAr?$AAi?$AAp?$AA1?$AA?$AA@
  0188f	28 00 00 00 00	 call ?set@Name@Control@Forms@Windows@System@@$$FQ$AAMXP$AAVString@5@@Z

; 652  : 			this->statusStrip1->RenderMode = System::Windows::Forms::ToolStripRenderMode::Professional;

  01894	02		 ldarg.0 	; this$
  01895	7b 00 00 00 00	 ldfld ?statusStrip1@Form1@Mogitter@@3P$AAVStatusStrip@Forms@Windows@System@@$AA
  0189a	18		 ldc.i.2 2	; i32 0x2
  0189b	28 00 00 00 00	 call ?set@RenderMode@ToolStrip@Forms@Windows@System@@$$FQ$AAMXW4ToolStripRenderMode@345@@Z

; 653  : 			this->statusStrip1->Size = System::Drawing::Size(827, 29);

  018a0	12 18		 ldloca.s 24	; $S190$
  018a2	20 3b 03 00 00	 ldc.i4 827	; i32 0x33b
  018a7	1f 1d		 ldc.i4.s 29	; i32 0x1d
  018a9	28 00 00 00 00	 call ??0Size@Drawing@System@@$$FQ$CAM@HH@Z
  018ae	02		 ldarg.0 	; this$
  018af	7b 00 00 00 00	 ldfld ?statusStrip1@Form1@Mogitter@@3P$AAVStatusStrip@Forms@Windows@System@@$AA
  018b4	11 18		 ldloc.s 24	; $S190$
  018b6	28 00 00 00 00	 call ?set@Size@Control@Forms@Windows@System@@$$FQ$AAMXV1Drawing@5@@Z

; 654  : 			this->statusStrip1->SizingGrip = false;

  018bb	02		 ldarg.0 	; this$
  018bc	7b 00 00 00 00	 ldfld ?statusStrip1@Form1@Mogitter@@3P$AAVStatusStrip@Forms@Windows@System@@$AA
  018c1	16		 ldc.i.0 0	; u8 0x0
  018c2	28 00 00 00 00	 call ?set@SizingGrip@StatusStrip@Forms@Windows@System@@$$FQ$AAMX_N@Z

; 655  : 			this->statusStrip1->TabIndex = 18;

  018c7	02		 ldarg.0 	; this$
  018c8	7b 00 00 00 00	 ldfld ?statusStrip1@Form1@Mogitter@@3P$AAVStatusStrip@Forms@Windows@System@@$AA
  018cd	1f 12		 ldc.i4.s 18	; i32 0x12
  018cf	28 00 00 00 00	 call ?set@TabIndex@Control@Forms@Windows@System@@$$FQ$AAMXH@Z

; 656  : 			this->statusStrip1->Text = L"statusStrip1";

  018d4	02		 ldarg.0 	; this$
  018d5	7b 00 00 00 00	 ldfld ?statusStrip1@Form1@Mogitter@@3P$AAVStatusStrip@Forms@Windows@System@@$AA
  018da	72 00 00 00 00	 ldstr $StringLiteralTok$??_C@_1BK@IABPHKGO@?$AAs?$AAt?$AAa?$AAt?$AAu?$AAs?$AAS?$AAt?$AAr?$AAi?$AAp?$AA1?$AA?$AA@
  018df	6f 00 00 00 00	 callvirt ?set@Text@Control@Forms@Windows@System@@$$FU$AAMXP$AAVString@5@@Z

; 657  : 			// 
; 658  : 			// whatToDoForUser
; 659  : 			// 
; 660  : 			this->whatToDoForUser->BackColor = System::Drawing::Color::Black;

  018e4	28 00 00 00 00	 call ?get@Black@Color@Drawing@System@@$$FSM?AV234@XZ
  018e9	13 17		 stloc.s 23	; $T13
  018eb	02		 ldarg.0 	; this$
  018ec	7b 00 00 00 00	 ldfld ?whatToDoForUser@Form1@Mogitter@@3P$AAVToolStripStatusLabel@Forms@Windows@System@@$AA
  018f1	11 17		 ldloc.s 23	; $T13
  018f3	6f 00 00 00 00	 callvirt ?set@BackColor@ToolStripItem@Forms@Windows@System@@$$FU$AAMXVColor@Drawing@5@@Z

; 661  : 			this->whatToDoForUser->BorderSides = static_cast<System::Windows::Forms::ToolStripStatusLabelBorderSides>((System::Windows::Forms::ToolStripStatusLabelBorderSides::Left | System::Windows::Forms::ToolStripStatusLabelBorderSides::Right));

  018f8	02		 ldarg.0 	; this$
  018f9	7b 00 00 00 00	 ldfld ?whatToDoForUser@Form1@Mogitter@@3P$AAVToolStripStatusLabel@Forms@Windows@System@@$AA
  018fe	1b		 ldc.i.5 5	; i32 0x5
  018ff	28 00 00 00 00	 call ?set@BorderSides@ToolStripStatusLabel@Forms@Windows@System@@$$FQ$AAMXW4ToolStripStatusLabelBorderSides@345@@Z

; 662  : 			this->whatToDoForUser->BorderStyle = System::Windows::Forms::Border3DStyle::Etched;

  01904	02		 ldarg.0 	; this$
  01905	7b 00 00 00 00	 ldfld ?whatToDoForUser@Form1@Mogitter@@3P$AAVToolStripStatusLabel@Forms@Windows@System@@$AA
  0190a	1c		 ldc.i.6 6	; i32 0x6
  0190b	28 00 00 00 00	 call ?set@BorderStyle@ToolStripStatusLabel@Forms@Windows@System@@$$FQ$AAMXW4Border3DStyle@345@@Z

; 663  : 			this->whatToDoForUser->Font = (gcnew System::Drawing::Font(L"メイリオ", 9.75F, System::Drawing::FontStyle::Regular, System::Drawing::GraphicsUnit::Point, 
; 664  : 				static_cast<System::Byte>(128)));

  01910	02		 ldarg.0 	; this$
  01911	7b 00 00 00 00	 ldfld ?whatToDoForUser@Form1@Mogitter@@3P$AAVToolStripStatusLabel@Forms@Windows@System@@$AA
  01916	72 00 00 00 00	 ldstr $StringLiteralTok$??_C@_19HMEDOBKD@0?a0?$KE0?j0?$KK?$AA?$AA@
  0191b	22 00 00 1c 41	 ldc.r4 9.750000
  01920	16		 ldc.i.0 0	; i32 0x0
  01921	19		 ldc.i.3 3	; i32 0x3
  01922	20 80 00 00 00	 ldc.i4 128	; u8 0x80
  01927	73 00 00 00 00	 newobj ??0Font@Drawing@System@@$$FQ$AAM@P$AAVString@2@MW4FontStyle@12@W4GraphicsUnit@12@E@Z
  0192c	6f 00 00 00 00	 callvirt ?set@Font@ToolStripItem@Forms@Windows@System@@$$FU$AAMXP$AAV1Drawing@5@@Z

; 665  : 			this->whatToDoForUser->ForeColor = System::Drawing::Color::White;

  01931	28 00 00 00 00	 call ?get@White@Color@Drawing@System@@$$FSM?AV234@XZ
  01936	13 16		 stloc.s 22	; $T14
  01938	02		 ldarg.0 	; this$
  01939	7b 00 00 00 00	 ldfld ?whatToDoForUser@Form1@Mogitter@@3P$AAVToolStripStatusLabel@Forms@Windows@System@@$AA
  0193e	11 16		 ldloc.s 22	; $T14
  01940	6f 00 00 00 00	 callvirt ?set@ForeColor@ToolStripItem@Forms@Windows@System@@$$FU$AAMXVColor@Drawing@5@@Z

; 666  : 			this->whatToDoForUser->Name = L"whatToDoForUser";

  01945	02		 ldarg.0 	; this$
  01946	7b 00 00 00 00	 ldfld ?whatToDoForUser@Form1@Mogitter@@3P$AAVToolStripStatusLabel@Forms@Windows@System@@$AA
  0194b	72 00 00 00 00	 ldstr $StringLiteralTok$??_C@_1CA@BDFMCABC@?$AAw?$AAh?$AAa?$AAt?$AAT?$AAo?$AAD?$AAo?$AAF?$AAo?$AAr?$AAU?$AAs?$AAe?$AAr?$AA?$AA@
  01950	28 00 00 00 00	 call ?set@Name@ToolStripItem@Forms@Windows@System@@$$FQ$AAMXP$AAVString@5@@Z

; 667  : 			this->whatToDoForUser->Size = System::Drawing::Size(351, 24);

  01955	12 15		 ldloca.s 21	; $S191$
  01957	20 5f 01 00 00	 ldc.i4 351	; i32 0x15f
  0195c	1f 18		 ldc.i4.s 24	; i32 0x18
  0195e	28 00 00 00 00	 call ??0Size@Drawing@System@@$$FQ$CAM@HH@Z
  01963	02		 ldarg.0 	; this$
  01964	7b 00 00 00 00	 ldfld ?whatToDoForUser@Form1@Mogitter@@3P$AAVToolStripStatusLabel@Forms@Windows@System@@$AA
  01969	11 15		 ldloc.s 21	; $S191$
  0196b	6f 00 00 00 00	 callvirt ?set@Size@ToolStripItem@Forms@Windows@System@@$$FU$AAMXV1Drawing@5@@Z

; 668  : 			this->whatToDoForUser->Text = L"模擬テストの原文をテキストエリアに読み込んでください";

  01970	02		 ldarg.0 	; this$
  01971	7b 00 00 00 00	 ldfld ?whatToDoForUser@Form1@Mogitter@@3P$AAVToolStripStatusLabel@Forms@Windows@System@@$AA
  01976	72 00 00 00 00	 ldstr $StringLiteralTok$??_C@_1DG@EJLKPDCP@j?$CBd?l0?F0?$LJ0?H0nS?$JPe?$IH0?$JC0?F0?$KN0?$LJ0?H0?$KI0?j0?$KC0k?$IK?$KN0?$HP?$IP?$LM0?$JD0g0O0?$GA0U0D?$AA?$AA@
  0197b	6f 00 00 00 00	 callvirt ?set@Text@ToolStripItem@Forms@Windows@System@@$$FU$AAMXP$AAVString@5@@Z

; 669  : 			// 
; 670  : 			// mojiCode
; 671  : 			// 
; 672  : 			this->mojiCode->BackColor = System::Drawing::Color::Blue;

  01980	28 00 00 00 00	 call ?get@Blue@Color@Drawing@System@@$$FSM?AV234@XZ
  01985	13 14		 stloc.s 20	; $T15
  01987	02		 ldarg.0 	; this$
  01988	7b 00 00 00 00	 ldfld ?mojiCode@Form1@Mogitter@@3P$AAVToolStripDropDownButton@Forms@Windows@System@@$AA
  0198d	11 14		 ldloc.s 20	; $T15
  0198f	6f 00 00 00 00	 callvirt ?set@BackColor@ToolStripItem@Forms@Windows@System@@$$FU$AAMXVColor@Drawing@5@@Z

; 673  : 			this->mojiCode->DisplayStyle = System::Windows::Forms::ToolStripItemDisplayStyle::Text;

  01994	02		 ldarg.0 	; this$
  01995	7b 00 00 00 00	 ldfld ?mojiCode@Form1@Mogitter@@3P$AAVToolStripDropDownButton@Forms@Windows@System@@$AA
  0199a	17		 ldc.i.1 1	; i32 0x1
  0199b	6f 00 00 00 00	 callvirt ?set@DisplayStyle@ToolStripItem@Forms@Windows@System@@$$FU$AAMXW4ToolStripItemDisplayStyle@345@@Z

; 674  : 			this->mojiCode->DropDownItems->AddRange(gcnew cli::array< System::Windows::Forms::ToolStripItem^  >(2) {this->uTF8ToolStripMenuItem, 
; 675  : 				this->shiftjisToolStripMenuItem});

  019a0	18		 ldc.i.2 2	; i32 0x2
  019a1	8d 00 00 00 00	 newarr $TypeTok$116E771C$
  019a6	13 08		 stloc.s 8	; $S192$
  019a8	11 08		 ldloc.s 8	; $S192$
  019aa	16		 ldc.i.0 0	; i32 0x0
  019ab	02		 ldarg.0 	; this$
  019ac	7b 00 00 00 00	 ldfld ?uTF8ToolStripMenuItem@Form1@Mogitter@@3P$AAVToolStripMenuItem@Forms@Windows@System@@$AA
  019b1	a2		 stelem.ref 
  019b2	11 08		 ldloc.s 8	; $S192$
  019b4	17		 ldc.i.1 1	; i32 0x1
  019b5	02		 ldarg.0 	; this$
  019b6	7b 00 00 00 00	 ldfld ?shiftjisToolStripMenuItem@Form1@Mogitter@@3P$AAVToolStripMenuItem@Forms@Windows@System@@$AA
  019bb	a2		 stelem.ref 
  019bc	02		 ldarg.0 	; this$
  019bd	7b 00 00 00 00	 ldfld ?mojiCode@Form1@Mogitter@@3P$AAVToolStripDropDownButton@Forms@Windows@System@@$AA
  019c2	28 00 00 00 00	 call ?get@DropDownItems@ToolStripDropDownItem@Forms@Windows@System@@$$FQ$AAMP$AAVToolStripItemCollection@345@XZ
  019c7	11 08		 ldloc.s 8	; $S192$
  019c9	28 00 00 00 00	 call ?AddRange@ToolStripItemCollection@Forms@Windows@System@@$$FQ$AAMXP$01AP$AAVToolStripItem@234@@Z

; 676  : 			this->mojiCode->Font = (gcnew System::Drawing::Font(L"メイリオ", 9.75F, System::Drawing::FontStyle::Regular, System::Drawing::GraphicsUnit::Point, 
; 677  : 				static_cast<System::Byte>(128)));

  019ce	02		 ldarg.0 	; this$
  019cf	7b 00 00 00 00	 ldfld ?mojiCode@Form1@Mogitter@@3P$AAVToolStripDropDownButton@Forms@Windows@System@@$AA
  019d4	72 00 00 00 00	 ldstr $StringLiteralTok$??_C@_19HMEDOBKD@0?a0?$KE0?j0?$KK?$AA?$AA@
  019d9	22 00 00 1c 41	 ldc.r4 9.750000
  019de	16		 ldc.i.0 0	; i32 0x0
  019df	19		 ldc.i.3 3	; i32 0x3
  019e0	20 80 00 00 00	 ldc.i4 128	; u8 0x80
  019e5	73 00 00 00 00	 newobj ??0Font@Drawing@System@@$$FQ$AAM@P$AAVString@2@MW4FontStyle@12@W4GraphicsUnit@12@E@Z
  019ea	6f 00 00 00 00	 callvirt ?set@Font@ToolStripItem@Forms@Windows@System@@$$FU$AAMXP$AAV1Drawing@5@@Z

; 678  : 			this->mojiCode->ForeColor = System::Drawing::Color::White;

  019ef	28 00 00 00 00	 call ?get@White@Color@Drawing@System@@$$FSM?AV234@XZ
  019f4	13 13		 stloc.s 19	; $T16
  019f6	02		 ldarg.0 	; this$
  019f7	7b 00 00 00 00	 ldfld ?mojiCode@Form1@Mogitter@@3P$AAVToolStripDropDownButton@Forms@Windows@System@@$AA
  019fc	11 13		 ldloc.s 19	; $T16
  019fe	6f 00 00 00 00	 callvirt ?set@ForeColor@ToolStripItem@Forms@Windows@System@@$$FU$AAMXVColor@Drawing@5@@Z

; 679  : 			this->mojiCode->Image = (cli::safe_cast<System::Drawing::Image^  >(resources->GetObject(L"mojiCode.Image")));

  01a03	02		 ldarg.0 	; this$
  01a04	7b 00 00 00 00	 ldfld ?mojiCode@Form1@Mogitter@@3P$AAVToolStripDropDownButton@Forms@Windows@System@@$AA
  01a09	08		 ldloc.2 	; resources$
  01a0a	72 00 00 00 00	 ldstr $StringLiteralTok$??_C@_1BO@KEONNLBB@?$AAm?$AAo?$AAj?$AAi?$AAC?$AAo?$AAd?$AAe?$AA?4?$AAI?$AAm?$AAa?$AAg?$AAe?$AA?$AA@
  01a0f	6f 00 00 00 00	 callvirt ?GetObject@ResourceManager@Resources@System@@$$FU$AAMP$AAVObject@3@P$AAVString@3@@Z
  01a14	74 00 00 00 00	 castClass $TypeTok$112E73C0$
  01a19	6f 00 00 00 00	 callvirt ?set@Image@ToolStripItem@Forms@Windows@System@@$$FU$AAMXP$AAV1Drawing@5@@Z

; 680  : 			this->mojiCode->ImageTransparentColor = System::Drawing::Color::White;

  01a1e	28 00 00 00 00	 call ?get@White@Color@Drawing@System@@$$FSM?AV234@XZ
  01a23	13 12		 stloc.s 18	; $T17
  01a25	02		 ldarg.0 	; this$
  01a26	7b 00 00 00 00	 ldfld ?mojiCode@Form1@Mogitter@@3P$AAVToolStripDropDownButton@Forms@Windows@System@@$AA
  01a2b	11 12		 ldloc.s 18	; $T17
  01a2d	28 00 00 00 00	 call ?set@ImageTransparentColor@ToolStripItem@Forms@Windows@System@@$$FQ$AAMXVColor@Drawing@5@@Z

; 681  : 			this->mojiCode->Name = L"mojiCode";

  01a32	02		 ldarg.0 	; this$
  01a33	7b 00 00 00 00	 ldfld ?mojiCode@Form1@Mogitter@@3P$AAVToolStripDropDownButton@Forms@Windows@System@@$AA
  01a38	72 00 00 00 00	 ldstr $StringLiteralTok$??_C@_1BC@DDOFJKFG@?$AAm?$AAo?$AAj?$AAi?$AAC?$AAo?$AAd?$AAe?$AA?$AA@
  01a3d	28 00 00 00 00	 call ?set@Name@ToolStripItem@Forms@Windows@System@@$$FQ$AAMXP$AAVString@5@@Z

; 682  : 			this->mojiCode->Size = System::Drawing::Size(67, 27);

  01a42	12 11		 ldloca.s 17	; $S193$
  01a44	1f 43		 ldc.i4.s 67	; i32 0x43
  01a46	1f 1b		 ldc.i4.s 27	; i32 0x1b
  01a48	28 00 00 00 00	 call ??0Size@Drawing@System@@$$FQ$CAM@HH@Z
  01a4d	02		 ldarg.0 	; this$
  01a4e	7b 00 00 00 00	 ldfld ?mojiCode@Form1@Mogitter@@3P$AAVToolStripDropDownButton@Forms@Windows@System@@$AA
  01a53	11 11		 ldloc.s 17	; $S193$
  01a55	6f 00 00 00 00	 callvirt ?set@Size@ToolStripItem@Forms@Windows@System@@$$FU$AAMXV1Drawing@5@@Z

; 683  : 			this->mojiCode->Text = L"shift-jis";

  01a5a	02		 ldarg.0 	; this$
  01a5b	7b 00 00 00 00	 ldfld ?mojiCode@Form1@Mogitter@@3P$AAVToolStripDropDownButton@Forms@Windows@System@@$AA
  01a60	72 00 00 00 00	 ldstr $StringLiteralTok$??_C@_1BE@HKELIMGC@?$AAs?$AAh?$AAi?$AAf?$AAt?$AA?9?$AAj?$AAi?$AAs?$AA?$AA@
  01a65	6f 00 00 00 00	 callvirt ?set@Text@ToolStripItem@Forms@Windows@System@@$$FU$AAMXP$AAVString@5@@Z

; 684  : 			this->mojiCode->TextImageRelation = System::Windows::Forms::TextImageRelation::Overlay;

  01a6a	02		 ldarg.0 	; this$
  01a6b	7b 00 00 00 00	 ldfld ?mojiCode@Form1@Mogitter@@3P$AAVToolStripDropDownButton@Forms@Windows@System@@$AA
  01a70	16		 ldc.i.0 0	; i32 0x0
  01a71	28 00 00 00 00	 call ?set@TextImageRelation@ToolStripItem@Forms@Windows@System@@$$FQ$AAMXW41345@@Z

; 685  : 			this->mojiCode->DropDownClosed += gcnew System::EventHandler(this, &Form1::mojiCode_DropDownClosed);

  01a76	02		 ldarg.0 	; this$
  01a77	7b 00 00 00 00	 ldfld ?mojiCode@Form1@Mogitter@@3P$AAVToolStripDropDownButton@Forms@Windows@System@@$AA
  01a7c	02		 ldarg.0 	; this$
  01a7d	fe 06 00 00 00
	00		 ldftn ?mojiCode_DropDownClosed@Form1@Mogitter@@$$FA$AAMXP$AAVObject@System@@P$AAVEventArgs@4@@Z
  01a83	73 00 00 00 00	 newobj ??0EventHandler@System@@$$FQ$AAM@P$AAVObject@1@VIntPtr@1@@Z
  01a88	28 00 00 00 00	 call ?add@DropDownClosed@ToolStripDropDownItem@Forms@Windows@System@@$$FQ$AAMXP$AAVEventHandler@5@@Z

; 686  : 			this->mojiCode->DropDownOpening += gcnew System::EventHandler(this, &Form1::mojiCode_Click);

  01a8d	02		 ldarg.0 	; this$
  01a8e	7b 00 00 00 00	 ldfld ?mojiCode@Form1@Mogitter@@3P$AAVToolStripDropDownButton@Forms@Windows@System@@$AA
  01a93	02		 ldarg.0 	; this$
  01a94	fe 06 00 00 00
	00		 ldftn ?mojiCode_Click@Form1@Mogitter@@$$FA$AAMXP$AAVObject@System@@P$AAVEventArgs@4@@Z
  01a9a	73 00 00 00 00	 newobj ??0EventHandler@System@@$$FQ$AAM@P$AAVObject@1@VIntPtr@1@@Z
  01a9f	28 00 00 00 00	 call ?add@DropDownOpening@ToolStripDropDownItem@Forms@Windows@System@@$$FQ$AAMXP$AAVEventHandler@5@@Z

; 687  : 			this->mojiCode->DropDownOpened += gcnew System::EventHandler(this, &Form1::mojiCode_DropDownOpened);

  01aa4	02		 ldarg.0 	; this$
  01aa5	7b 00 00 00 00	 ldfld ?mojiCode@Form1@Mogitter@@3P$AAVToolStripDropDownButton@Forms@Windows@System@@$AA
  01aaa	02		 ldarg.0 	; this$
  01aab	fe 06 00 00 00
	00		 ldftn ?mojiCode_DropDownOpened@Form1@Mogitter@@$$FA$AAMXP$AAVObject@System@@P$AAVEventArgs@4@@Z
  01ab1	73 00 00 00 00	 newobj ??0EventHandler@System@@$$FQ$AAM@P$AAVObject@1@VIntPtr@1@@Z
  01ab6	28 00 00 00 00	 call ?add@DropDownOpened@ToolStripDropDownItem@Forms@Windows@System@@$$FQ$AAMXP$AAVEventHandler@5@@Z

; 688  : 			this->mojiCode->Click += gcnew System::EventHandler(this, &Form1::mojiCode_Click);

  01abb	02		 ldarg.0 	; this$
  01abc	7b 00 00 00 00	 ldfld ?mojiCode@Form1@Mogitter@@3P$AAVToolStripDropDownButton@Forms@Windows@System@@$AA
  01ac1	02		 ldarg.0 	; this$
  01ac2	fe 06 00 00 00
	00		 ldftn ?mojiCode_Click@Form1@Mogitter@@$$FA$AAMXP$AAVObject@System@@P$AAVEventArgs@4@@Z
  01ac8	73 00 00 00 00	 newobj ??0EventHandler@System@@$$FQ$AAM@P$AAVObject@1@VIntPtr@1@@Z
  01acd	28 00 00 00 00	 call ?add@Click@ToolStripItem@Forms@Windows@System@@$$FQ$AAMXP$AAVEventHandler@5@@Z

; 689  : 			this->mojiCode->MouseEnter += gcnew System::EventHandler(this, &Form1::mojiCode_Click);

  01ad2	02		 ldarg.0 	; this$
  01ad3	7b 00 00 00 00	 ldfld ?mojiCode@Form1@Mogitter@@3P$AAVToolStripDropDownButton@Forms@Windows@System@@$AA
  01ad8	02		 ldarg.0 	; this$
  01ad9	fe 06 00 00 00
	00		 ldftn ?mojiCode_Click@Form1@Mogitter@@$$FA$AAMXP$AAVObject@System@@P$AAVEventArgs@4@@Z
  01adf	73 00 00 00 00	 newobj ??0EventHandler@System@@$$FQ$AAM@P$AAVObject@1@VIntPtr@1@@Z
  01ae4	28 00 00 00 00	 call ?add@MouseEnter@ToolStripItem@Forms@Windows@System@@$$FQ$AAMXP$AAVEventHandler@5@@Z

; 690  : 			this->mojiCode->MouseLeave += gcnew System::EventHandler(this, &Form1::mojiCode_MouseLeave);

  01ae9	02		 ldarg.0 	; this$
  01aea	7b 00 00 00 00	 ldfld ?mojiCode@Form1@Mogitter@@3P$AAVToolStripDropDownButton@Forms@Windows@System@@$AA
  01aef	02		 ldarg.0 	; this$
  01af0	fe 06 00 00 00
	00		 ldftn ?mojiCode_MouseLeave@Form1@Mogitter@@$$FA$AAMXP$AAVObject@System@@P$AAVEventArgs@4@@Z
  01af6	73 00 00 00 00	 newobj ??0EventHandler@System@@$$FQ$AAM@P$AAVObject@1@VIntPtr@1@@Z
  01afb	28 00 00 00 00	 call ?add@MouseLeave@ToolStripItem@Forms@Windows@System@@$$FQ$AAMXP$AAVEventHandler@5@@Z

; 691  : 			// 
; 692  : 			// uTF8ToolStripMenuItem
; 693  : 			// 
; 694  : 			this->uTF8ToolStripMenuItem->Name = L"uTF8ToolStripMenuItem";

  01b00	02		 ldarg.0 	; this$
  01b01	7b 00 00 00 00	 ldfld ?uTF8ToolStripMenuItem@Form1@Mogitter@@3P$AAVToolStripMenuItem@Forms@Windows@System@@$AA
  01b06	72 00 00 00 00	 ldstr $StringLiteralTok$??_C@_1CM@BBLJGJHN@?$AAu?$AAT?$AAF?$AA8?$AAT?$AAo?$AAo?$AAl?$AAS?$AAt?$AAr?$AAi?$AAp?$AAM?$AAe?$AAn?$AAu?$AAI?$AAt?$AAe?$AAm?$AA?$AA@
  01b0b	28 00 00 00 00	 call ?set@Name@ToolStripItem@Forms@Windows@System@@$$FQ$AAMXP$AAVString@5@@Z

; 695  : 			this->uTF8ToolStripMenuItem->Size = System::Drawing::Size(152, 24);

  01b10	12 10		 ldloca.s 16	; $S194$
  01b12	20 98 00 00 00	 ldc.i4 152	; i32 0x98
  01b17	1f 18		 ldc.i4.s 24	; i32 0x18
  01b19	28 00 00 00 00	 call ??0Size@Drawing@System@@$$FQ$CAM@HH@Z
  01b1e	02		 ldarg.0 	; this$
  01b1f	7b 00 00 00 00	 ldfld ?uTF8ToolStripMenuItem@Form1@Mogitter@@3P$AAVToolStripMenuItem@Forms@Windows@System@@$AA
  01b24	11 10		 ldloc.s 16	; $S194$
  01b26	6f 00 00 00 00	 callvirt ?set@Size@ToolStripItem@Forms@Windows@System@@$$FU$AAMXV1Drawing@5@@Z

; 696  : 			this->uTF8ToolStripMenuItem->Text = L"UTF-8";

  01b2b	02		 ldarg.0 	; this$
  01b2c	7b 00 00 00 00	 ldfld ?uTF8ToolStripMenuItem@Form1@Mogitter@@3P$AAVToolStripMenuItem@Forms@Windows@System@@$AA
  01b31	72 00 00 00 00	 ldstr $StringLiteralTok$??_C@_1M@PBFCDPHC@?$AAU?$AAT?$AAF?$AA?9?$AA8?$AA?$AA@
  01b36	6f 00 00 00 00	 callvirt ?set@Text@ToolStripItem@Forms@Windows@System@@$$FU$AAMXP$AAVString@5@@Z

; 697  : 			this->uTF8ToolStripMenuItem->Click += gcnew System::EventHandler(this, &Form1::uTF8ToolStripMenuItem_Click);

  01b3b	02		 ldarg.0 	; this$
  01b3c	7b 00 00 00 00	 ldfld ?uTF8ToolStripMenuItem@Form1@Mogitter@@3P$AAVToolStripMenuItem@Forms@Windows@System@@$AA
  01b41	02		 ldarg.0 	; this$
  01b42	fe 06 00 00 00
	00		 ldftn ?uTF8ToolStripMenuItem_Click@Form1@Mogitter@@$$FA$AAMXP$AAVObject@System@@P$AAVEventArgs@4@@Z
  01b48	73 00 00 00 00	 newobj ??0EventHandler@System@@$$FQ$AAM@P$AAVObject@1@VIntPtr@1@@Z
  01b4d	28 00 00 00 00	 call ?add@Click@ToolStripItem@Forms@Windows@System@@$$FQ$AAMXP$AAVEventHandler@5@@Z

; 698  : 			// 
; 699  : 			// shiftjisToolStripMenuItem
; 700  : 			// 
; 701  : 			this->shiftjisToolStripMenuItem->BackColor = System::Drawing::SystemColors::Control;

  01b52	28 00 00 00 00	 call ?get@Control@SystemColors@Drawing@System@@$$FSM?AVColor@34@XZ
  01b57	13 0f		 stloc.s 15	; $T18
  01b59	02		 ldarg.0 	; this$
  01b5a	7b 00 00 00 00	 ldfld ?shiftjisToolStripMenuItem@Form1@Mogitter@@3P$AAVToolStripMenuItem@Forms@Windows@System@@$AA
  01b5f	11 0f		 ldloc.s 15	; $T18
  01b61	6f 00 00 00 00	 callvirt ?set@BackColor@ToolStripItem@Forms@Windows@System@@$$FU$AAMXVColor@Drawing@5@@Z

; 702  : 			this->shiftjisToolStripMenuItem->Name = L"shiftjisToolStripMenuItem";

  01b66	02		 ldarg.0 	; this$
  01b67	7b 00 00 00 00	 ldfld ?shiftjisToolStripMenuItem@Form1@Mogitter@@3P$AAVToolStripMenuItem@Forms@Windows@System@@$AA
  01b6c	72 00 00 00 00	 ldstr $StringLiteralTok$??_C@_1DE@OKDBMFO@?$AAs?$AAh?$AAi?$AAf?$AAt?$AAj?$AAi?$AAs?$AAT?$AAo?$AAo?$AAl?$AAS?$AAt?$AAr?$AAi?$AAp?$AAM?$AAe?$AAn?$AAu?$AAI?$AAt?$AAe?$AAm?$AA?$AA@
  01b71	28 00 00 00 00	 call ?set@Name@ToolStripItem@Forms@Windows@System@@$$FQ$AAMXP$AAVString@5@@Z

; 703  : 			this->shiftjisToolStripMenuItem->Size = System::Drawing::Size(152, 24);

  01b76	12 0e		 ldloca.s 14	; $S195$
  01b78	20 98 00 00 00	 ldc.i4 152	; i32 0x98
  01b7d	1f 18		 ldc.i4.s 24	; i32 0x18
  01b7f	28 00 00 00 00	 call ??0Size@Drawing@System@@$$FQ$CAM@HH@Z
  01b84	02		 ldarg.0 	; this$
  01b85	7b 00 00 00 00	 ldfld ?shiftjisToolStripMenuItem@Form1@Mogitter@@3P$AAVToolStripMenuItem@Forms@Windows@System@@$AA
  01b8a	11 0e		 ldloc.s 14	; $S195$
  01b8c	6f 00 00 00 00	 callvirt ?set@Size@ToolStripItem@Forms@Windows@System@@$$FU$AAMXV1Drawing@5@@Z

; 704  : 			this->shiftjisToolStripMenuItem->Text = L"shift-jis";

  01b91	02		 ldarg.0 	; this$
  01b92	7b 00 00 00 00	 ldfld ?shiftjisToolStripMenuItem@Form1@Mogitter@@3P$AAVToolStripMenuItem@Forms@Windows@System@@$AA
  01b97	72 00 00 00 00	 ldstr $StringLiteralTok$??_C@_1BE@HKELIMGC@?$AAs?$AAh?$AAi?$AAf?$AAt?$AA?9?$AAj?$AAi?$AAs?$AA?$AA@
  01b9c	6f 00 00 00 00	 callvirt ?set@Text@ToolStripItem@Forms@Windows@System@@$$FU$AAMXP$AAVString@5@@Z

; 705  : 			this->shiftjisToolStripMenuItem->Click += gcnew System::EventHandler(this, &Form1::shiftjisToolStripMenuItem_Click);

  01ba1	02		 ldarg.0 	; this$
  01ba2	7b 00 00 00 00	 ldfld ?shiftjisToolStripMenuItem@Form1@Mogitter@@3P$AAVToolStripMenuItem@Forms@Windows@System@@$AA
  01ba7	02		 ldarg.0 	; this$
  01ba8	fe 06 00 00 00
	00		 ldftn ?shiftjisToolStripMenuItem_Click@Form1@Mogitter@@$$FA$AAMXP$AAVObject@System@@P$AAVEventArgs@4@@Z
  01bae	73 00 00 00 00	 newobj ??0EventHandler@System@@$$FQ$AAM@P$AAVObject@1@VIntPtr@1@@Z
  01bb3	28 00 00 00 00	 call ?add@Click@ToolStripItem@Forms@Windows@System@@$$FQ$AAMXP$AAVEventHandler@5@@Z

; 706  : 			// 
; 707  : 			// Form1
; 708  : 			// 
; 709  : 			this->AutoScaleDimensions = System::Drawing::SizeF(6, 12);

  01bb8	12 0d		 ldloca.s 13	; $S196$
  01bba	22 00 00 c0 40	 ldc.r4 6.000000
  01bbf	22 00 00 40 41	 ldc.r4 12.000000
  01bc4	28 00 00 00 00	 call ??0SizeF@Drawing@System@@$$FQ$CAM@MM@Z
  01bc9	02		 ldarg.0 	; this$
  01bca	11 0d		 ldloc.s 13	; $S196$
  01bcc	28 00 00 00 00	 call ?set@AutoScaleDimensions@ContainerControl@Forms@Windows@System@@$$FQ$AAMXVSizeF@Drawing@5@@Z

; 710  : 			this->AutoScaleMode = System::Windows::Forms::AutoScaleMode::Font;

  01bd1	02		 ldarg.0 	; this$
  01bd2	17		 ldc.i.1 1	; i32 0x1
  01bd3	28 00 00 00 00	 call ?set@AutoScaleMode@ContainerControl@Forms@Windows@System@@$$FQ$AAMXW41345@@Z

; 711  : 			this->ClientSize = System::Drawing::Size(827, 670);

  01bd8	12 0c		 ldloca.s 12	; $S197$
  01bda	20 3b 03 00 00	 ldc.i4 827	; i32 0x33b
  01bdf	20 9e 02 00 00	 ldc.i4 670	; i32 0x29e
  01be4	28 00 00 00 00	 call ??0Size@Drawing@System@@$$FQ$CAM@HH@Z
  01be9	02		 ldarg.0 	; this$
  01bea	11 0c		 ldloc.s 12	; $S197$
  01bec	28 00 00 00 00	 call ?set@ClientSize@Form@Forms@Windows@System@@$$FQ$AAMXVSize@Drawing@5@@Z

; 712  : 			this->Controls->Add(this->statusStrip1);

  01bf1	02		 ldarg.0 	; this$
  01bf2	28 00 00 00 00	 call ?get@Controls@Control@Forms@Windows@System@@$$FQ$AAMP$AAVControlCollection@2345@XZ
  01bf7	02		 ldarg.0 	; this$
  01bf8	7b 00 00 00 00	 ldfld ?statusStrip1@Form1@Mogitter@@3P$AAVStatusStrip@Forms@Windows@System@@$AA
  01bfd	6f 00 00 00 00	 callvirt ?Add@ControlCollection@Control@Forms@Windows@System@@$$FU$AAMXP$AAV2345@@Z

; 713  : 			this->Controls->Add(this->keishikiBox);

  01c02	02		 ldarg.0 	; this$
  01c03	28 00 00 00 00	 call ?get@Controls@Control@Forms@Windows@System@@$$FQ$AAMP$AAVControlCollection@2345@XZ
  01c08	02		 ldarg.0 	; this$
  01c09	7b 00 00 00 00	 ldfld ?keishikiBox@Form1@Mogitter@@3P$AAVGroupBox@Forms@Windows@System@@$AA
  01c0e	6f 00 00 00 00	 callvirt ?Add@ControlCollection@Control@Forms@Windows@System@@$$FU$AAMXP$AAV2345@@Z

; 714  : 			this->Controls->Add(this->azukiArea);

  01c13	02		 ldarg.0 	; this$
  01c14	28 00 00 00 00	 call ?get@Controls@Control@Forms@Windows@System@@$$FQ$AAMP$AAVControlCollection@2345@XZ
  01c19	02		 ldarg.0 	; this$
  01c1a	7b 00 00 00 00	 ldfld ?azukiArea@Form1@Mogitter@@3P$AAVAzukiControl@WinForms@Azuki@Sgry@@$AA
  01c1f	6f 00 00 00 00	 callvirt ?Add@ControlCollection@Control@Forms@Windows@System@@$$FU$AAMXP$AAV2345@@Z

; 715  : 			this->Controls->Add(this->saveButton);

  01c24	02		 ldarg.0 	; this$
  01c25	28 00 00 00 00	 call ?get@Controls@Control@Forms@Windows@System@@$$FQ$AAMP$AAVControlCollection@2345@XZ
  01c2a	02		 ldarg.0 	; this$
  01c2b	7b 00 00 00 00	 ldfld ?saveButton@Form1@Mogitter@@3P$AAVButton@Forms@Windows@System@@$AA
  01c30	6f 00 00 00 00	 callvirt ?Add@ControlCollection@Control@Forms@Windows@System@@$$FU$AAMXP$AAV2345@@Z

; 716  : 			this->Controls->Add(this->kindSetBox);

  01c35	02		 ldarg.0 	; this$
  01c36	28 00 00 00 00	 call ?get@Controls@Control@Forms@Windows@System@@$$FQ$AAMP$AAVControlCollection@2345@XZ
  01c3b	02		 ldarg.0 	; this$
  01c3c	7b 00 00 00 00	 ldfld ?kindSetBox@Form1@Mogitter@@3P$AAVGroupBox@Forms@Windows@System@@$AA
  01c41	6f 00 00 00 00	 callvirt ?Add@ControlCollection@Control@Forms@Windows@System@@$$FU$AAMXP$AAV2345@@Z

; 717  : 			this->Controls->Add(this->makeOrDeleteBox);

  01c46	02		 ldarg.0 	; this$
  01c47	28 00 00 00 00	 call ?get@Controls@Control@Forms@Windows@System@@$$FQ$AAMP$AAVControlCollection@2345@XZ
  01c4c	02		 ldarg.0 	; this$
  01c4d	7b 00 00 00 00	 ldfld ?makeOrDeleteBox@Form1@Mogitter@@3P$AAVGroupBox@Forms@Windows@System@@$AA
  01c52	6f 00 00 00 00	 callvirt ?Add@ControlCollection@Control@Forms@Windows@System@@$$FU$AAMXP$AAV2345@@Z

; 718  : 			this->Controls->Add(this->helping);

  01c57	02		 ldarg.0 	; this$
  01c58	28 00 00 00 00	 call ?get@Controls@Control@Forms@Windows@System@@$$FQ$AAMP$AAVControlCollection@2345@XZ
  01c5d	02		 ldarg.0 	; this$
  01c5e	7b 00 00 00 00	 ldfld ?helping@Form1@Mogitter@@3P$AAVButton@Forms@Windows@System@@$AA
  01c63	6f 00 00 00 00	 callvirt ?Add@ControlCollection@Control@Forms@Windows@System@@$$FU$AAMXP$AAV2345@@Z

; 719  : 			this->Controls->Add(this->setting);

  01c68	02		 ldarg.0 	; this$
  01c69	28 00 00 00 00	 call ?get@Controls@Control@Forms@Windows@System@@$$FQ$AAMP$AAVControlCollection@2345@XZ
  01c6e	02		 ldarg.0 	; this$
  01c6f	7b 00 00 00 00	 ldfld ?setting@Form1@Mogitter@@3P$AAVButton@Forms@Windows@System@@$AA
  01c74	6f 00 00 00 00	 callvirt ?Add@ControlCollection@Control@Forms@Windows@System@@$$FU$AAMXP$AAV2345@@Z

; 720  : 			this->Controls->Add(this->mogiMake);

  01c79	02		 ldarg.0 	; this$
  01c7a	28 00 00 00 00	 call ?get@Controls@Control@Forms@Windows@System@@$$FQ$AAMP$AAVControlCollection@2345@XZ
  01c7f	02		 ldarg.0 	; this$
  01c80	7b 00 00 00 00	 ldfld ?mogiMake@Form1@Mogitter@@3P$AAVButton@Forms@Windows@System@@$AA
  01c85	6f 00 00 00 00	 callvirt ?Add@ControlCollection@Control@Forms@Windows@System@@$$FU$AAMXP$AAV2345@@Z

; 721  : 			this->Controls->Add(this->openFile);

  01c8a	02		 ldarg.0 	; this$
  01c8b	28 00 00 00 00	 call ?get@Controls@Control@Forms@Windows@System@@$$FQ$AAMP$AAVControlCollection@2345@XZ
  01c90	02		 ldarg.0 	; this$
  01c91	7b 00 00 00 00	 ldfld ?openFile@Form1@Mogitter@@3P$AAVButton@Forms@Windows@System@@$AA
  01c96	6f 00 00 00 00	 callvirt ?Add@ControlCollection@Control@Forms@Windows@System@@$$FU$AAMXP$AAV2345@@Z

; 722  : 			this->Controls->Add(this->menuStrip1);

  01c9b	02		 ldarg.0 	; this$
  01c9c	28 00 00 00 00	 call ?get@Controls@Control@Forms@Windows@System@@$$FQ$AAMP$AAVControlCollection@2345@XZ
  01ca1	02		 ldarg.0 	; this$
  01ca2	7b 00 00 00 00	 ldfld ?menuStrip1@Form1@Mogitter@@3P$AAVMenuStrip@Forms@Windows@System@@$AA
  01ca7	6f 00 00 00 00	 callvirt ?Add@ControlCollection@Control@Forms@Windows@System@@$$FU$AAMXP$AAV2345@@Z

; 723  : 			this->FormBorderStyle = System::Windows::Forms::FormBorderStyle::FixedSingle;

  01cac	02		 ldarg.0 	; this$
  01cad	17		 ldc.i.1 1	; i32 0x1
  01cae	28 00 00 00 00	 call ?set@FormBorderStyle@Form@Forms@Windows@System@@$$FQ$AAMXW41345@@Z

; 724  : 			this->HelpButton = true;

  01cb3	02		 ldarg.0 	; this$
  01cb4	17		 ldc.i.1 1	; u8 0x1
  01cb5	28 00 00 00 00	 call ?set@HelpButton@Form@Forms@Windows@System@@$$FQ$AAMX_N@Z

; 725  : 			this->Icon = (cli::safe_cast<System::Drawing::Icon^  >(resources->GetObject(L"$this.Icon")));

  01cba	02		 ldarg.0 	; this$
  01cbb	08		 ldloc.2 	; resources$
  01cbc	72 00 00 00 00	 ldstr $StringLiteralTok$??_C@_1BG@GPPJDCEN@?$AA$?$AAt?$AAh?$AAi?$AAs?$AA?4?$AAI?$AAc?$AAo?$AAn?$AA?$AA@
  01cc1	6f 00 00 00 00	 callvirt ?GetObject@ResourceManager@Resources@System@@$$FU$AAMP$AAVObject@3@P$AAVString@3@@Z
  01cc6	74 00 00 00 00	 castClass $TypeTok$112E75D4$
  01ccb	28 00 00 00 00	 call ?set@Icon@Form@Forms@Windows@System@@$$FQ$AAMXP$AAV1Drawing@5@@Z

; 726  : 			this->MainMenuStrip = this->menuStrip1;

  01cd0	02		 ldarg.0 	; this$
  01cd1	25		 dup 
  01cd2	7b 00 00 00 00	 ldfld ?menuStrip1@Form1@Mogitter@@3P$AAVMenuStrip@Forms@Windows@System@@$AA
  01cd7	28 00 00 00 00	 call ?set@MainMenuStrip@Form@Forms@Windows@System@@$$FQ$AAMXP$AAVMenuStrip@345@@Z

; 727  : 			this->MaximizeBox = false;

  01cdc	02		 ldarg.0 	; this$
  01cdd	16		 ldc.i.0 0	; u8 0x0
  01cde	28 00 00 00 00	 call ?set@MaximizeBox@Form@Forms@Windows@System@@$$FQ$AAMX_N@Z

; 728  : 			this->Name = L"Form1";

  01ce3	02		 ldarg.0 	; this$
  01ce4	72 00 00 00 00	 ldstr $StringLiteralTok$??_C@_1M@GJBAGBNA@?$AAF?$AAo?$AAr?$AAm?$AA1?$AA?$AA@
  01ce9	28 00 00 00 00	 call ?set@Name@Control@Forms@Windows@System@@$$FQ$AAMXP$AAVString@5@@Z

; 729  : 			this->StartPosition = System::Windows::Forms::FormStartPosition::CenterScreen;

  01cee	02		 ldarg.0 	; this$
  01cef	17		 ldc.i.1 1	; i32 0x1
  01cf0	28 00 00 00 00	 call ?set@StartPosition@Form@Forms@Windows@System@@$$FQ$AAMXW4FormStartPosition@345@@Z

; 730  : 			this->Text = L"MogiEditor";

  01cf5	02		 ldarg.0 	; this$
  01cf6	72 00 00 00 00	 ldstr $StringLiteralTok$??_C@_1BG@NCENGOK@?$AAM?$AAo?$AAg?$AAi?$AAE?$AAd?$AAi?$AAt?$AAo?$AAr?$AA?$AA@
  01cfb	6f 00 00 00 00	 callvirt ?set@Text@Form@Forms@Windows@System@@$$FU$AAMXP$AAVString@5@@Z

; 731  : 			this->Load += gcnew System::EventHandler(this, &Form1::Form1_Load);

  01d00	02		 ldarg.0 	; this$
  01d01	25		 dup 
  01d02	fe 06 00 00 00
	00		 ldftn ?Form1_Load@Form1@Mogitter@@$$FA$AAMXP$AAVObject@System@@P$AAVEventArgs@4@@Z
  01d08	73 00 00 00 00	 newobj ??0EventHandler@System@@$$FQ$AAM@P$AAVObject@1@VIntPtr@1@@Z
  01d0d	28 00 00 00 00	 call ?add@Load@Form@Forms@Windows@System@@$$FQ$AAMXP$AAVEventHandler@5@@Z

; 732  : 			this->menuStrip1->ResumeLayout(false);

  01d12	02		 ldarg.0 	; this$
  01d13	7b 00 00 00 00	 ldfld ?menuStrip1@Form1@Mogitter@@3P$AAVMenuStrip@Forms@Windows@System@@$AA
  01d18	16		 ldc.i.0 0	; u8 0x0
  01d19	28 00 00 00 00	 call ?ResumeLayout@Control@Forms@Windows@System@@$$FQ$AAMX_N@Z

; 733  : 			this->menuStrip1->PerformLayout();

  01d1e	02		 ldarg.0 	; this$
  01d1f	7b 00 00 00 00	 ldfld ?menuStrip1@Form1@Mogitter@@3P$AAVMenuStrip@Forms@Windows@System@@$AA
  01d24	28 00 00 00 00	 call ?PerformLayout@Control@Forms@Windows@System@@$$FQ$AAMXXZ

; 734  : 			this->makeOrDeleteBox->ResumeLayout(false);

  01d29	02		 ldarg.0 	; this$
  01d2a	7b 00 00 00 00	 ldfld ?makeOrDeleteBox@Form1@Mogitter@@3P$AAVGroupBox@Forms@Windows@System@@$AA
  01d2f	16		 ldc.i.0 0	; u8 0x0
  01d30	28 00 00 00 00	 call ?ResumeLayout@Control@Forms@Windows@System@@$$FQ$AAMX_N@Z

; 735  : 			this->makeOrDeleteBox->PerformLayout();

  01d35	02		 ldarg.0 	; this$
  01d36	7b 00 00 00 00	 ldfld ?makeOrDeleteBox@Form1@Mogitter@@3P$AAVGroupBox@Forms@Windows@System@@$AA
  01d3b	28 00 00 00 00	 call ?PerformLayout@Control@Forms@Windows@System@@$$FQ$AAMXXZ

; 736  : 			this->kindSetBox->ResumeLayout(false);

  01d40	02		 ldarg.0 	; this$
  01d41	7b 00 00 00 00	 ldfld ?kindSetBox@Form1@Mogitter@@3P$AAVGroupBox@Forms@Windows@System@@$AA
  01d46	16		 ldc.i.0 0	; u8 0x0
  01d47	28 00 00 00 00	 call ?ResumeLayout@Control@Forms@Windows@System@@$$FQ$AAMX_N@Z

; 737  : 			this->kindSetBox->PerformLayout();

  01d4c	02		 ldarg.0 	; this$
  01d4d	7b 00 00 00 00	 ldfld ?kindSetBox@Form1@Mogitter@@3P$AAVGroupBox@Forms@Windows@System@@$AA
  01d52	28 00 00 00 00	 call ?PerformLayout@Control@Forms@Windows@System@@$$FQ$AAMXXZ

; 738  : 			this->keishikiBox->ResumeLayout(false);

  01d57	02		 ldarg.0 	; this$
  01d58	7b 00 00 00 00	 ldfld ?keishikiBox@Form1@Mogitter@@3P$AAVGroupBox@Forms@Windows@System@@$AA
  01d5d	16		 ldc.i.0 0	; u8 0x0
  01d5e	28 00 00 00 00	 call ?ResumeLayout@Control@Forms@Windows@System@@$$FQ$AAMX_N@Z

; 739  : 			this->keishikiBox->PerformLayout();

  01d63	02		 ldarg.0 	; this$
  01d64	7b 00 00 00 00	 ldfld ?keishikiBox@Form1@Mogitter@@3P$AAVGroupBox@Forms@Windows@System@@$AA
  01d69	28 00 00 00 00	 call ?PerformLayout@Control@Forms@Windows@System@@$$FQ$AAMXXZ

; 740  : 			(cli::safe_cast<System::ComponentModel::ISupportInitialize^  >(this->randomQNum))->EndInit();

  01d6e	02		 ldarg.0 	; this$
  01d6f	7b 00 00 00 00	 ldfld ?randomQNum@Form1@Mogitter@@3P$AAVNumericUpDown@Forms@Windows@System@@$AA
  01d74	6f 00 00 00 00	 callvirt ?EndInit@ISupportInitialize@ComponentModel@System@@$$FU$AAMXXZ

; 741  : 			this->statusStrip1->ResumeLayout(false);

  01d79	02		 ldarg.0 	; this$
  01d7a	7b 00 00 00 00	 ldfld ?statusStrip1@Form1@Mogitter@@3P$AAVStatusStrip@Forms@Windows@System@@$AA
  01d7f	16		 ldc.i.0 0	; u8 0x0
  01d80	28 00 00 00 00	 call ?ResumeLayout@Control@Forms@Windows@System@@$$FQ$AAMX_N@Z

; 742  : 			this->statusStrip1->PerformLayout();

  01d85	02		 ldarg.0 	; this$
  01d86	7b 00 00 00 00	 ldfld ?statusStrip1@Form1@Mogitter@@3P$AAVStatusStrip@Forms@Windows@System@@$AA
  01d8b	28 00 00 00 00	 call ?PerformLayout@Control@Forms@Windows@System@@$$FQ$AAMXXZ

; 743  : 			this->ResumeLayout(false);

  01d90	02		 ldarg.0 	; this$
  01d91	16		 ldc.i.0 0	; u8 0x0
  01d92	28 00 00 00 00	 call ?ResumeLayout@Control@Forms@Windows@System@@$$FQ$AAMX_N@Z

; 744  : 			this->PerformLayout();

  01d97	02		 ldarg.0 	; this$
  01d98	28 00 00 00 00	 call ?PerformLayout@Control@Forms@Windows@System@@$$FQ$AAMXXZ

; 745  : 
; 746  : 		}

  01d9d	2a		 ret 
 .end ?InitializeComponent@Form1@Mogitter@@$$FA$AAMXXZ	; Mogitter::Form1::InitializeComponent
;	.proc.end.void
; Function compile flags: /Ogsp
; File f:\meijin4\c++\mogitter\mogitter\form1.h
	.text
	.comdat	any, ??0Form1@Mogitter@@$$FQ$AAM@XZ
.global	??0Form1@Mogitter@@$$FQ$AAM@XZ			; Mogitter::Form1::Form1
??0Form1@Mogitter@@$$FQ$AAM@XZ:				; Mogitter::Form1::Form1
;	.proc.def	D:V()

; Function Header:
; max stack depth = 2
; function size = 41 bytes
; local varsig tk = 0x0 
; Exception Information:
; 1 handlers, each consisting of filtered handlers

;	.formal.mptr 0,"this$" SIG: Optional C Binding Modifier(token:0x38BA05).class (token:0x38BA08)

;	.proc.beg

; 30   : 		Form1(void)

  0000b	02		 ldarg.0 	; this$
  0000c	28 00 00 00 00	 call ??0Form@Forms@Windows@System@@$$FQ$AAM@XZ
$LN4@Form1:

; 31   : 		{
; 32   : 			InitializeComponent();

  00012	02		 ldarg.0 	; this$
  00013	28 00 00 00 00	 call ?InitializeComponent@Form1@Mogitter@@$$FA$AAMXXZ

; 33   : 			//
; 34   : 			//TODO: ここにコンストラクタ コードを追加します
; 35   : 			//
; 36   : 			fileName="";

  00018	02		 ldarg.0 	; this$
  00019	72 00 00 00 00	 ldstr $StringLiteralTok$??_C@_11LOCGONAA@?$AA?$AA@
  0001e	7d 00 00 00 00	 stfld ?fileName@Form1@Mogitter@@3P$AAVString@System@@$AA

; 37   : 			dropOpen=false;

  00023	02		 ldarg.0 	; this$
  00024	16		 ldc.i.0 0	; u8 0x0
  00025	7d 00 00 00 00	 stfld ?dropOpen@Form1@Mogitter@@3_NA
  0002a	de 08		 leave.s $LN5@Form1
$LN6@Form1:
  0002c	02		 ldarg.0 	; this$
  0002d	17		 ldc.i.1 1	; u8 0x1
  0002e	28 00 00 00 00	 call ?<Dispose>@Form@Forms@Windows@System@@$$FM$AAMX_N@Z
  00033	dc		 endfinally 
$LN5@Form1:

; 38   : 		}

  00034	2a		 ret 
 .end ??0Form1@Mogitter@@$$FQ$AAM@XZ			; Mogitter::Form1::Form1
;	.proc.end.void
	.bss
.local	$T1,0
; Function compile flags: /Ogsp
; File f:\meijin4\c++\mogitter\mogitter\mogimeijin.cpp
	.text
	.comdat	noduplicate, ?main@@$$HYMHP$01AP$AAVString@System@@@Z
.global	?main@@$$HYMHP$01AP$AAVString@System@@@Z	; main
?main@@$$HYMHP$01AP$AAVString@System@@@Z:		; main
;	.proc.def	D:I(P)

; Function Header:
; max stack depth = 2
; function size = 103 bytes
; local varsig tk = 0x1100004B 
; Exception Information:
; 0 handlers, each consisting of filtered handlers

;	.formal.mptr 0,"args$" SIG: szarray (token:0x3D1E3B5)
;	.local.mptr 0,"mt$2" SIG: class (token:0x3D729AD)
;	.local.mptr 3,"str$3" SIG: string
;	.local.mptr 2,"spr$4" SIG: class (token:0x3D7B975)
;	.local.mptr 1,"spr$5" SIG: class (token:0x3D7B975)

;	.proc.beg

; 29   : 	// コントロールが作成される前に、Windows XP ビジュアル効果を有効にします
; 30   : 	Application::EnableVisualStyles();

  0000b	28 00 00 00 00	 call ?EnableVisualStyles@Application@Forms@Windows@System@@$$FSMXXZ

; 31   : 	Application::SetCompatibleTextRenderingDefault(false); 

  00010	16		 ldc.i.0 0	; u8 0x0
  00011	28 00 00 00 00	 call ?SetCompatibleTextRenderingDefault@Application@Forms@Windows@System@@$$FSMX_N@Z

; 32   : 
; 33   : 	// メイン ウィンドウを作成して、実行します
; 34   : 	if(args->Length > 0 && args[0]->EndsWith(".mogi")){

  00016	02		 ldarg.0 	; args$
  00017	8e		 ldlen 
  00018	16		 ldc.i.0 0	; i32 0x0
  00019	31 45		 ble.s $LN2@main
  0001b	02		 ldarg.0 	; args$
  0001c	16		 ldc.i.0 0	; i32 0x0
  0001d	9a		 ldelem.ref 
  0001e	72 00 00 00 00	 ldstr $StringLiteralTok$??_C@_1M@LCHILMK@?$AA?4?$AAm?$AAo?$AAg?$AAi?$AA?$AA@
  00023	28 00 00 00 00	 call ?EndsWith@String@System@@$$FQ$AAM_NP$AAV12@@Z
  00028	2c 36		 brfalse.s $LN2@main

; 35   : 		MogiTest^ mt = gcnew MogiTest();

  0002a	73 00 00 00 00	 newobj ??0MogiTest@Mogitter@@$$FQ$AAM@XZ
  0002f	0a		 stloc.0 	; mt$2

; 36   : 		StreamReader^ reader = gcnew StreamReader(args[0],System::Text::Encoding::GetEncoding("shift-jis"));

  00030	02		 ldarg.0 	; args$
  00031	16		 ldc.i.0 0	; i32 0x0
  00032	9a		 ldelem.ref 
  00033	72 00 00 00 00	 ldstr $StringLiteralTok$??_C@_1BE@HKELIMGC@?$AAs?$AAh?$AAi?$AAf?$AAt?$AA?9?$AAj?$AAi?$AAs?$AA?$AA@
  00038	28 00 00 00 00	 call ?GetEncoding@Encoding@Text@System@@$$FSMP$AAV123@P$AAVString@3@@Z
  0003d	73 00 00 00 00	 newobj ??0StreamReader@IO@System@@$$FQ$AAM@P$AAVString@2@P$AAVEncoding@Text@2@@Z

; 37   : 		String^ str = reader->ReadToEnd();

  00042	6f 00 00 00 00	 callvirt ?ReadToEnd@StreamReader@IO@System@@$$FU$AAMP$AAVString@3@XZ
  00047	0d		 stloc.3 	; str$3

; 38   : 		mt->compile(str);

  00048	06		 ldloc.0 	; mt$2
  00049	09		 ldloc.3 	; str$3
  0004a	28 00 00 00 00	 call ?compile@MogiTest@Mogitter@@$$FQ$AAM_NP$AAVString@System@@@Z
  0004f	26		 pop 

; 39   : 		Sprash^ spr=gcnew Sprash();

  00050	73 00 00 00 00	 newobj ??0Sprash@Mogitter@@$$FQ$AAM@XZ
  00055	0c		 stloc.2 	; spr$4

; 40   : 		printSprash(mt,spr);

  00056	06		 ldloc.0 	; mt$2
  00057	08		 ldloc.2 	; spr$4
  00058	28 00 00 00 00	 call ?printSprash@@$$FYMXP$AAVForm@Forms@Windows@System@@P$AAVSprash@Mogitter@@@Z

; 41   : 	}else{

  0005d	2b 12		 br.s $LN1@main
$LN2@main:

; 42   : 		Sprash^ spr=gcnew Sprash();

  00060	73 00 00 00 00	 newobj ??0Sprash@Mogitter@@$$FQ$AAM@XZ
  00065	0b		 stloc.1 	; spr$5

; 43   : 		Form1^ form = gcnew Form1();

  00066	73 00 00 00 00	 newobj ??0Form1@Mogitter@@$$FQ$AAM@XZ

; 44   : 		printSprash(form,spr);

  0006b	07		 ldloc.1 	; spr$5
  0006c	28 00 00 00 00	 call ?printSprash@@$$FYMXP$AAVForm@Forms@Windows@System@@P$AAVSprash@Mogitter@@@Z
$LN1@main:

; 45   : 	}
; 46   : 	return 0;

  00071	16		 ldc.i.0 0	; i32 0x0
  00072	2a		 ret 
 .end ?main@@$$HYMHP$01AP$AAVString@System@@@Z		; main
;	.proc.end.i4
