; Listing generated by Microsoft (R) Optimizing Compiler Version 17.00.50727.1 

; Generated by VC++ for Common Language Runtime
.file "F:\Meijin4\C++\Mogitter\Mogitter\QMarking.cpp"
.global	
.global	
.global	
.global	
.global	
.global	?score@MogiTest@Mogitter@@3HA			; Mogitter::MogiTest::score
.global	?qCountField@MogiTest@Mogitter@@3HA		; Mogitter::MogiTest::qCountField
.global	?questNum@QMarking@Mogitter@@3P$AAVLabel@Forms@Windows@System@@$AA ; Mogitter::QMarking::questNum
.global	?collectNum@QMarking@Mogitter@@3P$AAVLabel@Forms@Windows@System@@$AA ; Mogitter::QMarking::collectNum
.global	?persentNum@QMarking@Mogitter@@3P$AAVLabel@Forms@Windows@System@@$AA ; Mogitter::QMarking::persentNum
.global	?keikaSec@MogiTest@Mogitter@@3HA		; Mogitter::MogiTest::keikaSec
.global	?timeLabel@QMarking@Mogitter@@3P$AAVLabel@Forms@Windows@System@@$AA ; Mogitter::QMarking::timeLabel
	.bss
.local	,4
.local	,4
.local	,4
.local	,4
.local	,4
.local	?score@MogiTest@Mogitter@@3HA,4			; Mogitter::MogiTest::score
.local	?qCountField@MogiTest@Mogitter@@3HA,4		; Mogitter::MogiTest::qCountField
.local	$StringLiteralTok$??_C@_13GKPPEALH@?$AAd?$AA?$AA@,4
.local	?questNum@QMarking@Mogitter@@3P$AAVLabel@Forms@Windows@System@@$AA,4 ; Mogitter::QMarking::questNum
.local	?collectNum@QMarking@Mogitter@@3P$AAVLabel@Forms@Windows@System@@$AA,4 ; Mogitter::QMarking::collectNum
.local	?persentNum@QMarking@Mogitter@@3P$AAVLabel@Forms@Windows@System@@$AA,4 ; Mogitter::QMarking::persentNum
.local	?keikaSec@MogiTest@Mogitter@@3HA,4		; Mogitter::MogiTest::keikaSec
.local	?timeLabel@QMarking@Mogitter@@3P$AAVLabel@Forms@Windows@System@@$AA,4 ; Mogitter::QMarking::timeLabel
.local	$StringLiteralTok$??_C@_1M@PCAILPA@m?$II?$IM?$LLfB?$JF?$JD?$PP?$BK?$AA?$AA@,4
.local	$TypeTok$11003074$,4
.local	$StringLiteralTok$??_C@_13JEOIIFOB@R?$AG?$AA?$AA@,4
.local	$StringLiteralTok$??_C@_13JMGACCO@y?R?$AA?$AA@,4
.local	$T1,0
; Function compile flags: /Ogsp
; File f:\meijin4\c++\mogitter\mogitter\qmarking.cpp
	.text
	.comdat	noduplicate, ?markingX@QMarking@Mogitter@@$$FQ$AAMHXZ
.global	?markingX@QMarking@Mogitter@@$$FQ$AAMHXZ	; Mogitter::QMarking::markingX
?markingX@QMarking@Mogitter@@$$FQ$AAMHXZ:		; Mogitter::QMarking::markingX
;	.proc.def	D:I()

; Function Header:
; max stack depth = 4
; function size = 228 bytes
; local varsig tk = 0x11000006 
; Exception Information:
; 0 handlers, each consisting of filtered handlers

;	.formal.mptr 0,"this$" SIG: Optional C Binding Modifier(token:0x38F1B5).class (token:0x38F1B8)
;	.local.mptr 1,"test$2" SIG: class (token:0x38F11D)
;	.local.i4 4,"sc$3" SIG: i4
;	.local.i4 0,"qn$4" SIG: i4
;	.local.r8 3,"per$5" SIG: r8
;	.local.mptr 5,"perStr$6" SIG: string
;	.local.i4 8,"$T7" SIG: i4
;	.local.i4 7,"$T8" SIG: i4
;	.local.i4 6,"$T9" SIG: i4
;	.local.i4 2,"$T10" SIG: i4

;	.proc.beg

; 27   : 	if (this->Owner != nullptr){

  0000b	02		 ldarg.0 	; this$
  0000c	28 00 00 00 00	 call ?get@Owner@Form@Forms@Windows@System@@$$FQ$AAMP$AAV2345@XZ
  00011	39 d8 00 00 00	 brfalse $LN2@markingX

; 28   : 		//親のフォームクラス
; 29   : 		MogiTest^ test = static_cast<MogiTest^>(this->Owner);

  00016	02		 ldarg.0 	; this$
  00017	28 00 00 00 00	 call ?get@Owner@Form@Forms@Windows@System@@$$FQ$AAMP$AAV2345@XZ
  0001c	0b		 stloc.1 	; test$2

; 30   : 		int sc = test->score;

  0001d	07		 ldloc.1 	; test$2
  0001e	7b 00 00 00 00	 ldfld ?score@MogiTest@Mogitter@@3HA
  00023	13 04		 stloc.s 4	; sc$3

; 31   : 		int qn = test->qCountField;

  00025	07		 ldloc.1 	; test$2
  00026	7b 00 00 00 00	 ldfld ?qCountField@MogiTest@Mogitter@@3HA
  0002b	0a		 stloc.0 	; qn$4

; 32   : 		double per = (double)sc/(double)(qn)*100;

  0002c	11 04		 ldloc.s 4	; sc$3
  0002e	6c		 conv.r8 
  0002f	06		 ldloc.0 	; qn$4
  00030	6c		 conv.r8 
  00031	5b		 div 
  00032	23 00 00 00 00
	00 00 59 40	 ldc.r8 100.000000
  0003b	5a		 mul 
  0003c	0d		 stloc.3 	; per$5

; 33   : 		if(qn == 0)

  0003d	06		 ldloc.0 	; qn$4
  0003e	2d 0b		 brtrue.s $LN1@markingX

; 34   : 			per = 0;

  00040	23 00 00 00 00
	00 00 00 00	 ldc.r8 0.000000
  00049	0d		 stloc.3 	; per$5
$LN1@markingX:

; 35   : 		String^ perStr = int(per).ToString("d");

  0004b	09		 ldloc.3 	; per$5
  0004c	69		 conv.i4 
  0004d	13 08		 stloc.s 8	; $T7
  0004f	12 08		 ldloca.s 8	; $T7
  00051	72 00 00 00 00	 ldstr $StringLiteralTok$??_C@_13GKPPEALH@?$AAd?$AA?$AA@
  00056	28 00 00 00 00	 call ?ToString@Int32@System@@$$FQ$CAMP$AAVString@2@P$AAV32@@Z
  0005b	13 05		 stloc.s 5	; perStr$6

; 36   : 		questNum->Text = qn.ToString()->PadLeft(3);

  0005d	06		 ldloc.0 	; qn$4
  0005e	13 07		 stloc.s 7	; $T8
  00060	02		 ldarg.0 	; this$
  00061	7b 00 00 00 00	 ldfld ?questNum@QMarking@Mogitter@@3P$AAVLabel@Forms@Windows@System@@$AA
  00066	12 07		 ldloca.s 7	; $T8
  00068	28 00 00 00 00	 call ?ToString@Int32@System@@$$FU$CAMP$AAVString@2@XZ
  0006d	19		 ldc.i.3 3	; i32 0x3
  0006e	28 00 00 00 00	 call ?PadLeft@String@System@@$$FQ$AAMP$AAV12@H@Z
  00073	6f 00 00 00 00	 callvirt ?set@Text@Label@Forms@Windows@System@@$$FU$AAMXP$AAVString@5@@Z

; 37   : 		collectNum->Text = sc.ToString()->PadLeft(3);

  00078	11 04		 ldloc.s 4	; sc$3
  0007a	13 06		 stloc.s 6	; $T9
  0007c	02		 ldarg.0 	; this$
  0007d	7b 00 00 00 00	 ldfld ?collectNum@QMarking@Mogitter@@3P$AAVLabel@Forms@Windows@System@@$AA
  00082	12 06		 ldloca.s 6	; $T9
  00084	28 00 00 00 00	 call ?ToString@Int32@System@@$$FU$CAMP$AAVString@2@XZ
  00089	19		 ldc.i.3 3	; i32 0x3
  0008a	28 00 00 00 00	 call ?PadLeft@String@System@@$$FQ$AAMP$AAV12@H@Z
  0008f	6f 00 00 00 00	 callvirt ?set@Text@Label@Forms@Windows@System@@$$FU$AAMXP$AAVString@5@@Z

; 38   : 		persentNum->Text = perStr->PadLeft(3);

  00094	02		 ldarg.0 	; this$
  00095	7b 00 00 00 00	 ldfld ?persentNum@QMarking@Mogitter@@3P$AAVLabel@Forms@Windows@System@@$AA
  0009a	11 05		 ldloc.s 5	; perStr$6
  0009c	19		 ldc.i.3 3	; i32 0x3
  0009d	28 00 00 00 00	 call ?PadLeft@String@System@@$$FQ$AAMP$AAV12@H@Z
  000a2	6f 00 00 00 00	 callvirt ?set@Text@Label@Forms@Windows@System@@$$FU$AAMXP$AAVString@5@@Z

; 39   : 		timeLabel->Text = "消費時間："+test->keikaSec/60+"分"+test->keikaSec%60+"秒";

  000a7	07		 ldloc.1 	; test$2
  000a8	7b 00 00 00 00	 ldfld ?keikaSec@MogiTest@Mogitter@@3HA
  000ad	0c		 stloc.2 	; $T10
  000ae	02		 ldarg.0 	; this$
  000af	7b 00 00 00 00	 ldfld ?timeLabel@QMarking@Mogitter@@3P$AAVLabel@Forms@Windows@System@@$AA
  000b4	72 00 00 00 00	 ldstr $StringLiteralTok$??_C@_1M@PCAILPA@m?$II?$IM?$LLfB?$JF?$JD?$PP?$BK?$AA?$AA@
  000b9	08		 ldloc.2 	; $T10
  000ba	1f 3c		 ldc.i4.s 60	; i32 0x3c
  000bc	5b		 div 
  000bd	8c 00 00 00 00	 box $TypeTok$11003074$
  000c2	28 00 00 00 00	 call ?Concat@String@System@@$$FSMP$AAV12@P$AAVObject@2@0@Z
  000c7	72 00 00 00 00	 ldstr $StringLiteralTok$??_C@_13JEOIIFOB@R?$AG?$AA?$AA@
  000cc	28 00 00 00 00	 call ?Concat@String@System@@$$FSMP$AAV12@P$AAV12@0@Z
  000d1	08		 ldloc.2 	; $T10
  000d2	1f 3c		 ldc.i4.s 60	; i32 0x3c
  000d4	5d		 rem 
  000d5	8c 00 00 00 00	 box $TypeTok$11003074$
  000da	28 00 00 00 00	 call ?Concat@String@System@@$$FSMP$AAV12@P$AAVObject@2@0@Z
  000df	72 00 00 00 00	 ldstr $StringLiteralTok$??_C@_13JMGACCO@y?R?$AA?$AA@
  000e4	28 00 00 00 00	 call ?Concat@String@System@@$$FSMP$AAV12@P$AAV12@0@Z
  000e9	6f 00 00 00 00	 callvirt ?set@Text@Label@Forms@Windows@System@@$$FU$AAMXP$AAVString@5@@Z
$LN2@markingX:

; 40   : 	}
; 41   : 	return 0;

  000ee	16		 ldc.i.0 0	; i32 0x0
  000ef	2a		 ret 
 .end ?markingX@QMarking@Mogitter@@$$FQ$AAMHXZ		; Mogitter::QMarking::markingX
;	.proc.end.i4
.global	
.global	?toEsc@MogiTest@Mogitter@@2P$01AP$AAVString@System@@A ; Mogitter::MogiTest::toEsc
	.bss
.local	,4
.local	?toEsc@MogiTest@Mogitter@@2P$01AP$AAVString@System@@A,4 ; Mogitter::MogiTest::toEsc
.local	$StringLiteralTok$??_C@_13NEIAEHFG@?$AA?$CC?$AA?$AA@,4
.local	$T1,0
; Function compile flags: /Ogsp
; File f:\meijin4\c++\mogitter\mogitter\mogitest.h
	.text
	.comdat	any, ?escapeReady@MogiTest@Mogitter@@$$FSMP$AAVString@System@@P$AAV34@@Z
.global	?escapeReady@MogiTest@Mogitter@@$$FSMP$AAVString@System@@P$AAV34@@Z ; Mogitter::MogiTest::escapeReady
?escapeReady@MogiTest@Mogitter@@$$FSMP$AAVString@System@@P$AAV34@@Z: ; Mogitter::MogiTest::escapeReady
;	.proc.def	D:P(P)

; Function Header:
; max stack depth = 4
; function size = 60 bytes
; local varsig tk = 0x11000008 
; Exception Information:
; 0 handlers, each consisting of filtered handlers

;	.formal.mptr 0,"text$" SIG: string
;	.local.mptr 2,"txt$" SIG: string
;	.local.mptr 1,"$S118$2" SIG: szarray (token:0x38EE3D)
;	.local.i4 0,"$I$3" SIG: i4
;	.local.mptr 4,"esc$4" SIG: string
;	.local.i4 3,"$T5" SIG: string

;	.proc.beg

; 558  : 				String^ txt = text;

  0000b	02		 ldarg.0 	; text$
  0000c	0c		 stloc.2 	; txt$

; 559  : 				for each(String^ esc in toEsc){

  0000d	7e 00 00 00 00	 ldsfld ?toEsc@MogiTest@Mogitter@@2P$01AP$AAVString@System@@A
  00012	0b		 stloc.1 	; $S118$2
  00013	16		 ldc.i.0 0	; i32 0x0
  00014	0a		 stloc.0 	; $I$3
  00015	16		 ldc.i.0 0	; i32 0x0
  00016	07		 ldloc.1 	; $S118$2
  00017	8e		 ldlen 
  00018	2f 2c		 bge.s $LN1@escapeRead
$LL3@escapeRead:
  0001b	07		 ldloc.1 	; $S118$2
  0001c	06		 ldloc.0 	; $I$3
  0001d	9a		 ldelem.ref 
  0001e	13 04		 stloc.s 4	; esc$4

; 560  : 					txt = txt->Replace(esc,"\""+esc+"\"");

  00020	72 00 00 00 00	 ldstr $StringLiteralTok$??_C@_13NEIAEHFG@?$AA?$CC?$AA?$AA@
  00025	0d		 stloc.3 	; $T5
  00026	08		 ldloc.2 	; txt$
  00027	11 04		 ldloc.s 4	; esc$4
  00029	09		 ldloc.3 	; $T5
  0002a	11 04		 ldloc.s 4	; esc$4
  0002c	28 00 00 00 00	 call ?Concat@String@System@@$$FSMP$AAV12@P$AAV12@0@Z
  00031	09		 ldloc.3 	; $T5
  00032	28 00 00 00 00	 call ?Concat@String@System@@$$FSMP$AAV12@P$AAV12@0@Z
  00037	28 00 00 00 00	 call ?Replace@String@System@@$$FQ$AAMP$AAV12@P$AAV12@0@Z
  0003c	0c		 stloc.2 	; txt$

; 559  : 				for each(String^ esc in toEsc){

  0003d	06		 ldloc.0 	; $I$3
  0003e	17		 ldc.i.1 1	; i32 0x1
  0003f	58		 add 
  00040	0a		 stloc.0 	; $I$3
  00041	06		 ldloc.0 	; $I$3
  00042	07		 ldloc.1 	; $S118$2
  00043	8e		 ldlen 
  00044	32 d5		 blt.s $LL3@escapeRead
$LN1@escapeRead:

; 561  : 				}
; 562  : 				return txt;

  00046	08		 ldloc.2 	; txt$
  00047	2a		 ret 
 .end ?escapeReady@MogiTest@Mogitter@@$$FSMP$AAVString@System@@P$AAV34@@Z ; Mogitter::MogiTest::escapeReady
;	.proc.end.mptr
	.bss
.local	$StringLiteralTok$??_C@_13EFKPHINO@?$AA?$EA?$AA?$AA@,4
.local	$T1,0
; Function compile flags: /Ogsp
; File f:\meijin4\c++\mogitter\mogitter\mogitest.h
	.text
	.comdat	any, ?escapeSet@MogiTest@Mogitter@@$$FSMP$AAVString@System@@P$AAV34@@Z
.global	?escapeSet@MogiTest@Mogitter@@$$FSMP$AAVString@System@@P$AAV34@@Z ; Mogitter::MogiTest::escapeSet
?escapeSet@MogiTest@Mogitter@@$$FSMP$AAVString@System@@P$AAV34@@Z: ; Mogitter::MogiTest::escapeSet
;	.proc.def	D:P(P)

; Function Header:
; max stack depth = 4
; function size = 124 bytes
; local varsig tk = 0x11000009 
; Exception Information:
; 0 handlers, each consisting of filtered handlers

;	.formal.mptr 0,"text$" SIG: string
;	.local.mptr 3,"txt$" SIG: string
;	.local.i4 2,"i$" SIG: i4
;	.local.mptr 1,"$S119$2" SIG: szarray (token:0x38EE3D)
;	.local.i4 0,"$I$3" SIG: i4
;	.local.mptr 5,"esc$4" SIG: string
;	.local.i4 6,"$T5" SIG: i4
;	.local.i4 4,"$T6" SIG: string

;	.proc.beg

; 565  : 				String^ txt = text;

  0000b	02		 ldarg.0 	; text$
  0000c	0d		 stloc.3 	; txt$

; 566  : 				int i=toEsc->Length-1;

  0000d	7e 00 00 00 00	 ldsfld ?toEsc@MogiTest@Mogitter@@2P$01AP$AAVString@System@@A
  00012	8e		 ldlen 
  00013	17		 ldc.i.1 1	; i32 0x1
  00014	59		 sub 
  00015	0c		 stloc.2 	; i$

; 567  : 				System::Array::Reverse(toEsc);

  00016	7e 00 00 00 00	 ldsfld ?toEsc@MogiTest@Mogitter@@2P$01AP$AAVString@System@@A
  0001b	28 00 00 00 00	 call ?Reverse@Array@System@@$$FSMXP$AAV12@@Z

; 568  : 				for each(String^ esc in toEsc){

  00020	7e 00 00 00 00	 ldsfld ?toEsc@MogiTest@Mogitter@@2P$01AP$AAVString@System@@A
  00025	0b		 stloc.1 	; $S119$2
  00026	16		 ldc.i.0 0	; i32 0x0
  00027	0a		 stloc.0 	; $I$3
  00028	16		 ldc.i.0 0	; i32 0x0
  00029	07		 ldloc.1 	; $S119$2
  0002a	8e		 ldlen 
  0002b	2f 4f		 bge.s $LN1@escapeSet
$LL3@escapeSet:
  0002e	07		 ldloc.1 	; $S119$2
  0002f	06		 ldloc.0 	; $I$3
  00030	9a		 ldelem.ref 
  00031	13 05		 stloc.s 5	; esc$4

; 569  : 					txt = txt->Replace("\""+esc+"\"","@"+i.ToString()+"@");

  00033	08		 ldloc.2 	; i$
  00034	13 06		 stloc.s 6	; $T5
  00036	72 00 00 00 00	 ldstr $StringLiteralTok$??_C@_13NEIAEHFG@?$AA?$CC?$AA?$AA@
  0003b	13 04		 stloc.s 4	; $T6
  0003d	09		 ldloc.3 	; txt$
  0003e	11 04		 ldloc.s 4	; $T6
  00040	11 05		 ldloc.s 5	; esc$4
  00042	28 00 00 00 00	 call ?Concat@String@System@@$$FSMP$AAV12@P$AAV12@0@Z
  00047	11 04		 ldloc.s 4	; $T6
  00049	28 00 00 00 00	 call ?Concat@String@System@@$$FSMP$AAV12@P$AAV12@0@Z
  0004e	72 00 00 00 00	 ldstr $StringLiteralTok$??_C@_13EFKPHINO@?$AA?$EA?$AA?$AA@
  00053	12 06		 ldloca.s 6	; $T5
  00055	28 00 00 00 00	 call ?ToString@Int32@System@@$$FU$CAMP$AAVString@2@XZ
  0005a	28 00 00 00 00	 call ?Concat@String@System@@$$FSMP$AAV12@P$AAV12@0@Z
  0005f	72 00 00 00 00	 ldstr $StringLiteralTok$??_C@_13EFKPHINO@?$AA?$EA?$AA?$AA@
  00064	28 00 00 00 00	 call ?Concat@String@System@@$$FSMP$AAV12@P$AAV12@0@Z
  00069	28 00 00 00 00	 call ?Replace@String@System@@$$FQ$AAMP$AAV12@P$AAV12@0@Z
  0006e	0d		 stloc.3 	; txt$

; 570  : 					i--;

  0006f	08		 ldloc.2 	; i$
  00070	17		 ldc.i.1 1	; i32 0x1
  00071	59		 sub 
  00072	0c		 stloc.2 	; i$

; 568  : 				for each(String^ esc in toEsc){

  00073	06		 ldloc.0 	; $I$3
  00074	17		 ldc.i.1 1	; i32 0x1
  00075	58		 add 
  00076	0a		 stloc.0 	; $I$3
  00077	06		 ldloc.0 	; $I$3
  00078	07		 ldloc.1 	; $S119$2
  00079	8e		 ldlen 
  0007a	32 b2		 blt.s $LL3@escapeSet
$LN1@escapeSet:

; 571  : 				}
; 572  : 				System::Array::Reverse(toEsc);

  0007c	7e 00 00 00 00	 ldsfld ?toEsc@MogiTest@Mogitter@@2P$01AP$AAVString@System@@A
  00081	28 00 00 00 00	 call ?Reverse@Array@System@@$$FSMXP$AAV12@@Z

; 573  : 				return txt;

  00086	09		 ldloc.3 	; txt$
  00087	2a		 ret 
 .end ?escapeSet@MogiTest@Mogitter@@$$FSMP$AAVString@System@@P$AAV34@@Z ; Mogitter::MogiTest::escapeSet
;	.proc.end.mptr
	.bss
.local	$T1,0
; Function compile flags: /Ogsp
; File f:\meijin4\c++\mogitter\mogitter\mogitest.h
	.text
	.comdat	any, ?escapeReSet@MogiTest@Mogitter@@$$FSMP$AAVString@System@@P$AAV34@@Z
.global	?escapeReSet@MogiTest@Mogitter@@$$FSMP$AAVString@System@@P$AAV34@@Z ; Mogitter::MogiTest::escapeReSet
?escapeReSet@MogiTest@Mogitter@@$$FSMP$AAVString@System@@P$AAV34@@Z: ; Mogitter::MogiTest::escapeReSet
;	.proc.def	D:P(P)

; Function Header:
; max stack depth = 3
; function size = 68 bytes
; local varsig tk = 0x1100000A 
; Exception Information:
; 0 handlers, each consisting of filtered handlers

;	.formal.mptr 0,"text$" SIG: string
;	.local.mptr 2,"txt$" SIG: string
;	.local.mptr 1,"$S120$2" SIG: szarray (token:0x38EE3D)
;	.local.i4 0,"$I$3" SIG: i4
;	.local.mptr 3,"esc$4" SIG: string
;	.local.i4 4,"$T5" SIG: i4

;	.proc.beg

; 576  : 				String^ txt = text;

  0000b	02		 ldarg.0 	; text$
  0000c	0c		 stloc.2 	; txt$

; 577  : 				int i=0;
; 578  : 				for each(String^ esc in toEsc){

  0000d	7e 00 00 00 00	 ldsfld ?toEsc@MogiTest@Mogitter@@2P$01AP$AAVString@System@@A
  00012	0b		 stloc.1 	; $S120$2
  00013	16		 ldc.i.0 0	; i32 0x0
  00014	0a		 stloc.0 	; $I$3
  00015	16		 ldc.i.0 0	; i32 0x0
  00016	07		 ldloc.1 	; $S120$2
  00017	8e		 ldlen 
  00018	2f 34		 bge.s $LN1@escapeReSe
$LL3@escapeReSe:
  0001b	07		 ldloc.1 	; $S120$2
  0001c	06		 ldloc.0 	; $I$3
  0001d	9a		 ldelem.ref 
  0001e	0d		 stloc.3 	; esc$4

; 579  : 					txt = txt->Replace("@"+i.ToString()+"@",esc);

  0001f	06		 ldloc.0 	; $I$3
  00020	13 04		 stloc.s 4	; $T5
  00022	08		 ldloc.2 	; txt$
  00023	72 00 00 00 00	 ldstr $StringLiteralTok$??_C@_13EFKPHINO@?$AA?$EA?$AA?$AA@
  00028	12 04		 ldloca.s 4	; $T5
  0002a	28 00 00 00 00	 call ?ToString@Int32@System@@$$FU$CAMP$AAVString@2@XZ
  0002f	28 00 00 00 00	 call ?Concat@String@System@@$$FSMP$AAV12@P$AAV12@0@Z
  00034	72 00 00 00 00	 ldstr $StringLiteralTok$??_C@_13EFKPHINO@?$AA?$EA?$AA?$AA@
  00039	28 00 00 00 00	 call ?Concat@String@System@@$$FSMP$AAV12@P$AAV12@0@Z
  0003e	09		 ldloc.3 	; esc$4
  0003f	28 00 00 00 00	 call ?Replace@String@System@@$$FQ$AAMP$AAV12@P$AAV12@0@Z
  00044	0c		 stloc.2 	; txt$

; 577  : 				int i=0;
; 578  : 				for each(String^ esc in toEsc){

  00045	06		 ldloc.0 	; $I$3
  00046	17		 ldc.i.1 1	; i32 0x1
  00047	58		 add 
  00048	0a		 stloc.0 	; $I$3
  00049	06		 ldloc.0 	; $I$3
  0004a	07		 ldloc.1 	; $S120$2
  0004b	8e		 ldlen 
  0004c	32 cd		 blt.s $LL3@escapeReSe
$LN1@escapeReSe:

; 580  : 					i++;
; 581  : 				}
; 582  : 				return txt;

  0004e	08		 ldloc.2 	; txt$
  0004f	2a		 ret 
 .end ?escapeReSet@MogiTest@Mogitter@@$$FSMP$AAVString@System@@P$AAV34@@Z ; Mogitter::MogiTest::escapeReSet
;	.proc.end.mptr
.global	
.global	
	.bss
.local	,4
.local	,4
.local	$T1,0
; Function compile flags: /Ogsp
; File f:\meijin4\c++\mogitter\mogitter\mogitest.h
	.text
	.comdat	any, ?getLineText@MogiTest@Mogitter@@$$FA$AAMP$AAVString@System@@P$AAVAzukiControl@WinForms@Azuki@Sgry@@H@Z
.global	?getLineText@MogiTest@Mogitter@@$$FA$AAMP$AAVString@System@@P$AAVAzukiControl@WinForms@Azuki@Sgry@@H@Z ; Mogitter::MogiTest::getLineText
?getLineText@MogiTest@Mogitter@@$$FA$AAMP$AAVString@System@@P$AAVAzukiControl@WinForms@Azuki@Sgry@@H@Z: ; Mogitter::MogiTest::getLineText
;	.proc.def	D:P(PI)

; Function Header:
; max stack depth = 4
; function size = 30 bytes
; local varsig tk = 0x1100000D 
; Exception Information:
; 0 handlers, each consisting of filtered handlers

;	.formal.i4 2,"lineNum$" SIG: i4
;	.formal.mptr 1,"azuki$" SIG: class (token:0x38B175)
;	.local.i4 0,"$T2" SIG: i4

;	.proc.beg

; 836  : 				 return azuki->Text->Substring(azuki->GetLineHeadIndex(lineNum-1),azuki->GetLineLength(lineNum-1));

  0000b	04		 ldarg.2 	; lineNum$
  0000c	17		 ldc.i.1 1	; i32 0x1
  0000d	59		 sub 
  0000e	0a		 stloc.0 	; $T2
  0000f	03		 ldarg.1 	; azuki$
  00010	6f 00 00 00 00	 callvirt ?get@Text@AzukiControl@WinForms@Azuki@Sgry@@$$FU$AAMP$AAVString@System@@XZ
  00015	03		 ldarg.1 	; azuki$
  00016	06		 ldloc.0 	; $T2
  00017	6f 00 00 00 00	 callvirt ?GetLineHeadIndex@AzukiControl@WinForms@Azuki@Sgry@@$$FU$AAMHH@Z
  0001c	03		 ldarg.1 	; azuki$
  0001d	06		 ldloc.0 	; $T2
  0001e	6f 00 00 00 00	 callvirt ?GetLineLength@AzukiControl@WinForms@Azuki@Sgry@@$$FU$AAMHH@Z
  00023	28 00 00 00 00	 call ?Substring@String@System@@$$FQ$AAMP$AAV12@HH@Z
  00028	2a		 ret 
 .end ?getLineText@MogiTest@Mogitter@@$$FA$AAMP$AAVString@System@@P$AAVAzukiControl@WinForms@Azuki@Sgry@@H@Z ; Mogitter::MogiTest::getLineText
;	.proc.end.mptr
.global	
.global	?QNumUpDown@MogiTest@Mogitter@@3P$AAVNumericUpDown@Forms@Windows@System@@$AA ; Mogitter::MogiTest::QNumUpDown
.global	?anaumeGroup@MogiTest@Mogitter@@3P$AAVGroupBox@Forms@Windows@System@@$AA ; Mogitter::MogiTest::anaumeGroup
.global	?sentakuGroup@MogiTest@Mogitter@@3P$AAVGroupBox@Forms@Windows@System@@$AA ; Mogitter::MogiTest::sentakuGroup
.global	?questStrings@MogiTest@Mogitter@@3P$AAV?$List@P$AAVString@System@@@Generic@Collections@System@@$AA ; Mogitter::MogiTest::questStrings
.global	?anaumeAnsBox@MogiTest@Mogitter@@3P$AAVRichTextBox@Forms@Windows@System@@$AA ; Mogitter::MogiTest::anaumeAnsBox
.global	?sentakushiCombo@MogiTest@Mogitter@@3P$AAVComboBox@Forms@Windows@System@@$AA ; Mogitter::MogiTest::sentakushiCombo
.global	?userAnswerArea@MogiTest@Mogitter@@3P$AAVAzukiControl@WinForms@Azuki@Sgry@@$AA ; Mogitter::MogiTest::userAnswerArea
	.bss
.local	,4
.local	?QNumUpDown@MogiTest@Mogitter@@3P$AAVNumericUpDown@Forms@Windows@System@@$AA,4 ; Mogitter::MogiTest::QNumUpDown
.local	?anaumeGroup@MogiTest@Mogitter@@3P$AAVGroupBox@Forms@Windows@System@@$AA,4 ; Mogitter::MogiTest::anaumeGroup
.local	?sentakuGroup@MogiTest@Mogitter@@3P$AAVGroupBox@Forms@Windows@System@@$AA,4 ; Mogitter::MogiTest::sentakuGroup
.local	?questStrings@MogiTest@Mogitter@@3P$AAV?$List@P$AAVString@System@@@Generic@Collections@System@@$AA,4 ; Mogitter::MogiTest::questStrings
.local	$TypeTok$11003218$,4
.local	$va_argTok$_W,4
.local	?anaumeAnsBox@MogiTest@Mogitter@@3P$AAVRichTextBox@Forms@Windows@System@@$AA,4 ; Mogitter::MogiTest::anaumeAnsBox
.local	$StringLiteralTok$??_C@_11LOCGONAA@?$AA?$AA@,4
.local	?sentakushiCombo@MogiTest@Mogitter@@3P$AAVComboBox@Forms@Windows@System@@$AA,4 ; Mogitter::MogiTest::sentakushiCombo
.local	$StringLiteralTok$??_C@_1O@HBJEMMOJ@?$AA?$CI?$AAn?$AAo?$AAn?$AAe?$AA?$CJ?$AA?$AA@,4
.local	?userAnswerArea@MogiTest@Mogitter@@3P$AAVAzukiControl@WinForms@Azuki@Sgry@@$AA,4 ; Mogitter::MogiTest::userAnswerArea
.local	$T1,0
; Function compile flags: /Ogsp
; File f:\meijin4\c++\mogitter\mogitter\mogitest.h
	.text
	.comdat	any, ?qnumDoing@MogiTest@Mogitter@@$$FA$AAMXXZ
.global	?qnumDoing@MogiTest@Mogitter@@$$FA$AAMXXZ	; Mogitter::MogiTest::qnumDoing
?qnumDoing@MogiTest@Mogitter@@$$FA$AAMXXZ:		; Mogitter::MogiTest::qnumDoing
;	.proc.def	D:V()

; Function Header:
; max stack depth = 4
; function size = 463 bytes
; local varsig tk = 0x1100000F 
; Exception Information:
; 0 handlers, each consisting of filtered handlers

;	.formal.mptr 0,"this$" SIG: Optional C Binding Modifier(token:0x391AE5).class (token:0x391AE8)
;	.local.i4 3,"seleNum$" SIG: i4
;	.local.mptr 2,"spliters$2" SIG: szarray (token:0x38EDBD)
;	.local.mptr 6,"splStrs$3" SIG: szarray (token:0x38EE3D)
;	.local.mptr 4,"items$4" SIG: szarray (token:0x38EE3D)
;	.local.i4 1,"$I$5" SIG: i4
;	.local.mptr 0,"item$6" SIG: string
;	.local.mptr 5,"alreadyAns$7" SIG: string

;	.proc.beg

; 846  : 				  int seleNum = Decimal::ToInt32(QNumUpDown->Value);

  0000b	02		 ldarg.0 	; this$
  0000c	7b 00 00 00 00	 ldfld ?QNumUpDown@MogiTest@Mogitter@@3P$AAVNumericUpDown@Forms@Windows@System@@$AA
  00011	28 00 00 00 00	 call ?get@Value@NumericUpDown@Forms@Windows@System@@$$FQ$AAM?AVDecimal@5@XZ
  00016	28 00 00 00 00	 call ?ToInt32@Decimal@System@@$$FSMHV12@@Z
  0001b	0d		 stloc.3 	; seleNum$

; 847  : 				 if(seleNum == 0){

  0001c	09		 ldloc.3 	; seleNum$
  0001d	2d 1e		 brtrue.s $LN10@qnumDoing

; 848  : 					 anaumeGroup->Enabled = false;

  0001f	02		 ldarg.0 	; this$
  00020	7b 00 00 00 00	 ldfld ?anaumeGroup@MogiTest@Mogitter@@3P$AAVGroupBox@Forms@Windows@System@@$AA
  00025	16		 ldc.i.0 0	; u8 0x0
  00026	28 00 00 00 00	 call ?set@Enabled@Control@Forms@Windows@System@@$$FQ$AAMX_N@Z

; 849  : 					 sentakuGroup->Enabled = false;

  0002b	02		 ldarg.0 	; this$
  0002c	7b 00 00 00 00	 ldfld ?sentakuGroup@MogiTest@Mogitter@@3P$AAVGroupBox@Forms@Windows@System@@$AA
  00031	16		 ldc.i.0 0	; u8 0x0
  00032	28 00 00 00 00	 call ?set@Enabled@Control@Forms@Windows@System@@$$FQ$AAMX_N@Z

; 850  : 				 }else{

  00037	38 9e 01 00 00	 br $LN1@qnumDoing
$LN10@qnumDoing:

; 851  : 					 String^ seleCombo = escapeSet(questStrings[seleNum-1]);

  0003d	02		 ldarg.0 	; this$
  0003e	7b 00 00 00 00	 ldfld ?questStrings@MogiTest@Mogitter@@3P$AAV?$List@P$AAVString@System@@@Generic@Collections@System@@$AA
  00043	09		 ldloc.3 	; seleNum$
  00044	17		 ldc.i.1 1	; i32 0x1
  00045	59		 sub 
  00046	6f 00 00 00 00	 callvirt ?get@default@?$List@P$AAVString@System@@@Generic@Collections@System@@$$FU$AAMP$AAVString@5@H@Z
  0004b	28 00 00 00 00	 call ?escapeSet@MogiTest@Mogitter@@$$FSMP$AAVString@System@@P$AAV34@@Z

; 852  : 					 array<wchar_t> ^spliters={','};

  00050	17		 ldc.i.1 1	; i32 0x1
  00051	8d 00 00 00 00	 newarr $TypeTok$11003218$
  00056	0c		 stloc.2 	; spliters$2
  00057	08		 ldloc.2 	; spliters$2
  00058	16		 ldc.i.0 0	; i32 0x0
  00059	8f 00 00 00 00	 ldelema $va_argTok$_W
  0005e	1f 2c		 ldc.i4.s 44	; u16 0x2c
  00060	53		 stind.i2 

; 853  : 					 array<String^>^ splStrs = seleCombo->Split(spliters);

  00061	08		 ldloc.2 	; spliters$2
  00062	28 00 00 00 00	 call ?Split@String@System@@$$FQ$AAMP$01AP$AAV12@P$01A_W@Z
  00067	13 06		 stloc.s 6	; splStrs$3

; 854  : 			 //書式："1,(answer)"
; 855  : 			 //書式："4,(ansNum),aaa:bbb:ccc:ddd"
; 856  : 					 if(splStrs->Length>2){

  00069	11 06		 ldloc.s 6	; splStrs$3
  0006b	8e		 ldlen 
  0006c	18		 ldc.i.2 2	; i32 0x2
  0006d	3e e6 00 00 00	 ble $LN8@qnumDoing

; 857  : 						 anaumeGroup->Enabled = false;

  00072	02		 ldarg.0 	; this$
  00073	7b 00 00 00 00	 ldfld ?anaumeGroup@MogiTest@Mogitter@@3P$AAVGroupBox@Forms@Windows@System@@$AA
  00078	16		 ldc.i.0 0	; u8 0x0
  00079	28 00 00 00 00	 call ?set@Enabled@Control@Forms@Windows@System@@$$FQ$AAMX_N@Z

; 858  : 						 sentakuGroup->Enabled = true;

  0007e	02		 ldarg.0 	; this$
  0007f	7b 00 00 00 00	 ldfld ?sentakuGroup@MogiTest@Mogitter@@3P$AAVGroupBox@Forms@Windows@System@@$AA
  00084	17		 ldc.i.1 1	; u8 0x1
  00085	28 00 00 00 00	 call ?set@Enabled@Control@Forms@Windows@System@@$$FQ$AAMX_N@Z

; 859  : 						 anaumeAnsBox->Text = "";//?????						 

  0008a	02		 ldarg.0 	; this$
  0008b	7b 00 00 00 00	 ldfld ?anaumeAnsBox@MogiTest@Mogitter@@3P$AAVRichTextBox@Forms@Windows@System@@$AA
  00090	72 00 00 00 00	 ldstr $StringLiteralTok$??_C@_11LOCGONAA@?$AA?$AA@
  00095	6f 00 00 00 00	 callvirt ?set@Text@RichTextBox@Forms@Windows@System@@$$FU$AAMXP$AAVString@5@@Z

; 860  : 						 spliters[0] = ':';

  0009a	08		 ldloc.2 	; spliters$2
  0009b	16		 ldc.i.0 0	; i32 0x0
  0009c	8f 00 00 00 00	 ldelema $va_argTok$_W
  000a1	1f 3a		 ldc.i4.s 58	; u16 0x3a
  000a3	53		 stind.i2 

; 861  : 						 array<String^>^ items = splStrs[2]->Split(spliters);

  000a4	11 06		 ldloc.s 6	; splStrs$3
  000a6	18		 ldc.i.2 2	; i32 0x2
  000a7	9a		 ldelem.ref 
  000a8	08		 ldloc.2 	; spliters$2
  000a9	28 00 00 00 00	 call ?Split@String@System@@$$FQ$AAMP$01AP$AAV12@P$01A_W@Z
  000ae	13 04		 stloc.s 4	; items$4

; 862  : 						 sentakushiCombo->Items->Clear();

  000b0	02		 ldarg.0 	; this$
  000b1	7b 00 00 00 00	 ldfld ?sentakushiCombo@MogiTest@Mogitter@@3P$AAVComboBox@Forms@Windows@System@@$AA
  000b6	28 00 00 00 00	 call ?get@Items@ComboBox@Forms@Windows@System@@$$FQ$AAMP$AAVObjectCollection@2345@XZ
  000bb	6f 00 00 00 00	 callvirt ?Clear@ObjectCollection@ComboBox@Forms@Windows@System@@$$FU$AAMXXZ

; 863  : 						 sentakushiCombo->Items->Add("(none)");

  000c0	02		 ldarg.0 	; this$
  000c1	7b 00 00 00 00	 ldfld ?sentakushiCombo@MogiTest@Mogitter@@3P$AAVComboBox@Forms@Windows@System@@$AA
  000c6	28 00 00 00 00	 call ?get@Items@ComboBox@Forms@Windows@System@@$$FQ$AAMP$AAVObjectCollection@2345@XZ
  000cb	72 00 00 00 00	 ldstr $StringLiteralTok$??_C@_1O@HBJEMMOJ@?$AA?$CI?$AAn?$AAo?$AAn?$AAe?$AA?$CJ?$AA?$AA@
  000d0	28 00 00 00 00	 call ?Add@ObjectCollection@ComboBox@Forms@Windows@System@@$$FQ$AAMHP$AAVObject@5@@Z
  000d5	26		 pop 

; 864  : 						 for each(String^ item in items){

  000d6	16		 ldc.i.0 0	; i32 0x0
  000d7	0b		 stloc.1 	; $I$5
  000d8	16		 ldc.i.0 0	; i32 0x0
  000d9	11 04		 ldloc.s 4	; items$4
  000db	8e		 ldlen 
  000dc	2f 31		 bge.s $LN5@qnumDoing
$LL7@qnumDoing:
  000de	11 04		 ldloc.s 4	; items$4
  000e0	07		 ldloc.1 	; $I$5
  000e1	9a		 ldelem.ref 
  000e2	0a		 stloc.0 	; item$6

; 865  : 							 item = escapeReSet(item);

  000e3	06		 ldloc.0 	; item$6
  000e4	28 00 00 00 00	 call ?escapeReSet@MogiTest@Mogitter@@$$FSMP$AAVString@System@@P$AAV34@@Z
  000e9	0a		 stloc.0 	; item$6

; 866  : 							 if(item->Length>0)

  000ea	06		 ldloc.0 	; item$6
  000eb	28 00 00 00 00	 call ?get@Length@String@System@@$$FQ$AAMHXZ
  000f0	16		 ldc.i.0 0	; i32 0x0
  000f1	31 12		 ble.s $LN6@qnumDoing

; 867  : 								 sentakushiCombo->Items->Add(item);

  000f3	02		 ldarg.0 	; this$
  000f4	7b 00 00 00 00	 ldfld ?sentakushiCombo@MogiTest@Mogitter@@3P$AAVComboBox@Forms@Windows@System@@$AA
  000f9	28 00 00 00 00	 call ?get@Items@ComboBox@Forms@Windows@System@@$$FQ$AAMP$AAVObjectCollection@2345@XZ
  000fe	06		 ldloc.0 	; item$6
  000ff	28 00 00 00 00	 call ?Add@ObjectCollection@ComboBox@Forms@Windows@System@@$$FQ$AAMHP$AAVObject@5@@Z
  00104	26		 pop 
$LN6@qnumDoing:

; 864  : 						 for each(String^ item in items){

  00105	07		 ldloc.1 	; $I$5
  00106	17		 ldc.i.1 1	; i32 0x1
  00107	58		 add 
  00108	0b		 stloc.1 	; $I$5
  00109	07		 ldloc.1 	; $I$5
  0010a	11 04		 ldloc.s 4	; items$4
  0010c	8e		 ldlen 
  0010d	32 cf		 blt.s $LL7@qnumDoing
$LN5@qnumDoing:

; 868  : 						 }
; 869  : 						 String^ alreadyAns = getLineText(userAnswerArea,seleNum)->Trim();

  0010f	02		 ldarg.0 	; this$
  00110	25		 dup 
  00111	7b 00 00 00 00	 ldfld ?userAnswerArea@MogiTest@Mogitter@@3P$AAVAzukiControl@WinForms@Azuki@Sgry@@$AA
  00116	09		 ldloc.3 	; seleNum$
  00117	28 00 00 00 00	 call ?getLineText@MogiTest@Mogitter@@$$FA$AAMP$AAVString@System@@P$AAVAzukiControl@WinForms@Azuki@Sgry@@H@Z
  0011c	28 00 00 00 00	 call ?Trim@String@System@@$$FQ$AAMP$AAV12@XZ
  00121	13 05		 stloc.s 5	; alreadyAns$7

; 870  : 						 if(alreadyAns->Length == 0)

  00123	11 05		 ldloc.s 5	; alreadyAns$7
  00125	28 00 00 00 00	 call ?get@Length@String@System@@$$FQ$AAMHXZ
  0012a	2d 0e		 brtrue.s $LN3@qnumDoing

; 871  : 							 sentakushiCombo->SelectedIndex = 0;

  0012c	02		 ldarg.0 	; this$
  0012d	7b 00 00 00 00	 ldfld ?sentakushiCombo@MogiTest@Mogitter@@3P$AAVComboBox@Forms@Windows@System@@$AA
  00132	16		 ldc.i.0 0	; i32 0x0
  00133	6f 00 00 00 00	 callvirt ?set@SelectedIndex@ComboBox@Forms@Windows@System@@$$FU$AAMXH@Z

; 872  : 						 else

  00138	2b 0d		 br.s $LN2@qnumDoing
$LN3@qnumDoing:

; 873  : 							 sentakushiCombo->SelectedItem = alreadyAns;

  0013a	02		 ldarg.0 	; this$
  0013b	7b 00 00 00 00	 ldfld ?sentakushiCombo@MogiTest@Mogitter@@3P$AAVComboBox@Forms@Windows@System@@$AA
  00140	11 05		 ldloc.s 5	; alreadyAns$7
  00142	28 00 00 00 00	 call ?set@SelectedItem@ComboBox@Forms@Windows@System@@$$FQ$AAMXP$AAVObject@5@@Z
$LN2@qnumDoing:

; 874  : 						 sentakushiCombo->Focus();

  00147	02		 ldarg.0 	; this$
  00148	7b 00 00 00 00	 ldfld ?sentakushiCombo@MogiTest@Mogitter@@3P$AAVComboBox@Forms@Windows@System@@$AA
  0014d	28 00 00 00 00	 call ?Focus@Control@Forms@Windows@System@@$$FQ$AAM_NXZ
  00152	26		 pop 

; 875  : 					 }else{

  00153	38 82 00 00 00	 br $LN1@qnumDoing
$LN8@qnumDoing:

; 876  : 						 sentakushiCombo->Items->Clear();

  00158	02		 ldarg.0 	; this$
  00159	7b 00 00 00 00	 ldfld ?sentakushiCombo@MogiTest@Mogitter@@3P$AAVComboBox@Forms@Windows@System@@$AA
  0015e	28 00 00 00 00	 call ?get@Items@ComboBox@Forms@Windows@System@@$$FQ$AAMP$AAVObjectCollection@2345@XZ
  00163	6f 00 00 00 00	 callvirt ?Clear@ObjectCollection@ComboBox@Forms@Windows@System@@$$FU$AAMXXZ

; 877  : 
; 878  : 						 sentakuGroup->Enabled = false;

  00168	02		 ldarg.0 	; this$
  00169	7b 00 00 00 00	 ldfld ?sentakuGroup@MogiTest@Mogitter@@3P$AAVGroupBox@Forms@Windows@System@@$AA
  0016e	16		 ldc.i.0 0	; u8 0x0
  0016f	28 00 00 00 00	 call ?set@Enabled@Control@Forms@Windows@System@@$$FQ$AAMX_N@Z

; 879  : 						 anaumeGroup->Enabled = true;

  00174	02		 ldarg.0 	; this$
  00175	7b 00 00 00 00	 ldfld ?anaumeGroup@MogiTest@Mogitter@@3P$AAVGroupBox@Forms@Windows@System@@$AA
  0017a	17		 ldc.i.1 1	; u8 0x1
  0017b	28 00 00 00 00	 call ?set@Enabled@Control@Forms@Windows@System@@$$FQ$AAMX_N@Z

; 880  : 						 anaumeAnsBox->Text = getLineText(userAnswerArea,seleNum)->Trim();

  00180	02		 ldarg.0 	; this$
  00181	7b 00 00 00 00	 ldfld ?anaumeAnsBox@MogiTest@Mogitter@@3P$AAVRichTextBox@Forms@Windows@System@@$AA
  00186	02		 ldarg.0 	; this$
  00187	25		 dup 
  00188	7b 00 00 00 00	 ldfld ?userAnswerArea@MogiTest@Mogitter@@3P$AAVAzukiControl@WinForms@Azuki@Sgry@@$AA
  0018d	09		 ldloc.3 	; seleNum$
  0018e	28 00 00 00 00	 call ?getLineText@MogiTest@Mogitter@@$$FA$AAMP$AAVString@System@@P$AAVAzukiControl@WinForms@Azuki@Sgry@@H@Z
  00193	28 00 00 00 00	 call ?Trim@String@System@@$$FQ$AAMP$AAV12@XZ
  00198	6f 00 00 00 00	 callvirt ?set@Text@RichTextBox@Forms@Windows@System@@$$FU$AAMXP$AAVString@5@@Z

; 881  : 						 anaumeAnsBox->SelectAll();

  0019d	02		 ldarg.0 	; this$
  0019e	7b 00 00 00 00	 ldfld ?anaumeAnsBox@MogiTest@Mogitter@@3P$AAVRichTextBox@Forms@Windows@System@@$AA
  001a3	28 00 00 00 00	 call ?SelectAll@TextBoxBase@Forms@Windows@System@@$$FQ$AAMXXZ

; 882  : //						 if(anaumeAnsBox->Text->Trim()->Length == 0)
; 883  : //							 anaumeAnsBox->Text = "";
; 884  : 						 sentakushiCombo->Items->Clear();

  001a8	02		 ldarg.0 	; this$
  001a9	7b 00 00 00 00	 ldfld ?sentakushiCombo@MogiTest@Mogitter@@3P$AAVComboBox@Forms@Windows@System@@$AA
  001ae	28 00 00 00 00	 call ?get@Items@ComboBox@Forms@Windows@System@@$$FQ$AAMP$AAVObjectCollection@2345@XZ
  001b3	6f 00 00 00 00	 callvirt ?Clear@ObjectCollection@ComboBox@Forms@Windows@System@@$$FU$AAMXXZ

; 885  : 						 sentakushiCombo->Items->Add("(none)");

  001b8	02		 ldarg.0 	; this$
  001b9	7b 00 00 00 00	 ldfld ?sentakushiCombo@MogiTest@Mogitter@@3P$AAVComboBox@Forms@Windows@System@@$AA
  001be	28 00 00 00 00	 call ?get@Items@ComboBox@Forms@Windows@System@@$$FQ$AAMP$AAVObjectCollection@2345@XZ
  001c3	72 00 00 00 00	 ldstr $StringLiteralTok$??_C@_1O@HBJEMMOJ@?$AA?$CI?$AAn?$AAo?$AAn?$AAe?$AA?$CJ?$AA?$AA@
  001c8	28 00 00 00 00	 call ?Add@ObjectCollection@ComboBox@Forms@Windows@System@@$$FQ$AAMHP$AAVObject@5@@Z
  001cd	26		 pop 

; 886  : 						 anaumeAnsBox->Focus();

  001ce	02		 ldarg.0 	; this$
  001cf	7b 00 00 00 00	 ldfld ?anaumeAnsBox@MogiTest@Mogitter@@3P$AAVRichTextBox@Forms@Windows@System@@$AA
  001d4	28 00 00 00 00	 call ?Focus@Control@Forms@Windows@System@@$$FQ$AAM_NXZ
  001d9	26		 pop 
$LN1@qnumDoing:

; 887  : 					 }
; 888  : 				 }
; 889  : 			 }

  001da	2a		 ret 
 .end ?qnumDoing@MogiTest@Mogitter@@$$FA$AAMXXZ		; Mogitter::MogiTest::qnumDoing
;	.proc.end.void
.global	?collects@MogiTest@Mogitter@@3P$01AP$AAVString@System@@A ; Mogitter::MogiTest::collects
.global	?marubatsu@MogiTest@Mogitter@@3P$AAVKeywordHighlighter@Highlighter@Azuki@Sgry@@$AA ; Mogitter::MogiTest::marubatsu
.global	?maru@MogiTest@Mogitter@@3P$01AP$AAVString@System@@A ; Mogitter::MogiTest::maru
.global	?batsu@MogiTest@Mogitter@@3P$01AP$AAVString@System@@A ; Mogitter::MogiTest::batsu
.global	?keikajikan@MogiTest@Mogitter@@3P$AAVTimer@Forms@Windows@System@@$AA ; Mogitter::MogiTest::keikajikan
	.bss
.local	$StringLiteralTok$??_C@_15JMABLPGB@?$CF?K?$AA?5?$AA?$AA@,4
.local	$StringLiteralTok$??_C@_15OBDENNPF@?$AA?W?$AA?5?$AA?$AA@,4
.local	?collects@MogiTest@Mogitter@@3P$01AP$AAVString@System@@A,4 ; Mogitter::MogiTest::collects
.local	$StringLiteralTok$??_C@_15OJKDPEFE@?$AA?5?$AA?5?$AA?$AA@,4
.local	?marubatsu@MogiTest@Mogitter@@3P$AAVKeywordHighlighter@Highlighter@Azuki@Sgry@@$AA,4 ; Mogitter::MogiTest::marubatsu
.local	?maru@MogiTest@Mogitter@@3P$01AP$AAVString@System@@A,4 ; Mogitter::MogiTest::maru
.local	?batsu@MogiTest@Mogitter@@3P$01AP$AAVString@System@@A,4 ; Mogitter::MogiTest::batsu
.local	?keikajikan@MogiTest@Mogitter@@3P$AAVTimer@Forms@Windows@System@@$AA,4 ; Mogitter::MogiTest::keikajikan
.local	$T1,0
; Function compile flags: /Ogsp
; File f:\meijin4\c++\mogitter\mogitter\mogitest.h
	.text
	.comdat	any, ?kaitouranClean@MogiTest@Mogitter@@$$FQ$AAMXXZ
.global	?kaitouranClean@MogiTest@Mogitter@@$$FQ$AAMXXZ	; Mogitter::MogiTest::kaitouranClean
?kaitouranClean@MogiTest@Mogitter@@$$FQ$AAMXXZ:		; Mogitter::MogiTest::kaitouranClean
;	.proc.def	D:V()

; Function Header:
; max stack depth = 6
; function size = 244 bytes
; local varsig tk = 0x1100000D 
; Exception Information:
; 0 handlers, each consisting of filtered handlers

;	.formal.mptr 0,"this$" SIG: Optional C Binding Modifier(token:0x391AE5).class (token:0x391AE8)
;	.local.i4 0,"j$2" SIG: i4

;	.proc.beg

; 985  : 					 userAnswerArea->Font = (gcnew System::Drawing::Font(userAnswerArea->Font->FontFamily, userAnswerArea->Font->Size, FontStyle::Regular, System::Drawing::GraphicsUnit::Point, 
; 986  : 				static_cast<System::Byte>(128)));

  0000b	02		 ldarg.0 	; this$
  0000c	7b 00 00 00 00	 ldfld ?userAnswerArea@MogiTest@Mogitter@@3P$AAVAzukiControl@WinForms@Azuki@Sgry@@$AA
  00011	02		 ldarg.0 	; this$
  00012	7b 00 00 00 00	 ldfld ?userAnswerArea@MogiTest@Mogitter@@3P$AAVAzukiControl@WinForms@Azuki@Sgry@@$AA
  00017	6f 00 00 00 00	 callvirt ?get@Font@AzukiControl@WinForms@Azuki@Sgry@@$$FU$AAMP$AAV1Drawing@System@@XZ
  0001c	28 00 00 00 00	 call ?get@FontFamily@Font@Drawing@System@@$$FQ$AAMP$AAV134@XZ
  00021	02		 ldarg.0 	; this$
  00022	7b 00 00 00 00	 ldfld ?userAnswerArea@MogiTest@Mogitter@@3P$AAVAzukiControl@WinForms@Azuki@Sgry@@$AA
  00027	6f 00 00 00 00	 callvirt ?get@Font@AzukiControl@WinForms@Azuki@Sgry@@$$FU$AAMP$AAV1Drawing@System@@XZ
  0002c	28 00 00 00 00	 call ?get@Size@Font@Drawing@System@@$$FQ$AAMMXZ
  00031	16		 ldc.i.0 0	; i32 0x0
  00032	19		 ldc.i.3 3	; i32 0x3
  00033	20 80 00 00 00	 ldc.i4 128	; u8 0x80
  00038	73 00 00 00 00	 newobj ??0Font@Drawing@System@@$$FQ$AAM@P$AAVFontFamily@12@MW4FontStyle@12@W4GraphicsUnit@12@E@Z
  0003d	6f 00 00 00 00	 callvirt ?set@Font@AzukiControl@WinForms@Azuki@Sgry@@$$FU$AAMXP$AAV1Drawing@System@@@Z

; 987  : 					 userAnswerArea->Text = userAnswerArea->Text->Replace("○ ","");

  00042	02		 ldarg.0 	; this$
  00043	7b 00 00 00 00	 ldfld ?userAnswerArea@MogiTest@Mogitter@@3P$AAVAzukiControl@WinForms@Azuki@Sgry@@$AA
  00048	02		 ldarg.0 	; this$
  00049	7b 00 00 00 00	 ldfld ?userAnswerArea@MogiTest@Mogitter@@3P$AAVAzukiControl@WinForms@Azuki@Sgry@@$AA
  0004e	6f 00 00 00 00	 callvirt ?get@Text@AzukiControl@WinForms@Azuki@Sgry@@$$FU$AAMP$AAVString@System@@XZ
  00053	72 00 00 00 00	 ldstr $StringLiteralTok$??_C@_15JMABLPGB@?$CF?K?$AA?5?$AA?$AA@
  00058	72 00 00 00 00	 ldstr $StringLiteralTok$??_C@_11LOCGONAA@?$AA?$AA@
  0005d	28 00 00 00 00	 call ?Replace@String@System@@$$FQ$AAMP$AAV12@P$AAV12@0@Z
  00062	6f 00 00 00 00	 callvirt ?set@Text@AzukiControl@WinForms@Azuki@Sgry@@$$FU$AAMXP$AAVString@System@@@Z

; 988  : 					 for(int j=0;j<qCountField;j++){

  00067	16		 ldc.i.0 0	; i32 0x0
  00068	0a		 stloc.0 	; j$2
  00069	16		 ldc.i.0 0	; i32 0x0
  0006a	02		 ldarg.0 	; this$
  0006b	7b 00 00 00 00	 ldfld ?qCountField@MogiTest@Mogitter@@3HA
  00070	2f 4a		 bge.s $LN1@kaitouranC
$LL3@kaitouranC:

; 989  : 							userAnswerArea->Text = userAnswerArea->Text->Replace("× " + collects[j]+"  ","");

  00073	02		 ldarg.0 	; this$
  00074	7b 00 00 00 00	 ldfld ?userAnswerArea@MogiTest@Mogitter@@3P$AAVAzukiControl@WinForms@Azuki@Sgry@@$AA
  00079	02		 ldarg.0 	; this$
  0007a	7b 00 00 00 00	 ldfld ?userAnswerArea@MogiTest@Mogitter@@3P$AAVAzukiControl@WinForms@Azuki@Sgry@@$AA
  0007f	6f 00 00 00 00	 callvirt ?get@Text@AzukiControl@WinForms@Azuki@Sgry@@$$FU$AAMP$AAVString@System@@XZ
  00084	72 00 00 00 00	 ldstr $StringLiteralTok$??_C@_15OBDENNPF@?$AA?W?$AA?5?$AA?$AA@
  00089	02		 ldarg.0 	; this$
  0008a	7b 00 00 00 00	 ldfld ?collects@MogiTest@Mogitter@@3P$01AP$AAVString@System@@A
  0008f	06		 ldloc.0 	; j$2
  00090	9a		 ldelem.ref 
  00091	28 00 00 00 00	 call ?Concat@String@System@@$$FSMP$AAV12@P$AAV12@0@Z
  00096	72 00 00 00 00	 ldstr $StringLiteralTok$??_C@_15OJKDPEFE@?$AA?5?$AA?5?$AA?$AA@
  0009b	28 00 00 00 00	 call ?Concat@String@System@@$$FSMP$AAV12@P$AAV12@0@Z
  000a0	72 00 00 00 00	 ldstr $StringLiteralTok$??_C@_11LOCGONAA@?$AA?$AA@
  000a5	28 00 00 00 00	 call ?Replace@String@System@@$$FQ$AAMP$AAV12@P$AAV12@0@Z
  000aa	6f 00 00 00 00	 callvirt ?set@Text@AzukiControl@WinForms@Azuki@Sgry@@$$FU$AAMXP$AAVString@System@@@Z

; 988  : 					 for(int j=0;j<qCountField;j++){

  000af	06		 ldloc.0 	; j$2
  000b0	17		 ldc.i.1 1	; i32 0x1
  000b1	58		 add 
  000b2	0a		 stloc.0 	; j$2
  000b3	06		 ldloc.0 	; j$2
  000b4	02		 ldarg.0 	; this$
  000b5	7b 00 00 00 00	 ldfld ?qCountField@MogiTest@Mogitter@@3HA
  000ba	32 b7		 blt.s $LL3@kaitouranC
$LN1@kaitouranC:

; 990  : 					 }
; 991  : 					 marubatsu->ClearKeywords();

  000bc	02		 ldarg.0 	; this$
  000bd	7b 00 00 00 00	 ldfld ?marubatsu@MogiTest@Mogitter@@3P$AAVKeywordHighlighter@Highlighter@Azuki@Sgry@@$AA
  000c2	28 00 00 00 00	 call ?ClearKeywords@KeywordHighlighter@Highlighter@Azuki@Sgry@@$$FQ$AAMXXZ

; 992  : 					 marubatsu->AddKeywordSet(maru,Sgry::Azuki::CharClass::Function);

  000c7	02		 ldarg.0 	; this$
  000c8	7b 00 00 00 00	 ldfld ?marubatsu@MogiTest@Mogitter@@3P$AAVKeywordHighlighter@Highlighter@Azuki@Sgry@@$AA
  000cd	02		 ldarg.0 	; this$
  000ce	7b 00 00 00 00	 ldfld ?maru@MogiTest@Mogitter@@3P$01AP$AAVString@System@@A
  000d3	1f 21		 ldc.i4.s 33	; u8 0x21
  000d5	28 00 00 00 00	 call ?AddKeywordSet@KeywordHighlighter@Highlighter@Azuki@Sgry@@$$FQ$AAMXP$01AP$AAVString@System@@W4CharClass@34@@Z

; 993  : 					 marubatsu->AddKeywordSet(batsu,Sgry::Azuki::CharClass::Property);

  000da	02		 ldarg.0 	; this$
  000db	7b 00 00 00 00	 ldfld ?marubatsu@MogiTest@Mogitter@@3P$AAVKeywordHighlighter@Highlighter@Azuki@Sgry@@$AA
  000e0	02		 ldarg.0 	; this$
  000e1	7b 00 00 00 00	 ldfld ?batsu@MogiTest@Mogitter@@3P$01AP$AAVString@System@@A
  000e6	1f 0e		 ldc.i4.s 14	; u8 0xe
  000e8	28 00 00 00 00	 call ?AddKeywordSet@KeywordHighlighter@Highlighter@Azuki@Sgry@@$$FQ$AAMXP$01AP$AAVString@System@@W4CharClass@34@@Z

; 994  : 					 keikaSec = 0;

  000ed	02		 ldarg.0 	; this$
  000ee	16		 ldc.i.0 0	; i32 0x0
  000ef	7d 00 00 00 00	 stfld ?keikaSec@MogiTest@Mogitter@@3HA

; 995  : 					 keikajikan->Start();

  000f4	02		 ldarg.0 	; this$
  000f5	7b 00 00 00 00	 ldfld ?keikajikan@MogiTest@Mogitter@@3P$AAVTimer@Forms@Windows@System@@$AA
  000fa	28 00 00 00 00	 call ?Start@Timer@Forms@Windows@System@@$$FQ$AAMXXZ

; 996  : 			}

  000ff	2a		 ret 
 .end ?kaitouranClean@MogiTest@Mogitter@@$$FQ$AAMXXZ	; Mogitter::MogiTest::kaitouranClean
;	.proc.end.void
.global	
.global	
.global	?byButtonClose@QMarking@Mogitter@@3_NA		; Mogitter::QMarking::byButtonClose
	.bss
.local	,4
.local	,4
.local	?byButtonClose@QMarking@Mogitter@@3_NA,1	; Mogitter::QMarking::byButtonClose
; Function compile flags: /Ogsp
; File f:\meijin4\c++\mogitter\mogitter\qmarking.cpp
	.text
	.comdat	noduplicate, ?button1_Click@QMarking@Mogitter@@$$FQ$AAMXP$AAVObject@System@@P$AAVEventArgs@4@@Z
.global	?button1_Click@QMarking@Mogitter@@$$FQ$AAMXP$AAVObject@System@@P$AAVEventArgs@4@@Z ; Mogitter::QMarking::button1_Click
?button1_Click@QMarking@Mogitter@@$$FQ$AAMXP$AAVObject@System@@P$AAVEventArgs@4@@Z: ; Mogitter::QMarking::button1_Click
;	.proc.def	D:V(PP)

; Function Header:
; max stack depth = 2
; function size = 33 bytes
; local varsig tk = 0x0 
; Exception Information:
; 0 handlers, each consisting of filtered handlers

;	.formal.mptr 0,"this$" SIG: Optional C Binding Modifier(token:0x38F1B5).class (token:0x38F1B8)

;	.proc.beg

; 9    : 	byButtonClose = true;

  0000b	02		 ldarg.0 	; this$
  0000c	17		 ldc.i.1 1	; u8 0x1
  0000d	7d 00 00 00 00	 stfld ?byButtonClose@QMarking@Mogitter@@3_NA

; 10   : 	if (this->Owner != nullptr){

  00012	02		 ldarg.0 	; this$
  00013	28 00 00 00 00	 call ?get@Owner@Form@Forms@Windows@System@@$$FQ$AAMP$AAV2345@XZ
  00018	2c 0c		 brfalse.s $LN1@button1_Cl

; 11   : 		MogiTest^ test = static_cast<MogiTest^>(this->Owner);

  0001a	02		 ldarg.0 	; this$
  0001b	28 00 00 00 00	 call ?get@Owner@Form@Forms@Windows@System@@$$FQ$AAMP$AAV2345@XZ

; 12   : 		test->kaitouranClean();

  00020	28 00 00 00 00	 call ?kaitouranClean@MogiTest@Mogitter@@$$FQ$AAMXXZ
$LN1@button1_Cl:

; 13   : 	}
; 14   : 		this->Close();

  00026	02		 ldarg.0 	; this$
  00027	28 00 00 00 00	 call ?Close@Form@Forms@Windows@System@@$$FQ$AAMXXZ

; 15   : }

  0002c	2a		 ret 
 .end ?button1_Click@QMarking@Mogitter@@$$FQ$AAMXP$AAVObject@System@@P$AAVEventArgs@4@@Z ; Mogitter::QMarking::button1_Click
;	.proc.end.void
.global	
.global	
.global	?plainText@MogiTest@Mogitter@@3P$AAVString@System@@$AA ; Mogitter::MogiTest::plainText
.global	?answerStrings@MogiTest@Mogitter@@3P$AAV?$List@P$AAVString@System@@@Generic@Collections@System@@$AA ; Mogitter::MogiTest::answerStrings
.global	?QuestSentence@MogiTest@Mogitter@@3P$AAVAzukiControl@WinForms@Azuki@Sgry@@$AA ; Mogitter::MogiTest::QuestSentence
	.bss
	.align	2
.local	,4
.local	,4
.local	$StringLiteralTok$??_C@_1BE@EPLDMCPJ@?$AA?$HL?$AA?$EA?$AAR?$AAa?$AAn?$AAd?$AAo?$AAm?$AA?$DN?$AA?$AA@,4
.local	$TypeTok$110E9D94$,4
.local	$StringLiteralTok$??_C@_13PJJBFPED@?$AA?$DL?$AA?$AA@,4
.local	$TypeTok$110030E4$,4
.local	?plainText@MogiTest@Mogitter@@3P$AAVString@System@@$AA,4 ; Mogitter::MogiTest::plainText
.local	?answerStrings@MogiTest@Mogitter@@3P$AAV?$List@P$AAVString@System@@@Generic@Collections@System@@$AA,4 ; Mogitter::MogiTest::answerStrings
.local	$StringLiteralTok$??_C@_1BC@PAOKIFNK@?$AA?$HL?$AAA?$AAn?$AAs?$AAw?$AAe?$AAr?$AA?$DN?$AA?$AA@,4
.local	$StringLiteralTok$??_C@_15LJNFNBHD@?$AA?$DL?$AA?$HN?$AA?$AA@,4
.local	$StringLiteralTok$??_C@_1M@PIGCADDE@?$AAI?$AAt?$AAe?$AAm?$AA?$DN?$AA?$AA@,4
.local	$StringLiteralTok$??_C@_1BA@KJMINFHD@?$AA?$HL?$AAA?$AAn?$AAs?$AAw?$AAe?$AAr?$AA?$AA@,4
.local	$StringLiteralTok$??_C@_19MHLFJFLO@?$AAI?$AAt?$AAe?$AAm?$AA?$AA@,4
.local	$StringLiteralTok$??_C@_1BE@MLKGBGFL@?$AAA?$AAn?$AAs?$AAw?$AAe?$AAr?$AAN?$AAu?$AAm?$AA?$AA@,4
.local	$StringLiteralTok$??_C@_1BC@DILLDECC@?$AAH?$AAe?$AAa?$AAd?$AAC?$AAh?$AAa?$AAr?$AA?$AA@,4
.local	$StringLiteralTok$??_C@_19JIFHDGGH@?$AAk?$AAa?$AAn?$AAa?$AA?$AA@,4
.local	$StringLiteralTok$??_C@_13MLMNFFMF@0B?$AA?$AA@,4
.local	$StringLiteralTok$??_C@_1BC@NBMHCKEN@?$AAk?$AAa?$AAt?$AAa?$AAk?$AAa?$AAn?$AAa?$AA?$AA@,4
.local	$StringLiteralTok$??_C@_13BNLCBEPN@0?$KC?$AA?$AA@,4
.local	$StringLiteralTok$??_C@_17OKDDHGAP@?$AAa?$AAb?$AAc?$AA?$AA@,4
.local	$StringLiteralTok$??_C@_13FNCBLAIF@?$AAa?$AA?$AA@,4
.local	$StringLiteralTok$??_C@_13PNBDBPLL@?$AAA?$AA?$AA@,4
.local	$StringLiteralTok$??_C@_13KKMJJCOM@0?$BA?$AA?$AA@,4
.local	$StringLiteralTok$??_C@_13DEFPDAGF@?$AA?0?$AA?$AA@,4
.local	$StringLiteralTok$??_C@_17LDPHCILD@?$AA?5?$AA?0?$AA?5?$AA?$AA@,4
.local	$StringLiteralTok$??_C@_15ELOONFKJ@?$AA?3?$AA?5?$AA?$AA@,4
.local	$StringLiteralTok$??_C@_13EBCNDICG@?$AA?3?$AA?$AA@,4
.local	$StringLiteralTok$??_C@_13BCHFPFIJ@0?$BB?$AA?$AA@,4
.local	$StringLiteralTok$??_C@_15GLPPJKNC@?$AA1?$AA?0?$AA?$AA@,4
.local	?QuestSentence@MogiTest@Mogitter@@3P$AAVAzukiControl@WinForms@Azuki@Sgry@@$AA,4 ; Mogitter::MogiTest::QuestSentence
.local	$StringLiteralTok$??_C@_13LBAGMAIH@?$AA?6?$AA?$AA@,4
.local	$T1,0
; Function compile flags: /Ogsp
; File f:\meijin4\c++\mogitter\mogitter\mogitest.h
	.text
	.comdat	any, ?compile@MogiTest@Mogitter@@$$FQ$AAM_NP$AAVString@System@@@Z
.global	?compile@MogiTest@Mogitter@@$$FQ$AAM_NP$AAVString@System@@@Z ; Mogitter::MogiTest::compile
?compile@MogiTest@Mogitter@@$$FQ$AAM_NP$AAVString@System@@@Z: ; Mogitter::MogiTest::compile
;	.proc.def	D:I(P)

; Function Header:
; max stack depth = 5
; function size = 1583 bytes
; local varsig tk = 0x11000014 
; Exception Information:
; 0 handlers, each consisting of filtered handlers

;	.formal.mptr 0,"this$" SIG: Optional C Binding Modifier(token:0x391AE5).class (token:0x391AE8)
;	.formal.mptr 1,"text$" SIG: string
;	.local.mptr 4,"temp$" SIG: string
;	.local.mptr 40,"rand$2" SIG: class (token:0x38ED2D)
;	.local.mptr 30,"bufbef$3" SIG: szarray (token:0x38EE3D)
;	.local.mptr 39,"$T4" SIG: szarray (token:0x38EDBD)
;	.local.mptr 18,"buf$5" SIG: szarray (token:0x38EE3D)
;	.local.i4 17,"i$6" SIG: i4
;	.local.mptr 37,"aft$7" SIG: string
;	.local.mptr 38,"$T8" SIG: szarray (token:0x38EDBD)
;	.local.i4 16,"qnum$9" SIG: i4
;	.local.mptr 11,"comTxt$10" SIG: string
;	.local.mptr 36,"ret$11" SIG: szarray (token:0x38EE3D)
;	.local.mptr 10,"alreadyGot$12" SIG: szarray (token:0x38ECAD)
;	.local.i4 34,"len$13" SIG: i4
;	.local.i4 25,"i$14" SIG: i4
;	.local.i4 24,"i$15" SIG: i4
;	.local.i4 15,"index$16" SIG: i4
;	.local.i4 23,"i$17" SIG: i4
;	.local.i4 3,"qCount$" SIG: i4
;	.local.i4 33,"index$" SIG: i4
;	.local.i4 14,"tempI$18" SIG: i4
;	.local.i4 44,"lastI$19" SIG: i4
;	.local.mptr 9,"inKakko$20" SIG: string
;	.local.mptr 32,"saveInKakko$21" SIG: string
;	.local.mptr 6,"spliters$22" SIG: szarray (token:0x38EDBD)
;	.local.mptr 2,"listAddStr$23" SIG: string
;	.local.mptr 29,"options$24" SIG: szarray (token:0x38EE3D)
;	.local.mptr 22,"headMode$25" SIG: string
;	.local.mptr 28,"answer$26" SIG: string
;	.local.i4 27,"ansNum$27" SIG: i4
;	.local.i4 21,"i$28" SIG: i4
;	.local.mptr 5,"ope$29" SIG: szarray (token:0x38EE3D)
;	.local.mptr 19,"items$30" SIG: szarray (token:0x38EE3D)
;	.local.mptr 1,"headers$31" SIG: szarray (token:0x38EDBD)
;	.local.i4 26,"step$32" SIG: i4
;	.local.i4 13,"j$33" SIG: i4
;	.local.mptr 0,"retStr$34" SIG: string
;	.local.i4 12,"otherCount$35" SIG: i4
;	.local.i4 47,"$T36" SIG: i4
;	.local.i4 46,"$T37" SIG: i4
;	.local.i4 8,"j$38" SIG: i4
;	.local.u2 45,"$T39" SIG: char
;	.local.mptr 7,"answer$40" SIG: string
;	.local.mb16  43,"$T41" SIG: valueType (token:0x389B45)
;	.local.mb16  42,"$T42" SIG: valueType (token:0x389B45)
;	.local.mb16  41,"$T43" SIG: valueType (token:0x389B45)
;	.local.i4 20,"i$44" SIG: i4
;	.local.i4 31,"$T45" SIG: string

;	.proc.beg

; 584  : 		public: bool compile(String^ text){

  0000b	14		 ldnull 0	; i32 0x0
  0000c	13 13		 stloc.s 19	; items$30

; 585  : 					String^ temp = "";
; 586  : 					if (text->StartsWith("{@Random="))

  0000e	03		 ldarg.1 	; text$
  0000f	72 00 00 00 00	 ldstr $StringLiteralTok$??_C@_1BE@EPLDMCPJ@?$AA?$HL?$AA?$EA?$AAR?$AAa?$AAn?$AAd?$AAo?$AAm?$AA?$DN?$AA?$AA@
  00014	28 00 00 00 00	 call ?StartsWith@String@System@@$$FQ$AAM_NP$AAV12@@Z
  00019	39 58 01 00 00	 brfalse $LN49@compile

; 587  : 					{
; 588  : 						Random^ rand = gcnew Random();

  0001e	73 00 00 00 00	 newobj ??0Random@System@@$$FQ$AAM@XZ
  00023	13 28		 stloc.s 40	; rand$2

; 589  : 						array<String^> ^bufbef = text->Split('\n');

  00025	17		 ldc.i.1 1	; i32 0x1
  00026	8d 00 00 00 00	 newarr $TypeTok$11003218$
  0002b	13 27		 stloc.s 39	; $T4
  0002d	11 27		 ldloc.s 39	; $T4
  0002f	16		 ldc.i.0 0	; i32 0x0
  00030	8f 00 00 00 00	 ldelema $va_argTok$_W
  00035	1f 0a		 ldc.i4.s 10	; u16 0xa
  00037	53		 stind.i2 
  00038	03		 ldarg.1 	; text$
  00039	11 27		 ldloc.s 39	; $T4
  0003b	28 00 00 00 00	 call ?Split@String@System@@$$FQ$AAMP$01AP$AAV12@P$01A_W@Z
  00040	13 1e		 stloc.s 30	; bufbef$3

; 590  : 						array<String^> ^buf = gcnew array<String^>(bufbef->Length-1);

  00042	11 1e		 ldloc.s 30	; bufbef$3
  00044	8e		 ldlen 
  00045	17		 ldc.i.1 1	; i32 0x1
  00046	59		 sub 
  00047	8d 00 00 00 00	 newarr $TypeTok$110E9D94$
  0004c	13 12		 stloc.s 18	; buf$5

; 591  : 						for (int i = 0; i < buf->Length; i++)

  0004e	16		 ldc.i.0 0	; i32 0x0
  0004f	13 11		 stloc.s 17	; i$6
  00051	16		 ldc.i.0 0	; i32 0x0
  00052	11 12		 ldloc.s 18	; buf$5
  00054	8e		 ldlen 
  00055	2f 1a		 bge.s $LN46@compile
$LL48@compile:

; 592  : 						{
; 593  : 							buf[i] = bufbef[i+1];

  00058	11 12		 ldloc.s 18	; buf$5
  0005a	11 11		 ldloc.s 17	; i$6
  0005c	11 1e		 ldloc.s 30	; bufbef$3
  0005e	11 11		 ldloc.s 17	; i$6
  00060	17		 ldc.i.1 1	; i32 0x1
  00061	58		 add 
  00062	9a		 ldelem.ref 
  00063	a2		 stelem.ref 

; 591  : 						for (int i = 0; i < buf->Length; i++)

  00064	11 11		 ldloc.s 17	; i$6
  00066	17		 ldc.i.1 1	; i32 0x1
  00067	58		 add 
  00068	13 11		 stloc.s 17	; i$6
  0006a	11 11		 ldloc.s 17	; i$6
  0006c	11 12		 ldloc.s 18	; buf$5
  0006e	8e		 ldlen 
  0006f	32 e7		 blt.s $LL48@compile
$LN46@compile:

; 594  : 						}
; 595  : 						String^ aft = bufbef[0]->Split('=')[1];

  00071	17		 ldc.i.1 1	; i32 0x1
  00072	8d 00 00 00 00	 newarr $TypeTok$11003218$
  00077	13 26		 stloc.s 38	; $T8
  00079	11 26		 ldloc.s 38	; $T8
  0007b	16		 ldc.i.0 0	; i32 0x0
  0007c	8f 00 00 00 00	 ldelema $va_argTok$_W
  00081	1f 3d		 ldc.i4.s 61	; u16 0x3d
  00083	53		 stind.i2 
  00084	11 1e		 ldloc.s 30	; bufbef$3
  00086	16		 ldc.i.0 0	; i32 0x0
  00087	9a		 ldelem.ref 
  00088	11 26		 ldloc.s 38	; $T8
  0008a	28 00 00 00 00	 call ?Split@String@System@@$$FQ$AAMP$01AP$AAV12@P$01A_W@Z
  0008f	17		 ldc.i.1 1	; i32 0x1
  00090	9a		 ldelem.ref 
  00091	13 25		 stloc.s 37	; aft$7

; 596  : 						int qnum = int::Parse(aft->Substring(0,aft->IndexOf(";")));

  00093	11 25		 ldloc.s 37	; aft$7
  00095	16		 ldc.i.0 0	; i32 0x0
  00096	11 25		 ldloc.s 37	; aft$7
  00098	72 00 00 00 00	 ldstr $StringLiteralTok$??_C@_13PJJBFPED@?$AA?$DL?$AA?$AA@
  0009d	28 00 00 00 00	 call ?IndexOf@String@System@@$$FQ$AAMHP$AAV12@@Z
  000a2	28 00 00 00 00	 call ?Substring@String@System@@$$FQ$AAMP$AAV12@HH@Z
  000a7	28 00 00 00 00	 call ?Parse@Int32@System@@$$FSMHP$AAVString@2@@Z
  000ac	13 10		 stloc.s 16	; qnum$9

; 597  : 						String^ comTxt = "";

  000ae	72 00 00 00 00	 ldstr $StringLiteralTok$??_C@_11LOCGONAA@?$AA?$AA@
  000b3	13 0b		 stloc.s 11	; comTxt$10

; 598  : 						array<String^> ^ret = gcnew array<String^>(qnum);

  000b5	11 10		 ldloc.s 16	; qnum$9
  000b7	8d 00 00 00 00	 newarr $TypeTok$110E9D94$
  000bc	13 24		 stloc.s 36	; ret$11

; 599  : 						array<bool> ^alreadyGot = gcnew array<bool>(buf->Length);

  000be	11 12		 ldloc.s 18	; buf$5
  000c0	8e		 ldlen 
  000c1	13 23		 stloc.s 35	
  000c3	11 23		 ldloc.s 35	
  000c5	8d 00 00 00 00	 newarr $TypeTok$110030E4$
  000ca	13 0a		 stloc.s 10	; alreadyGot$12

; 600  : 						int len = buf->Length;

  000cc	11 23		 ldloc.s 35	
  000ce	13 22		 stloc.s 34	; len$13

; 601  : 						for(int i=0;i<alreadyGot->Length;i++){

  000d0	16		 ldc.i.0 0	; i32 0x0
  000d1	13 19		 stloc.s 25	; i$14
  000d3	16		 ldc.i.0 0	; i32 0x0
  000d4	11 0a		 ldloc.s 10	; alreadyGot$12
  000d6	8e		 ldlen 
  000d7	2f 13		 bge.s $LN43@compile
$LL45@compile:

; 602  : 						 alreadyGot[i] = false;

  000d9	11 0a		 ldloc.s 10	; alreadyGot$12
  000db	11 19		 ldloc.s 25	; i$14
  000dd	16		 ldc.i.0 0	; u8 0x0
  000de	9c		 stelem.i1 

; 601  : 						for(int i=0;i<alreadyGot->Length;i++){

  000df	11 19		 ldloc.s 25	; i$14
  000e1	17		 ldc.i.1 1	; i32 0x1
  000e2	58		 add 
  000e3	13 19		 stloc.s 25	; i$14
  000e5	11 19		 ldloc.s 25	; i$14
  000e7	11 0a		 ldloc.s 10	; alreadyGot$12
  000e9	8e		 ldlen 
  000ea	32 ed		 blt.s $LL45@compile
$LN43@compile:

; 603  : 						}
; 604  : 						for (int i = 0; i < qnum; i++)

  000ec	16		 ldc.i.0 0	; i32 0x0
  000ed	13 18		 stloc.s 24	; i$15
  000ef	16		 ldc.i.0 0	; i32 0x0
  000f0	11 10		 ldloc.s 16	; qnum$9
  000f2	2f 40		 bge.s $LN40@compile
$LL42@compile:

; 605  : 						{
; 606  : 						 int index = rand->Next(len);

  000f4	11 28		 ldloc.s 40	; rand$2
  000f6	11 22		 ldloc.s 34	; len$13
  000f8	6f 00 00 00 00	 callvirt ?Next@Random@System@@$$FU$AAMHH@Z
  000fd	13 0f		 stloc.s 15	; index$16

; 607  : 						 while (alreadyGot[index])

  000ff	11 0a		 ldloc.s 10	; alreadyGot$12
  00101	11 0f		 ldloc.s 15	; index$16
  00103	91		 ldelem.u1 
  00104	2c 12		 brfalse.s $LN38@compile
$LL39@compile:

; 608  : 						 {
; 609  : 							 index = rand->Next(len);

  00106	11 28		 ldloc.s 40	; rand$2
  00108	11 22		 ldloc.s 34	; len$13
  0010a	6f 00 00 00 00	 callvirt ?Next@Random@System@@$$FU$AAMHH@Z
  0010f	13 0f		 stloc.s 15	; index$16

; 607  : 						 while (alreadyGot[index])

  00111	11 0a		 ldloc.s 10	; alreadyGot$12
  00113	11 0f		 ldloc.s 15	; index$16
  00115	91		 ldelem.u1 
  00116	2d ee		 brtrue.s $LL39@compile
$LN38@compile:

; 610  : 						 }
; 611  : 						 alreadyGot[index] = true;

  00118	11 0a		 ldloc.s 10	; alreadyGot$12
  0011a	11 0f		 ldloc.s 15	; index$16
  0011c	17		 ldc.i.1 1	; u8 0x1
  0011d	9c		 stelem.i1 

; 612  : 						 ret[i] = buf[index];

  0011e	11 24		 ldloc.s 36	; ret$11
  00120	11 18		 ldloc.s 24	; i$15
  00122	11 12		 ldloc.s 18	; buf$5
  00124	11 0f		 ldloc.s 15	; index$16
  00126	9a		 ldelem.ref 
  00127	a2		 stelem.ref 

; 603  : 						}
; 604  : 						for (int i = 0; i < qnum; i++)

  00128	11 18		 ldloc.s 24	; i$15
  0012a	17		 ldc.i.1 1	; i32 0x1
  0012b	58		 add 
  0012c	13 18		 stloc.s 24	; i$15
  0012e	11 18		 ldloc.s 24	; i$15
  00130	11 10		 ldloc.s 16	; qnum$9
  00132	32 c0		 blt.s $LL42@compile
$LN40@compile:

; 613  : 						}
; 614  : 						for (int i = 0; i < qnum; i++)

  00134	16		 ldc.i.0 0	; i32 0x0
  00135	13 17		 stloc.s 23	; i$17
  00137	16		 ldc.i.0 0	; i32 0x0
  00138	11 10		 ldloc.s 16	; qnum$9
  0013a	2f 1a		 bge.s $LN35@compile
$LL37@compile:

; 615  : 						{
; 616  : 						 comTxt += ret[i];

  0013c	11 0b		 ldloc.s 11	; comTxt$10
  0013e	11 24		 ldloc.s 36	; ret$11
  00140	11 17		 ldloc.s 23	; i$17
  00142	9a		 ldelem.ref 
  00143	28 00 00 00 00	 call ?Concat@String@System@@$$FSMP$AAV12@P$AAV12@0@Z
  00148	13 0b		 stloc.s 11	; comTxt$10

; 613  : 						}
; 614  : 						for (int i = 0; i < qnum; i++)

  0014a	11 17		 ldloc.s 23	; i$17
  0014c	17		 ldc.i.1 1	; i32 0x1
  0014d	58		 add 
  0014e	13 17		 stloc.s 23	; i$17
  00150	11 17		 ldloc.s 23	; i$17
  00152	11 10		 ldloc.s 16	; qnum$9
  00154	32 e6		 blt.s $LL37@compile
$LN35@compile:

; 617  : 						}
; 618  : 						comTxt = comTxt->Substring(0,comTxt->Length-1);

  00156	11 0b		 ldloc.s 11	; comTxt$10
  00158	16		 ldc.i.0 0	; i32 0x0
  00159	11 0b		 ldloc.s 11	; comTxt$10
  0015b	28 00 00 00 00	 call ?get@Length@String@System@@$$FQ$AAMHXZ
  00160	17		 ldc.i.1 1	; i32 0x1
  00161	59		 sub 
  00162	28 00 00 00 00	 call ?Substring@String@System@@$$FQ$AAMP$AAV12@HH@Z
  00167	13 0b		 stloc.s 11	; comTxt$10

; 619  : 						plainText = text;

  00169	02		 ldarg.0 	; this$
  0016a	03		 ldarg.1 	; text$
  0016b	7d 00 00 00 00	 stfld ?plainText@MogiTest@Mogitter@@3P$AAVString@System@@$AA

; 620  : 						temp = comTxt;

  00170	11 0b		 ldloc.s 11	; comTxt$10
  00172	13 04		 stloc.s 4	; temp$

; 621  : 					}else{

  00174	2b 0a		 br.s $LN34@compile
$LN49@compile:

; 622  : 						 plainText = text;

  00176	02		 ldarg.0 	; this$
  00177	03		 ldarg.1 	; text$
  00178	7d 00 00 00 00	 stfld ?plainText@MogiTest@Mogitter@@3P$AAVString@System@@$AA

; 623  : 						 temp = text;

  0017d	03		 ldarg.1 	; text$
  0017e	13 04		 stloc.s 4	; temp$
$LN34@compile:

; 624  : 					}
; 625  : 					 //temp = temp->Replace("\"{\"","@@@");
; 626  : 					 //temp = temp->Replace("\"}\"","@@@");
; 627  : 					 int qCount = 0;

  00180	16		 ldc.i.0 0	; i32 0x0
  00181	0d		 stloc.3 	; qCount$

; 628  : 					 int index = 0;

  00182	16		 ldc.i.0 0	; i32 0x0
  00183	13 21		 stloc.s 33	; index$

; 629  : 					 questStrings = gcnew List<String^>;

  00185	02		 ldarg.0 	; this$
  00186	73 00 00 00 00	 newobj ??0?$List@P$AAVString@System@@@Generic@Collections@System@@$$FQ$AAM@XZ
  0018b	7d 00 00 00 00	 stfld ?questStrings@MogiTest@Mogitter@@3P$AAV?$List@P$AAVString@System@@@Generic@Collections@System@@$AA

; 630  : 					 answerStrings = gcnew List<String^>;

  00190	02		 ldarg.0 	; this$
  00191	73 00 00 00 00	 newobj ??0?$List@P$AAVString@System@@@Generic@Collections@System@@$$FQ$AAM@XZ
  00196	7d 00 00 00 00	 stfld ?answerStrings@MogiTest@Mogitter@@3P$AAV?$List@P$AAVString@System@@@Generic@Collections@System@@$AA
$LL33@compile:

; 634  : 						 int tempI = temp->IndexOf("{Answer=",index);

  0019b	11 04		 ldloc.s 4	; temp$
  0019d	72 00 00 00 00	 ldstr $StringLiteralTok$??_C@_1BC@PAOKIFNK@?$AA?$HL?$AAA?$AAn?$AAs?$AAw?$AAe?$AAr?$AA?$DN?$AA?$AA@
  001a2	11 21		 ldloc.s 33	; index$
  001a4	28 00 00 00 00	 call ?IndexOf@String@System@@$$FQ$AAMHP$AAV12@H@Z
  001a9	13 0e		 stloc.s 14	; tempI$18

; 635  : 						 if(tempI >=0){

  001ab	11 0e		 ldloc.s 14	; tempI$18
  001ad	16		 ldc.i.0 0	; i32 0x0
  001ae	3f 7d 03 00 00	 blt $LN31@compile

; 636  : 							 index = tempI+1;

  001b3	11 0e		 ldloc.s 14	; tempI$18
  001b5	17		 ldc.i.1 1	; i32 0x1
  001b6	58		 add 
  001b7	13 21		 stloc.s 33	; index$

; 637  : 							 qCount++;

  001b9	09		 ldloc.3 	; qCount$
  001ba	17		 ldc.i.1 1	; i32 0x1
  001bb	58		 add 
  001bc	0d		 stloc.3 	; qCount$

; 638  : 						 }else
; 639  : 							 break;
; 640  : 			 //書式："1,(answer)"
; 641  : 			 //書式："4,(ansNum),aaa:bbb:ccc:ddd"
; 642  : 						 int lastI = temp->IndexOf(";}",tempI)+2;

  001bd	11 04		 ldloc.s 4	; temp$
  001bf	72 00 00 00 00	 ldstr $StringLiteralTok$??_C@_15LJNFNBHD@?$AA?$DL?$AA?$HN?$AA?$AA@
  001c4	11 0e		 ldloc.s 14	; tempI$18
  001c6	28 00 00 00 00	 call ?IndexOf@String@System@@$$FQ$AAMHP$AAV12@H@Z
  001cb	18		 ldc.i.2 2	; i32 0x2
  001cc	58		 add 
  001cd	13 2c		 stloc.s 44	; lastI$19

; 643  : 						 String^ inKakko = temp->Substring(tempI,lastI-tempI);

  001cf	11 04		 ldloc.s 4	; temp$
  001d1	11 0e		 ldloc.s 14	; tempI$18
  001d3	11 2c		 ldloc.s 44	; lastI$19
  001d5	11 0e		 ldloc.s 14	; tempI$18
  001d7	59		 sub 
  001d8	28 00 00 00 00	 call ?Substring@String@System@@$$FQ$AAMP$AAV12@HH@Z
  001dd	13 09		 stloc.s 9	; inKakko$20

; 644  : 						 String^ saveInKakko = inKakko;

  001df	11 09		 ldloc.s 9	; inKakko$20
  001e1	13 20		 stloc.s 32	; saveInKakko$21

; 645  : 						 inKakko = escapeSet(inKakko);

  001e3	11 09		 ldloc.s 9	; inKakko$20
  001e5	28 00 00 00 00	 call ?escapeSet@MogiTest@Mogitter@@$$FSMP$AAVString@System@@P$AAV34@@Z
  001ea	13 09		 stloc.s 9	; inKakko$20

; 646  : 						 array<wchar_t> ^spliters={';'};

  001ec	17		 ldc.i.1 1	; i32 0x1
  001ed	8d 00 00 00 00	 newarr $TypeTok$11003218$
  001f2	13 06		 stloc.s 6	; spliters$22
  001f4	11 06		 ldloc.s 6	; spliters$22
  001f6	16		 ldc.i.0 0	; i32 0x0
  001f7	8f 00 00 00 00	 ldelema $va_argTok$_W
  001fc	1f 3b		 ldc.i4.s 59	; u16 0x3b
  001fe	53		 stind.i2 

; 647  : 
; 648  : 						 String^ listAddStr = "";

  001ff	72 00 00 00 00	 ldstr $StringLiteralTok$??_C@_11LOCGONAA@?$AA?$AA@
  00204	0c		 stloc.2 	; listAddStr$23

; 649  : 
; 650  : 						 if(inKakko->IndexOf("Item=")>=0){

  00205	11 09		 ldloc.s 9	; inKakko$20
  00207	72 00 00 00 00	 ldstr $StringLiteralTok$??_C@_1M@PIGCADDE@?$AAI?$AAt?$AAe?$AAm?$AA?$DN?$AA?$AA@
  0020c	28 00 00 00 00	 call ?IndexOf@String@System@@$$FQ$AAMHP$AAV12@@Z
  00211	16		 ldc.i.0 0	; i32 0x0
  00212	3f 97 02 00 00	 blt $LN29@compile

; 651  : 							 //選択問題の括弧の中を生成する作業
; 652  : 							 array<String^>^ options = inKakko->Split(spliters);

  00217	11 09		 ldloc.s 9	; inKakko$20
  00219	11 06		 ldloc.s 6	; spliters$22
  0021b	28 00 00 00 00	 call ?Split@String@System@@$$FQ$AAMP$01AP$AAV12@P$01A_W@Z
  00220	13 1d		 stloc.s 29	; options$24

; 653  : 							 array<String^>^ items;
; 654  : 							 String^ headMode="";

  00222	72 00 00 00 00	 ldstr $StringLiteralTok$??_C@_11LOCGONAA@?$AA?$AA@
  00227	13 1f		 stloc.s 31	; $T45
  00229	11 1f		 ldloc.s 31	; $T45
  0022b	13 16		 stloc.s 22	; headMode$25

; 655  : 							 array<wchar_t>^ headers;
; 656  : 							 String^ answer = "";

  0022d	11 1f		 ldloc.s 31	; $T45
  0022f	13 1c		 stloc.s 28	; answer$26

; 657  : 							 int ansNum=0;

  00231	16		 ldc.i.0 0	; i32 0x0
  00232	13 1b		 stloc.s 27	; ansNum$27

; 658  : 							 for(int i=0;i<options->Length;i++){

  00234	16		 ldc.i.0 0	; i32 0x0
  00235	13 15		 stloc.s 21	; i$28
  00237	16		 ldc.i.0 0	; i32 0x0
  00238	11 1d		 ldloc.s 29	; options$24
  0023a	8e		 ldlen 
  0023b	3c 98 00 00 00	 bge $LN26@compile
$LL28@compile:

; 659  : 								 spliters[0] = '=';

  00240	11 06		 ldloc.s 6	; spliters$22
  00242	16		 ldc.i.0 0	; i32 0x0
  00243	8f 00 00 00 00	 ldelema $va_argTok$_W
  00248	1f 3d		 ldc.i4.s 61	; u16 0x3d
  0024a	53		 stind.i2 

; 660  : 								 array<String^>^ ope = options[i]->Split(spliters);

  0024b	11 1d		 ldloc.s 29	; options$24
  0024d	11 15		 ldloc.s 21	; i$28
  0024f	9a		 ldelem.ref 
  00250	11 06		 ldloc.s 6	; spliters$22
  00252	28 00 00 00 00	 call ?Split@String@System@@$$FQ$AAMP$01AP$AAV12@P$01A_W@Z
  00257	13 05		 stloc.s 5	; ope$29

; 661  : 								 spliters[0] = ',';

  00259	11 06		 ldloc.s 6	; spliters$22
  0025b	16		 ldc.i.0 0	; i32 0x0
  0025c	8f 00 00 00 00	 ldelema $va_argTok$_W
  00261	1f 2c		 ldc.i4.s 44	; u16 0x2c
  00263	53		 stind.i2 

; 662  : 								 if(ope[0]=="{Answer")

  00264	11 05		 ldloc.s 5	; ope$29
  00266	16		 ldc.i.0 0	; i32 0x0
  00267	9a		 ldelem.ref 
  00268	72 00 00 00 00	 ldstr $StringLiteralTok$??_C@_1BA@KJMINFHD@?$AA?$HL?$AAA?$AAn?$AAs?$AAw?$AAe?$AAr?$AA?$AA@
  0026d	28 00 00 00 00	 call ??8String@System@@$$FSM_NP$AAV01@0@Z
  00272	2c 06		 brfalse.s $LN25@compile

; 663  : 									 answer = ope[1];

  00274	11 05		 ldloc.s 5	; ope$29
  00276	17		 ldc.i.1 1	; i32 0x1
  00277	9a		 ldelem.ref 
  00278	13 1c		 stloc.s 28	; answer$26
$LN25@compile:

; 664  : 								 if(ope[0]=="Item")

  0027a	11 05		 ldloc.s 5	; ope$29
  0027c	16		 ldc.i.0 0	; i32 0x0
  0027d	9a		 ldelem.ref 
  0027e	72 00 00 00 00	 ldstr $StringLiteralTok$??_C@_19MHLFJFLO@?$AAI?$AAt?$AAe?$AAm?$AA?$AA@
  00283	28 00 00 00 00	 call ??8String@System@@$$FSM_NP$AAV01@0@Z
  00288	2c 0d		 brfalse.s $LN24@compile

; 665  : 									 items = ope[1]->Split(spliters);

  0028a	11 05		 ldloc.s 5	; ope$29
  0028c	17		 ldc.i.1 1	; i32 0x1
  0028d	9a		 ldelem.ref 
  0028e	11 06		 ldloc.s 6	; spliters$22
  00290	28 00 00 00 00	 call ?Split@String@System@@$$FQ$AAMP$01AP$AAV12@P$01A_W@Z
  00295	13 13		 stloc.s 19	; items$30
$LN24@compile:

; 666  : 								 if(ope[0]=="AnswerNum")

  00297	11 05		 ldloc.s 5	; ope$29
  00299	16		 ldc.i.0 0	; i32 0x0
  0029a	9a		 ldelem.ref 
  0029b	72 00 00 00 00	 ldstr $StringLiteralTok$??_C@_1BE@MLKGBGFL@?$AAA?$AAn?$AAs?$AAw?$AAe?$AAr?$AAN?$AAu?$AAm?$AA?$AA@
  002a0	28 00 00 00 00	 call ??8String@System@@$$FSM_NP$AAV01@0@Z
  002a5	2c 0b		 brfalse.s $LN23@compile

; 667  : 									 ansNum = System::Int32::Parse(ope[1]);

  002a7	11 05		 ldloc.s 5	; ope$29
  002a9	17		 ldc.i.1 1	; i32 0x1
  002aa	9a		 ldelem.ref 
  002ab	28 00 00 00 00	 call ?Parse@Int32@System@@$$FSMHP$AAVString@2@@Z
  002b0	13 1b		 stloc.s 27	; ansNum$27
$LN23@compile:

; 668  : 								 if(ope[0]=="HeadChar"){

  002b2	11 05		 ldloc.s 5	; ope$29
  002b4	16		 ldc.i.0 0	; i32 0x0
  002b5	9a		 ldelem.ref 
  002b6	72 00 00 00 00	 ldstr $StringLiteralTok$??_C@_1BC@DILLDECC@?$AAH?$AAe?$AAa?$AAd?$AAC?$AAh?$AAa?$AAr?$AA?$AA@
  002bb	28 00 00 00 00	 call ??8String@System@@$$FSM_NP$AAV01@0@Z
  002c0	2c 06		 brfalse.s $LN27@compile

; 669  : 									 headMode = ope[1];

  002c2	11 05		 ldloc.s 5	; ope$29
  002c4	17		 ldc.i.1 1	; i32 0x1
  002c5	9a		 ldelem.ref 
  002c6	13 16		 stloc.s 22	; headMode$25
$LN27@compile:

; 658  : 							 for(int i=0;i<options->Length;i++){

  002c8	11 15		 ldloc.s 21	; i$28
  002ca	17		 ldc.i.1 1	; i32 0x1
  002cb	58		 add 
  002cc	13 15		 stloc.s 21	; i$28
  002ce	11 15		 ldloc.s 21	; i$28
  002d0	11 1d		 ldloc.s 29	; options$24
  002d2	8e		 ldlen 
  002d3	3f 68 ff ff ff	 blt $LL28@compile
$LN26@compile:

; 670  : 								 }
; 671  : 							 }
; 672  : /*
; 673  : 							 for(int i=0;i<items->Length;i++){
; 674  : 								 items[i] = escapeReady(items[i]);
; 675  : 								 items[i] = escapeSet(items[i]);
; 676  : 							 }
; 677  : 							 answer = escapeReady(answer);
; 678  : 							 answer = escapeSet(answer);
; 679  : */
; 680  : 							 headers = gcnew array<wchar_t>(items->Length+1);

  002d8	11 13		 ldloc.s 19	; items$30
  002da	8e		 ldlen 
  002db	17		 ldc.i.1 1	; i32 0x1
  002dc	58		 add 
  002dd	8d 00 00 00 00	 newarr $TypeTok$11003218$
  002e2	0b		 stloc.1 	; headers$31

; 681  : 							 int step=1;

  002e3	17		 ldc.i.1 1	; i32 0x1
  002e4	13 1a		 stloc.s 26	; step$32

; 682  : 							 if(headMode == "kana"){

  002e6	11 16		 ldloc.s 22	; headMode$25
  002e8	72 00 00 00 00	 ldstr $StringLiteralTok$??_C@_19JIFHDGGH@?$AAk?$AAa?$AAn?$AAa?$AA?$AA@
  002ed	28 00 00 00 00	 call ??8String@System@@$$FSM_NP$AAV01@0@Z
  002f2	2c 17		 brfalse.s $LN21@compile

; 683  : 								 headers[0] = System::Char::Parse("あ");

  002f4	07		 ldloc.1 	; headers$31
  002f5	16		 ldc.i.0 0	; i32 0x0
  002f6	8f 00 00 00 00	 ldelema $va_argTok$_W
  002fb	72 00 00 00 00	 ldstr $StringLiteralTok$??_C@_13MLMNFFMF@0B?$AA?$AA@
  00300	28 00 00 00 00	 call ?Parse@Char@System@@$$FSM_WP$AAVString@2@@Z
  00305	53		 stind.i2 

; 684  : 								 step = 2;

  00306	18		 ldc.i.2 2	; i32 0x2
  00307	13 1a		 stloc.s 26	; step$32
  00309	2b 59		 br.s $LN16@compile
$LN21@compile:

; 685  : 							 }else if(headMode == "katakana"){

  0030b	11 16		 ldloc.s 22	; headMode$25
  0030d	72 00 00 00 00	 ldstr $StringLiteralTok$??_C@_1BC@NBMHCKEN@?$AAk?$AAa?$AAt?$AAa?$AAk?$AAa?$AAn?$AAa?$AA?$AA@
  00312	28 00 00 00 00	 call ??8String@System@@$$FSM_NP$AAV01@0@Z
  00317	2c 17		 brfalse.s $LN19@compile

; 686  : 								 headers[0] = System::Char::Parse("ア");

  00319	07		 ldloc.1 	; headers$31
  0031a	16		 ldc.i.0 0	; i32 0x0
  0031b	8f 00 00 00 00	 ldelema $va_argTok$_W
  00320	72 00 00 00 00	 ldstr $StringLiteralTok$??_C@_13BNLCBEPN@0?$KC?$AA?$AA@
  00325	28 00 00 00 00	 call ?Parse@Char@System@@$$FSM_WP$AAVString@2@@Z
  0032a	53		 stind.i2 

; 687  : 								 step = 2;

  0032b	18		 ldc.i.2 2	; i32 0x2
  0032c	13 1a		 stloc.s 26	; step$32
  0032e	2b 34		 br.s $LN16@compile
$LN19@compile:

; 688  : 							 }else if(headMode == "abc"){

  00330	11 16		 ldloc.s 22	; headMode$25
  00332	72 00 00 00 00	 ldstr $StringLiteralTok$??_C@_17OKDDHGAP@?$AAa?$AAb?$AAc?$AA?$AA@
  00337	28 00 00 00 00	 call ??8String@System@@$$FSM_NP$AAV01@0@Z
  0033c	2c 14		 brfalse.s $LN17@compile

; 689  : 								 headers[0] = System::Char::Parse("a");

  0033e	07		 ldloc.1 	; headers$31
  0033f	16		 ldc.i.0 0	; i32 0x0
  00340	8f 00 00 00 00	 ldelema $va_argTok$_W
  00345	72 00 00 00 00	 ldstr $StringLiteralTok$??_C@_13FNCBLAIF@?$AAa?$AA?$AA@
  0034a	28 00 00 00 00	 call ?Parse@Char@System@@$$FSM_WP$AAVString@2@@Z
  0034f	53		 stind.i2 

; 690  : 							 }else{

  00350	2b 12		 br.s $LN16@compile
$LN17@compile:

; 691  : 								 headers[0] = System::Char::Parse("A");

  00352	07		 ldloc.1 	; headers$31
  00353	16		 ldc.i.0 0	; i32 0x0
  00354	8f 00 00 00 00	 ldelema $va_argTok$_W
  00359	72 00 00 00 00	 ldstr $StringLiteralTok$??_C@_13PNBDBPLL@?$AAA?$AA?$AA@
  0035e	28 00 00 00 00	 call ?Parse@Char@System@@$$FSM_WP$AAVString@2@@Z
  00363	53		 stind.i2 
$LN16@compile:

; 692  : 							 }
; 693  : 							 for(int j=1;j<headers->Length;j++){

  00364	17		 ldc.i.1 1	; i32 0x1
  00365	13 0d		 stloc.s 13	; j$33
  00367	17		 ldc.i.1 1	; i32 0x1
  00368	07		 ldloc.1 	; headers$31
  00369	8e		 ldlen 
  0036a	2f 1e		 bge.s $LN13@compile
$LL15@compile:

; 694  : 								 headers[j] = headers[j-1]+step;

  0036c	07		 ldloc.1 	; headers$31
  0036d	11 0d		 ldloc.s 13	; j$33
  0036f	8f 00 00 00 00	 ldelema $va_argTok$_W
  00374	07		 ldloc.1 	; headers$31
  00375	11 0d		 ldloc.s 13	; j$33
  00377	17		 ldc.i.1 1	; i32 0x1
  00378	59		 sub 
  00379	93		 ldelem.u2 
  0037a	11 1a		 ldloc.s 26	; step$32
  0037c	58		 add 
  0037d	53		 stind.i2 

; 692  : 							 }
; 693  : 							 for(int j=1;j<headers->Length;j++){

  0037e	11 0d		 ldloc.s 13	; j$33
  00380	17		 ldc.i.1 1	; i32 0x1
  00381	58		 add 
  00382	13 0d		 stloc.s 13	; j$33
  00384	11 0d		 ldloc.s 13	; j$33
  00386	07		 ldloc.1 	; headers$31
  00387	8e		 ldlen 
  00388	32 e2		 blt.s $LL15@compile
$LN13@compile:

; 695  : 								 //Debug::WriteLine(headers[j-1]);
; 696  : 							 }
; 697  : 							 String^ retStr = "【"+qCount+"  ";

  0038a	72 00 00 00 00	 ldstr $StringLiteralTok$??_C@_13KKMJJCOM@0?$BA?$AA?$AA@
  0038f	09		 ldloc.3 	; qCount$
  00390	8c 00 00 00 00	 box $TypeTok$11003074$
  00395	28 00 00 00 00	 call ?Concat@String@System@@$$FSMP$AAV12@P$AAVObject@2@0@Z
  0039a	72 00 00 00 00	 ldstr $StringLiteralTok$??_C@_15OJKDPEFE@?$AA?5?$AA?5?$AA?$AA@
  0039f	28 00 00 00 00	 call ?Concat@String@System@@$$FSMP$AAV12@P$AAV12@0@Z
  003a4	0a		 stloc.0 	; retStr$34

; 698  : 							 int otherCount=0;

  003a5	16		 ldc.i.0 0	; i32 0x0
  003a6	13 0c		 stloc.s 12	; otherCount$35

; 699  : 
; 700  : 							 listAddStr += headers->Length.ToString()+",";

  003a8	07		 ldloc.1 	; headers$31
  003a9	8e		 ldlen 
  003aa	13 2f		 stloc.s 47	; $T36
  003ac	08		 ldloc.2 	; listAddStr$23
  003ad	12 2f		 ldloca.s 47	; $T36
  003af	28 00 00 00 00	 call ?ToString@Int32@System@@$$FU$CAMP$AAVString@2@XZ
  003b4	72 00 00 00 00	 ldstr $StringLiteralTok$??_C@_13DEFPDAGF@?$AA?0?$AA?$AA@
  003b9	28 00 00 00 00	 call ?Concat@String@System@@$$FSMP$AAV12@P$AAV12@0@Z
  003be	28 00 00 00 00	 call ?Concat@String@System@@$$FSMP$AAV12@P$AAV12@0@Z
  003c3	0c		 stloc.2 	; listAddStr$23

; 701  : 							 listAddStr += ansNum.ToString()+",";

  003c4	11 1b		 ldloc.s 27	; ansNum$27
  003c6	13 2e		 stloc.s 46	; $T37
  003c8	08		 ldloc.2 	; listAddStr$23
  003c9	12 2e		 ldloca.s 46	; $T37
  003cb	28 00 00 00 00	 call ?ToString@Int32@System@@$$FU$CAMP$AAVString@2@XZ
  003d0	72 00 00 00 00	 ldstr $StringLiteralTok$??_C@_13DEFPDAGF@?$AA?0?$AA?$AA@
  003d5	28 00 00 00 00	 call ?Concat@String@System@@$$FSMP$AAV12@P$AAV12@0@Z
  003da	28 00 00 00 00	 call ?Concat@String@System@@$$FSMP$AAV12@P$AAV12@0@Z
  003df	0c		 stloc.2 	; listAddStr$23

; 702  : 
; 703  : 							 for(int j=0;j<headers->Length;j++){

  003e0	16		 ldc.i.0 0	; i32 0x0
  003e1	13 08		 stloc.s 8	; j$38
  003e3	16		 ldc.i.0 0	; i32 0x0
  003e4	07		 ldloc.1 	; headers$31
  003e5	8e		 ldlen 
  003e6	3c 93 00 00 00	 bge $LN10@compile
$LL12@compile:

; 704  : 								 if(j>=1)

  003eb	11 08		 ldloc.s 8	; j$38
  003ed	17		 ldc.i.1 1	; i32 0x1
  003ee	32 0c		 blt.s $LN9@compile

; 705  : 									 retStr += " , ";

  003f0	06		 ldloc.0 	; retStr$34
  003f1	72 00 00 00 00	 ldstr $StringLiteralTok$??_C@_17LDPHCILD@?$AA?5?$AA?0?$AA?5?$AA?$AA@
  003f6	28 00 00 00 00	 call ?Concat@String@System@@$$FSMP$AAV12@P$AAV12@0@Z
  003fb	0a		 stloc.0 	; retStr$34
$LN9@compile:

; 706  : 								 retStr += headers[j].ToString()+": ";

  003fc	07		 ldloc.1 	; headers$31
  003fd	11 08		 ldloc.s 8	; j$38
  003ff	93		 ldelem.u2 
  00400	13 2d		 stloc.s 45	; $T39
  00402	06		 ldloc.0 	; retStr$34
  00403	12 2d		 ldloca.s 45	; $T39
  00405	28 00 00 00 00	 call ?ToString@Char@System@@$$FU$CAMP$AAVString@2@XZ
  0040a	72 00 00 00 00	 ldstr $StringLiteralTok$??_C@_15ELOONFKJ@?$AA?3?$AA?5?$AA?$AA@
  0040f	28 00 00 00 00	 call ?Concat@String@System@@$$FSMP$AAV12@P$AAV12@0@Z
  00414	28 00 00 00 00	 call ?Concat@String@System@@$$FSMP$AAV12@P$AAV12@0@Z
  00419	0a		 stloc.0 	; retStr$34

; 707  : 								 if((j+1)==ansNum || otherCount >= items->Length){

  0041a	11 08		 ldloc.s 8	; j$38
  0041c	17		 ldc.i.1 1	; i32 0x1
  0041d	58		 add 
  0041e	11 1b		 ldloc.s 27	; ansNum$27
  00420	2e 31		 beq.s $LN7@compile
  00422	11 0c		 ldloc.s 12	; otherCount$35
  00424	11 13		 ldloc.s 19	; items$30
  00426	8e		 ldlen 
  00427	2f 2a		 bge.s $LN7@compile

; 710  : 								 }else{
; 711  : 									 retStr += items[otherCount];

  00429	06		 ldloc.0 	; retStr$34
  0042a	11 13		 ldloc.s 19	; items$30
  0042c	11 0c		 ldloc.s 12	; otherCount$35
  0042e	9a		 ldelem.ref 
  0042f	28 00 00 00 00	 call ?Concat@String@System@@$$FSMP$AAV12@P$AAV12@0@Z
  00434	0a		 stloc.0 	; retStr$34

; 712  : 									 listAddStr +=  items[otherCount]+":";

  00435	08		 ldloc.2 	; listAddStr$23
  00436	11 13		 ldloc.s 19	; items$30
  00438	11 0c		 ldloc.s 12	; otherCount$35
  0043a	9a		 ldelem.ref 
  0043b	72 00 00 00 00	 ldstr $StringLiteralTok$??_C@_13EBCNDICG@?$AA?3?$AA?$AA@
  00440	28 00 00 00 00	 call ?Concat@String@System@@$$FSMP$AAV12@P$AAV12@0@Z
  00445	28 00 00 00 00	 call ?Concat@String@System@@$$FSMP$AAV12@P$AAV12@0@Z
  0044a	0c		 stloc.2 	; listAddStr$23

; 713  : 									 otherCount++;

  0044b	11 0c		 ldloc.s 12	; otherCount$35
  0044d	17		 ldc.i.1 1	; i32 0x1
  0044e	58		 add 
  0044f	13 0c		 stloc.s 12	; otherCount$35
  00451	2b 1c		 br.s $LN11@compile
$LN7@compile:

; 708  : 									 retStr += answer;

  00453	06		 ldloc.0 	; retStr$34
  00454	11 1c		 ldloc.s 28	; answer$26
  00456	28 00 00 00 00	 call ?Concat@String@System@@$$FSMP$AAV12@P$AAV12@0@Z
  0045b	0a		 stloc.0 	; retStr$34

; 709  : 									 listAddStr += answer+":";

  0045c	08		 ldloc.2 	; listAddStr$23
  0045d	11 1c		 ldloc.s 28	; answer$26
  0045f	72 00 00 00 00	 ldstr $StringLiteralTok$??_C@_13EBCNDICG@?$AA?3?$AA?$AA@
  00464	28 00 00 00 00	 call ?Concat@String@System@@$$FSMP$AAV12@P$AAV12@0@Z
  00469	28 00 00 00 00	 call ?Concat@String@System@@$$FSMP$AAV12@P$AAV12@0@Z
  0046e	0c		 stloc.2 	; listAddStr$23
$LN11@compile:

; 702  : 
; 703  : 							 for(int j=0;j<headers->Length;j++){

  0046f	11 08		 ldloc.s 8	; j$38
  00471	17		 ldc.i.1 1	; i32 0x1
  00472	58		 add 
  00473	13 08		 stloc.s 8	; j$38
  00475	11 08		 ldloc.s 8	; j$38
  00477	07		 ldloc.1 	; headers$31
  00478	8e		 ldlen 
  00479	3f 6d ff ff ff	 blt $LL12@compile
$LN10@compile:

; 714  : 								 }
; 715  : 							 }
; 716  : 							 retStr += "】";

  0047e	06		 ldloc.0 	; retStr$34
  0047f	72 00 00 00 00	 ldstr $StringLiteralTok$??_C@_13BCHFPFIJ@0?$BB?$AA?$AA@
  00484	28 00 00 00 00	 call ?Concat@String@System@@$$FSMP$AAV12@P$AAV12@0@Z
  00489	0a		 stloc.0 	; retStr$34

; 717  : 							 retStr = escapeReSet(retStr);

  0048a	06		 ldloc.0 	; retStr$34
  0048b	28 00 00 00 00	 call ?escapeReSet@MogiTest@Mogitter@@$$FSMP$AAVString@System@@P$AAV34@@Z
  00490	0a		 stloc.0 	; retStr$34

; 718  : 
; 719  : 							 temp = temp->Replace(saveInKakko,retStr);

  00491	11 04		 ldloc.s 4	; temp$
  00493	11 20		 ldloc.s 32	; saveInKakko$21
  00495	06		 ldloc.0 	; retStr$34
  00496	28 00 00 00 00	 call ?Replace@String@System@@$$FQ$AAMP$AAV12@P$AAV12@0@Z
  0049b	13 04		 stloc.s 4	; temp$

; 720  : 							 questStrings->Add(listAddStr);

  0049d	02		 ldarg.0 	; this$
  0049e	7b 00 00 00 00	 ldfld ?questStrings@MogiTest@Mogitter@@3P$AAV?$List@P$AAVString@System@@@Generic@Collections@System@@$AA
  004a3	08		 ldloc.2 	; listAddStr$23
  004a4	6f 00 00 00 00	 callvirt ?Add@?$List@P$AAVString@System@@@Generic@Collections@System@@$$FU$AAMXP$AAVString@4@@Z

; 721  : 
; 722  : 						 }else{

  004a9	38 77 00 00 00	 br $LN5@compile
$LN29@compile:

; 723  : 							 spliters[0] = '=';

  004ae	11 06		 ldloc.s 6	; spliters$22
  004b0	16		 ldc.i.0 0	; i32 0x0
  004b1	8f 00 00 00 00	 ldelema $va_argTok$_W
  004b6	1f 3d		 ldc.i4.s 61	; u16 0x3d
  004b8	53		 stind.i2 

; 724  : 							 String^ answer = inKakko->Split(spliters)[1];

  004b9	11 09		 ldloc.s 9	; inKakko$20
  004bb	11 06		 ldloc.s 6	; spliters$22
  004bd	28 00 00 00 00	 call ?Split@String@System@@$$FQ$AAMP$01AP$AAV12@P$01A_W@Z
  004c2	17		 ldc.i.1 1	; i32 0x1
  004c3	9a		 ldelem.ref 
  004c4	13 07		 stloc.s 7	; answer$40

; 725  : 							 //****!!!!
; 726  : 							 //特殊文字の問題。"," ";" "="はエスケープすべき。
; 727  : //							 try{
; 728  : 								answer = answer->Substring(0,answer->Length-2);

  004c6	11 07		 ldloc.s 7	; answer$40
  004c8	16		 ldc.i.0 0	; i32 0x0
  004c9	11 07		 ldloc.s 7	; answer$40
  004cb	28 00 00 00 00	 call ?get@Length@String@System@@$$FQ$AAMHXZ
  004d0	18		 ldc.i.2 2	; i32 0x2
  004d1	59		 sub 
  004d2	28 00 00 00 00	 call ?Substring@String@System@@$$FQ$AAMP$AAV12@HH@Z
  004d7	13 07		 stloc.s 7	; answer$40

; 729  : //							 }catch(Exception^){
; 730  : //								Debug::WriteLine(answer);
; 731  : //							 }
; 732  : 
; 733  : 							 answer = escapeReSet(answer);

  004d9	11 07		 ldloc.s 7	; answer$40
  004db	28 00 00 00 00	 call ?escapeReSet@MogiTest@Mogitter@@$$FSMP$AAVString@System@@P$AAV34@@Z
  004e0	13 07		 stloc.s 7	; answer$40

; 734  : 
; 735  : 							 listAddStr = "1,"+escapeReady(answer);

  004e2	72 00 00 00 00	 ldstr $StringLiteralTok$??_C@_15GLPPJKNC@?$AA1?$AA?0?$AA?$AA@
  004e7	11 07		 ldloc.s 7	; answer$40
  004e9	28 00 00 00 00	 call ?escapeReady@MogiTest@Mogitter@@$$FSMP$AAVString@System@@P$AAV34@@Z
  004ee	28 00 00 00 00	 call ?Concat@String@System@@$$FSMP$AAV12@P$AAV12@0@Z
  004f3	0c		 stloc.2 	; listAddStr$23

; 736  : 							 questStrings->Add(listAddStr);

  004f4	02		 ldarg.0 	; this$
  004f5	7b 00 00 00 00	 ldfld ?questStrings@MogiTest@Mogitter@@3P$AAV?$List@P$AAVString@System@@@Generic@Collections@System@@$AA
  004fa	08		 ldloc.2 	; listAddStr$23
  004fb	6f 00 00 00 00	 callvirt ?Add@?$List@P$AAVString@System@@@Generic@Collections@System@@$$FU$AAMXP$AAVString@4@@Z

; 737  : 
; 738  : 							 temp = temp->Replace(saveInKakko,"【"+qCount+"】");

  00500	11 04		 ldloc.s 4	; temp$
  00502	11 20		 ldloc.s 32	; saveInKakko$21
  00504	72 00 00 00 00	 ldstr $StringLiteralTok$??_C@_13KKMJJCOM@0?$BA?$AA?$AA@
  00509	09		 ldloc.3 	; qCount$
  0050a	8c 00 00 00 00	 box $TypeTok$11003074$
  0050f	28 00 00 00 00	 call ?Concat@String@System@@$$FSMP$AAV12@P$AAVObject@2@0@Z
  00514	72 00 00 00 00	 ldstr $StringLiteralTok$??_C@_13BCHFPFIJ@0?$BB?$AA?$AA@
  00519	28 00 00 00 00	 call ?Concat@String@System@@$$FSMP$AAV12@P$AAV12@0@Z
  0051e	28 00 00 00 00	 call ?Replace@String@System@@$$FQ$AAMP$AAV12@P$AAV12@0@Z
  00523	13 04		 stloc.s 4	; temp$
$LN5@compile:

; 631  : 					 //questStrings->Clear();
; 632  : 					 //answerStrings->Clear();
; 633  : 					 while(qCount < 1000){

  00525	09		 ldloc.3 	; qCount$
  00526	20 e8 03 00 00	 ldc.i4 1000	; i32 0x3e8
  0052b	3f 6b fc ff ff	 blt $LL33@compile
$LN31@compile:

; 739  : 							}
; 740  : 					 }
; 741  : 					 //正解を取り出す作業は後でいいのでは?
; 742  : 					 //array<String^>^ answers = gcnew  array<String^>(qCount);
; 743  : 					 if (qCount==0)

  00530	09		 ldloc.3 	; qCount$
  00531	2d 02		 brtrue.s $LN4@compile

; 744  : 					 {
; 745  : 						 return false;

  00533	16		 ldc.i.0 0	; u8 0x0
  00534	2a		 ret 
$LN4@compile:

; 746  : 					 }
; 747  : 					 QNumUpDown->Enabled = true;

  00535	02		 ldarg.0 	; this$
  00536	7b 00 00 00 00	 ldfld ?QNumUpDown@MogiTest@Mogitter@@3P$AAVNumericUpDown@Forms@Windows@System@@$AA
  0053b	17		 ldc.i.1 1	; u8 0x1
  0053c	28 00 00 00 00	 call ?set@Enabled@Control@Forms@Windows@System@@$$FQ$AAMX_N@Z

; 748  : 					 QNumUpDown->Minimum = 1;

  00541	17		 ldc.i.1 1	; i32 0x1
  00542	28 00 00 00 00	 call ??BDecimal@System@@$$FSM?AV01@H@Z
  00547	13 2b		 stloc.s 43	; $T41
  00549	02		 ldarg.0 	; this$
  0054a	7b 00 00 00 00	 ldfld ?QNumUpDown@MogiTest@Mogitter@@3P$AAVNumericUpDown@Forms@Windows@System@@$AA
  0054f	11 2b		 ldloc.s 43	; $T41
  00551	28 00 00 00 00	 call ?set@Minimum@NumericUpDown@Forms@Windows@System@@$$FQ$AAMXVDecimal@5@@Z

; 749  : 					 QNumUpDown->Maximum = qCount;

  00556	09		 ldloc.3 	; qCount$
  00557	28 00 00 00 00	 call ??BDecimal@System@@$$FSM?AV01@H@Z
  0055c	13 2a		 stloc.s 42	; $T42
  0055e	02		 ldarg.0 	; this$
  0055f	7b 00 00 00 00	 ldfld ?QNumUpDown@MogiTest@Mogitter@@3P$AAVNumericUpDown@Forms@Windows@System@@$AA
  00564	11 2a		 ldloc.s 42	; $T42
  00566	28 00 00 00 00	 call ?set@Maximum@NumericUpDown@Forms@Windows@System@@$$FQ$AAMXVDecimal@5@@Z

; 750  : 					 QNumUpDown->Value = 1;

  0056b	17		 ldc.i.1 1	; i32 0x1
  0056c	28 00 00 00 00	 call ??BDecimal@System@@$$FSM?AV01@H@Z
  00571	13 29		 stloc.s 41	; $T43
  00573	02		 ldarg.0 	; this$
  00574	7b 00 00 00 00	 ldfld ?QNumUpDown@MogiTest@Mogitter@@3P$AAVNumericUpDown@Forms@Windows@System@@$AA
  00579	11 29		 ldloc.s 41	; $T43
  0057b	28 00 00 00 00	 call ?set@Value@NumericUpDown@Forms@Windows@System@@$$FQ$AAMXVDecimal@5@@Z

; 751  : 
; 752  : 					 QuestSentence->Text = temp;

  00580	02		 ldarg.0 	; this$
  00581	7b 00 00 00 00	 ldfld ?QuestSentence@MogiTest@Mogitter@@3P$AAVAzukiControl@WinForms@Azuki@Sgry@@$AA
  00586	11 04		 ldloc.s 4	; temp$
  00588	6f 00 00 00 00	 callvirt ?set@Text@AzukiControl@WinForms@Azuki@Sgry@@$$FU$AAMXP$AAVString@System@@@Z

; 753  : 					 userAnswerArea->Text = "";

  0058d	02		 ldarg.0 	; this$
  0058e	7b 00 00 00 00	 ldfld ?userAnswerArea@MogiTest@Mogitter@@3P$AAVAzukiControl@WinForms@Azuki@Sgry@@$AA
  00593	72 00 00 00 00	 ldstr $StringLiteralTok$??_C@_11LOCGONAA@?$AA?$AA@
  00598	6f 00 00 00 00	 callvirt ?set@Text@AzukiControl@WinForms@Azuki@Sgry@@$$FU$AAMXP$AAVString@System@@@Z

; 754  : 					 for(int i = 0;i<=qCount;i++){

  0059d	16		 ldc.i.0 0	; i32 0x0
  0059e	13 14		 stloc.s 20	; i$44
  005a0	16		 ldc.i.0 0	; i32 0x0
  005a1	09		 ldloc.3 	; qCount$
  005a2	30 4d		 bgt.s $LN1@compile
$LL3@compile:

; 755  : 						 answerStrings->Add("");

  005a4	02		 ldarg.0 	; this$
  005a5	7b 00 00 00 00	 ldfld ?answerStrings@MogiTest@Mogitter@@3P$AAV?$List@P$AAVString@System@@@Generic@Collections@System@@$AA
  005aa	72 00 00 00 00	 ldstr $StringLiteralTok$??_C@_11LOCGONAA@?$AA?$AA@
  005af	6f 00 00 00 00	 callvirt ?Add@?$List@P$AAVString@System@@@Generic@Collections@System@@$$FU$AAMXP$AAVString@4@@Z

; 756  : 						 userAnswerArea->Text +=answerStrings[i]+"\n";

  005b4	02		 ldarg.0 	; this$
  005b5	7b 00 00 00 00	 ldfld ?userAnswerArea@MogiTest@Mogitter@@3P$AAVAzukiControl@WinForms@Azuki@Sgry@@$AA
  005ba	02		 ldarg.0 	; this$
  005bb	7b 00 00 00 00	 ldfld ?userAnswerArea@MogiTest@Mogitter@@3P$AAVAzukiControl@WinForms@Azuki@Sgry@@$AA
  005c0	6f 00 00 00 00	 callvirt ?get@Text@AzukiControl@WinForms@Azuki@Sgry@@$$FU$AAMP$AAVString@System@@XZ
  005c5	02		 ldarg.0 	; this$
  005c6	7b 00 00 00 00	 ldfld ?answerStrings@MogiTest@Mogitter@@3P$AAV?$List@P$AAVString@System@@@Generic@Collections@System@@$AA
  005cb	11 14		 ldloc.s 20	; i$44
  005cd	6f 00 00 00 00	 callvirt ?get@default@?$List@P$AAVString@System@@@Generic@Collections@System@@$$FU$AAMP$AAVString@5@H@Z
  005d2	72 00 00 00 00	 ldstr $StringLiteralTok$??_C@_13LBAGMAIH@?$AA?6?$AA?$AA@
  005d7	28 00 00 00 00	 call ?Concat@String@System@@$$FSMP$AAV12@P$AAV12@0@Z
  005dc	28 00 00 00 00	 call ?Concat@String@System@@$$FSMP$AAV12@P$AAV12@0@Z
  005e1	6f 00 00 00 00	 callvirt ?set@Text@AzukiControl@WinForms@Azuki@Sgry@@$$FU$AAMXP$AAVString@System@@@Z

; 754  : 					 for(int i = 0;i<=qCount;i++){

  005e6	11 14		 ldloc.s 20	; i$44
  005e8	17		 ldc.i.1 1	; i32 0x1
  005e9	58		 add 
  005ea	13 14		 stloc.s 20	; i$44
  005ec	11 14		 ldloc.s 20	; i$44
  005ee	09		 ldloc.3 	; qCount$
  005ef	31 b3		 ble.s $LL3@compile
$LN1@compile:

; 757  : 					 }
; 758  : 					 anaumeAnsBox->Text = "";

  005f1	02		 ldarg.0 	; this$
  005f2	7b 00 00 00 00	 ldfld ?anaumeAnsBox@MogiTest@Mogitter@@3P$AAVRichTextBox@Forms@Windows@System@@$AA
  005f7	72 00 00 00 00	 ldstr $StringLiteralTok$??_C@_11LOCGONAA@?$AA?$AA@
  005fc	6f 00 00 00 00	 callvirt ?set@Text@RichTextBox@Forms@Windows@System@@$$FU$AAMXP$AAVString@5@@Z

; 759  : 					 sentakushiCombo->Items->Clear();

  00601	02		 ldarg.0 	; this$
  00602	7b 00 00 00 00	 ldfld ?sentakushiCombo@MogiTest@Mogitter@@3P$AAVComboBox@Forms@Windows@System@@$AA
  00607	28 00 00 00 00	 call ?get@Items@ComboBox@Forms@Windows@System@@$$FQ$AAMP$AAVObjectCollection@2345@XZ
  0060c	6f 00 00 00 00	 callvirt ?Clear@ObjectCollection@ComboBox@Forms@Windows@System@@$$FU$AAMXXZ

; 760  : 					 sentakushiCombo->Items->Add("(none)");

  00611	02		 ldarg.0 	; this$
  00612	7b 00 00 00 00	 ldfld ?sentakushiCombo@MogiTest@Mogitter@@3P$AAVComboBox@Forms@Windows@System@@$AA
  00617	28 00 00 00 00	 call ?get@Items@ComboBox@Forms@Windows@System@@$$FQ$AAMP$AAVObjectCollection@2345@XZ
  0061c	72 00 00 00 00	 ldstr $StringLiteralTok$??_C@_1O@HBJEMMOJ@?$AA?$CI?$AAn?$AAo?$AAn?$AAe?$AA?$CJ?$AA?$AA@
  00621	28 00 00 00 00	 call ?Add@ObjectCollection@ComboBox@Forms@Windows@System@@$$FQ$AAMHP$AAVObject@5@@Z
  00626	26		 pop 

; 761  : 
; 762  : 					 qnumDoing();

  00627	02		 ldarg.0 	; this$
  00628	28 00 00 00 00	 call ?qnumDoing@MogiTest@Mogitter@@$$FA$AAMXXZ

; 763  : 					 anaumeAnsBox->Focus();

  0062d	02		 ldarg.0 	; this$
  0062e	7b 00 00 00 00	 ldfld ?anaumeAnsBox@MogiTest@Mogitter@@3P$AAVRichTextBox@Forms@Windows@System@@$AA
  00633	28 00 00 00 00	 call ?Focus@Control@Forms@Windows@System@@$$FQ$AAM_NXZ
  00638	26		 pop 

; 764  : 					 return true;

  00639	17		 ldc.i.1 1	; u8 0x1
  0063a	2a		 ret 
 .end ?compile@MogiTest@Mogitter@@$$FQ$AAM_NP$AAVString@System@@@Z ; Mogitter::MogiTest::compile
;	.proc.end.u1
; Function compile flags: /Ogsp
; File f:\meijin4\c++\mogitter\mogitter\qmarking.cpp
	.text
	.comdat	noduplicate, ?button2_Click@QMarking@Mogitter@@$$FQ$AAMXP$AAVObject@System@@P$AAVEventArgs@4@@Z
.global	?button2_Click@QMarking@Mogitter@@$$FQ$AAMXP$AAVObject@System@@P$AAVEventArgs@4@@Z ; Mogitter::QMarking::button2_Click
?button2_Click@QMarking@Mogitter@@$$FQ$AAMXP$AAVObject@System@@P$AAVEventArgs@4@@Z: ; Mogitter::QMarking::button2_Click
;	.proc.def	D:V(PP)

; Function Header:
; max stack depth = 2
; function size = 40 bytes
; local varsig tk = 0x0 
; Exception Information:
; 0 handlers, each consisting of filtered handlers

;	.formal.mptr 0,"this$" SIG: Optional C Binding Modifier(token:0x38F1B5).class (token:0x38F1B8)

;	.proc.beg

; 18   : 	byButtonClose = true;

  0000b	02		 ldarg.0 	; this$
  0000c	17		 ldc.i.1 1	; u8 0x1
  0000d	7d 00 00 00 00	 stfld ?byButtonClose@QMarking@Mogitter@@3_NA

; 19   : 	if (this->Owner != nullptr){

  00012	02		 ldarg.0 	; this$
  00013	28 00 00 00 00	 call ?get@Owner@Form@Forms@Windows@System@@$$FQ$AAMP$AAV2345@XZ
  00018	2c 13		 brfalse.s $LN1@button2_Cl

; 20   : 		MogiTest^ test = static_cast<MogiTest^>(this->Owner);

  0001a	02		 ldarg.0 	; this$
  0001b	28 00 00 00 00	 call ?get@Owner@Form@Forms@Windows@System@@$$FQ$AAMP$AAV2345@XZ

; 21   : 		test->compile(test->plainText);

  00020	25		 dup 
  00021	7b 00 00 00 00	 ldfld ?plainText@MogiTest@Mogitter@@3P$AAVString@System@@$AA
  00026	28 00 00 00 00	 call ?compile@MogiTest@Mogitter@@$$FQ$AAM_NP$AAVString@System@@@Z
  0002b	26		 pop 
$LN1@button2_Cl:

; 22   : 	}
; 23   : 		this->Close();

  0002d	02		 ldarg.0 	; this$
  0002e	28 00 00 00 00	 call ?Close@Form@Forms@Windows@System@@$$FQ$AAMXXZ

; 24   : }

  00033	2a		 ret 
 .end ?button2_Click@QMarking@Mogitter@@$$FQ$AAMXP$AAVObject@System@@P$AAVEventArgs@4@@Z ; Mogitter::QMarking::button2_Click
;	.proc.end.void
